(dp0
S'policy'
p1
(lp2
(lp3
(S'W'
p4
tp5
a(S'S'
p6
tp7
a(g6
tp8
a(S'E'
p9
tp10
a(g6
tp11
a(g4
tp12
a(g6
tp13
a(g9
tp14
a(g6
tp15
a(g6
tp16
a(g6
tp17
a(g6
tp18
aa(lp19
(g6
tp20
a(S'N'
p21
tp22
a(g21
tp23
a(g21
tp24
a(g21
tp25
a(g4
tp26
a(g21
tp27
a(g21
tp28
a(g4
tp29
a(g21
tp30
a(g21
tp31
a(g21
tp32
aa(lp33
(g6
tp34
a(g6
tp35
a(g4
tp36
a(g21
tp37
a(g9
tp38
a(g21
tp39
a(g6
tp40
a(g9
tp41
a(g9
tp42
a(g4
tp43
a(g9
tp44
a(g21
tp45
aa(lp46
(g6
tp47
a(g4
tp48
a(g4
tp49
a(g21
tp50
a(g6
tp51
a(g21
tp52
a(g21
tp53
a(g6
tp54
a(g9
tp55
a(g9
tp56
a(g6
tp57
a(g21
tp58
aa(lp59
(g21
tp60
a(g4
tp61
a(g6
tp62
a(g6
tp63
a(g6
tp64
a(g9
tp65
a(g21
tp66
a(g21
tp67
a(g9
tp68
a(g9
tp69
a(g4
tp70
a(g21
tp71
aa(lp72
(g21
tp73
a(g6
tp74
a(g21
tp75
a(g4
tp76
a(g6
tp77
a(g21
tp78
a(g4
tp79
a(g21
tp80
a(g9
tp81
a(g6
tp82
a(g4
tp83
a(g6
tp84
aa(lp85
(g21
tp86
a(g6
tp87
a(g4
tp88
a(g9
tp89
a(g4
tp90
a(g9
tp91
a(g6
tp92
a(g9
tp93
a(g6
tp94
a(g4
tp95
a(g21
tp96
a(g21
tp97
aa(lp98
(g4
tp99
a(g4
tp100
a(g6
tp101
a(g6
tp102
a(g4
tp103
a(g4
tp104
a(g6
tp105
a(g4
tp106
a(g9
tp107
a(g21
tp108
a(g4
tp109
a(g4
tp110
aa(lp111
(g21
tp112
a(g6
tp113
a(g21
tp114
a(g6
tp115
a(g4
tp116
a(g4
tp117
a(g6
tp118
a(g9
tp119
a(g6
tp120
a(g4
tp121
a(g4
tp122
a(g21
tp123
aa(lp124
(g6
tp125
a(g9
tp126
a(g9
tp127
a(g9
tp128
a(g4
tp129
a(g6
tp130
a(g6
tp131
a(g21
tp132
a(g21
tp133
a(g21
tp134
a(g9
tp135
a(g4
tp136
aa(lp137
(g6
tp138
a(g9
tp139
a(g9
tp140
a(g4
tp141
a(g9
tp142
a(g6
tp143
a(g9
tp144
a(g9
tp145
a(g6
tp146
a(g9
tp147
a(g21
tp148
a(g21
tp149
aa(lp150
(g9
tp151
a(g6
tp152
a(g9
tp153
a(g21
tp154
a(g21
tp155
a(g9
tp156
a(g9
tp157
a(g6
tp158
a(g21
tp159
a(g21
tp160
a(g9
tp161
a(g4
tp162
aasS'returns'
p163
(lp164
F-19.119999999999997
aF-7.96
aF-9.4599999999999973
aF-6.0999999999999996
aF-4.2199999999999989
aF-3.7599999999999998
aF-10.140000000000001
aF-6.8000000000000007
aF-3.3799999999999999
aF-1.9199999999999999
aF-2.3399999999999999
aF-5.8200000000000003
aF-6.3799999999999999
aF0.16000000000000006
aF-2.5800000000000001
aF-1.8
aF-0.76000000000000012
aF-0.31999999999999995
aF-2.8599999999999994
aF-2.3199999999999998
aF0.43999999999999984
aF1.1399999999999999
aF0.59999999999999998
aF3.6600000000000001
aF-1.0399999999999998
aF0.95999999999999985
aF-2.3799999999999999
aF-1.2799999999999996
aF0.97999999999999998
aF1.5800000000000001
aF3.5399999999999996
aF0.54000000000000004
aF1.0
aF-1.3
aF2.1400000000000001
aF0.52000000000000002
aF-1.0
aF-0.57999999999999996
aF1.6599999999999999
aF-1.9999999999999998
aF2.1600000000000001
aF-2.4199999999999999
aF2.4800000000000004
aF0.84000000000000019
aF0.80000000000000004
aF2.6600000000000001
aF1.22
aF0.78000000000000003
aF0.85999999999999999
aF0.080000000000000002
aF1.1200000000000001
aF0.54000000000000004
aF1.3200000000000001
aF2.0
aF1.6399999999999995
aF2.3800000000000008
aF2.6600000000000001
aF0.12
aF2.5600000000000001
aF1.6399999999999999
aF2.6400000000000001
aF1.6200000000000001
aF-0.41999999999999987
aF-0.44
aF2.5799999999999996
aF1.7199999999999998
aF3.7999999999999998
aF1.5800000000000005
aF2.7400000000000002
aF2.2599999999999998
aF3.54
aF2.96
aF0.50000000000000011
aF3.02
aF1.28
aF1.2
aF2.7399999999999989
aF2.0800000000000005
aF3.6200000000000001
aF2.6999999999999993
aF0.54000000000000015
aF2.1200000000000001
aF0.54000000000000004
aF2.3999999999999999
aF1.8999999999999999
aF2.4199999999999999
aF1.72
aF2.8599999999999999
aF2.9199999999999999
aF1.0800000000000003
aF-0.059999999999999859
aF3.4199999999999999
aF2.02
aF2.02
aF4.1399999999999997
aF1.98
aF1.1800000000000002
aF0.76000000000000112
aF2.7799999999999998
aF-0.61999999999999988
aF2.1000000000000001
aF0.28000000000000003
aF0.89999999999999947
aF2.9399999999999995
aF2.0600000000000001
aF3.6799999999999988
aF1.8
aF-0.22000000000000014
aF2.3599999999999999
aF3.3799999999999999
aF0.95999999999999996
aF4.3399999999999999
aF3.3799999999999999
aF3.6400000000000001
aF2.0000000000000004
aF1.74
aF2.2999999999999998
aF3.2200000000000002
aF1.5600000000000001
aF1.0600000000000001
aF2.98
aF0.97999999999999998
aF3.2799999999999998
aF2.5400000000000005
aF3.1200000000000001
aF2.48
aF1.98
aF1.3200000000000001
aF2.8200000000000007
aF1.3600000000000003
aF3.399999999999999
aF3.8400000000000007
aF4.3200000000000003
aF3.5400000000000009
aF4.379999999999999
aF2.3599999999999999
aF2.5599999999999996
aF1.1200000000000001
aF2.2799999999999998
aF0.47999999999999998
aF1.4399999999999995
aF2.2599999999999998
aF3.2999999999999998
aF4.799999999999998
aF-0.080000000000000279
aF3.0800000000000001
aF4.6799999999999997
aF3.7400000000000002
aF2.7200000000000002
aF4.4800000000000013
aF0.95999999999999996
aF2.9400000000000004
aF2.0800000000000001
aF4.3399999999999999
aF4.0200000000000005
aF4.1799999999999997
aF4.379999999999999
aF3.1200000000000006
aF1.6199999999999994
aF2.3599999999999999
aF3.0200000000000014
aF3.6400000000000001
aF2.5400000000000005
aF2.5600000000000001
aF4.3600000000000003
aF2.6600000000000001
aF3.2000000000000002
aF3.1400000000000001
aF0.67999999999999972
aF4.5800000000000001
aF2.9200000000000004
aF3.1200000000000001
aF3.2999999999999994
aF3.02
aF0.4600000000000003
aF2.98
aF5.8799999999999999
aF3.1000000000000001
aF2.7200000000000006
aF2.7799999999999998
aF3.6600000000000001
aF2.4200000000000008
aF5.2799999999999985
aF2.3399999999999999
aF6.4800000000000004
aF3.02
aF0.57999999999999996
aF2.8199999999999998
aF4.5600000000000014
aF5.7800000000000002
aF1.1399999999999999
aF3.6800000000000002
aF3.9199999999999999
aF4.5199999999999996
aF3.0600000000000001
aF3.0600000000000001
aF2.2200000000000002
aF5.5599999999999996
aF2.2400000000000002
aF5.1799999999999997
aF3.9000000000000004
aF4.5799999999999992
aF3.8000000000000007
aF3.98
aF3.6000000000000001
aF3.9800000000000004
aF3.1200000000000006
aF3.9400000000000004
aF3.1400000000000001
aF3.9599999999999995
aF4.0599999999999996
aF2.6400000000000001
aF3.7399999999999993
aF4.9599999999999991
aF4.5599999999999996
aF3.5800000000000001
aF1.1000000000000001
aF5.5799999999999992
aF5.7799999999999976
aF2.8399999999999999
aF2.3199999999999998
aF3.8999999999999999
aF3.8399999999999999
aF4.620000000000001
aF2.5600000000000001
aF4.0
aF2.8399999999999999
aF4.620000000000001
aF3.7599999999999993
aF5.9400000000000004
aF3.8999999999999999
aF4.5199999999999996
aF3.4000000000000004
aF4.0199999999999996
aF3.7400000000000002
aF5.2400000000000011
aF4.4599999999999982
aF3.3799999999999999
aF6.2599999999999989
aF2.8599999999999999
aF1.96
aF3.0600000000000001
aF4.04
aF3.2200000000000002
aF3.0800000000000001
aF0.83999999999999975
aF5.0599999999999987
aF5.5200000000000022
aF3.8199999999999998
aF4.1399999999999997
aF4.6800000000000015
aF4.1399999999999997
aF3.2799999999999998
aF5.1600000000000001
aF3.04
aF3.2400000000000002
aF3.4200000000000013
aF5.5599999999999987
aF3.7799999999999998
aF4.7800000000000011
aF4.2399999999999993
aF5.0000000000000009
aF5.96
aF4.7199999999999998
aF3.7200000000000002
aF5.4799999999999986
aF4.7600000000000016
aF4.0800000000000001
aF4.0599999999999996
aF3.6400000000000006
aF4.7800000000000002
aF3.3599999999999999
aF2.04
aF2.6000000000000001
aF5.9000000000000004
aF5.0000000000000009
aF2.7400000000000002
aF3.8600000000000012
aF4.1200000000000019
aF4.3200000000000003
aF4.7800000000000002
aF5.3600000000000003
aF4.5200000000000014
aF2.0600000000000001
aF4.9799999999999986
aF4.7400000000000002
aF6.3600000000000003
aF4.8600000000000012
aF5.5999999999999996
aF4.2200000000000006
aF5.8399999999999999
aF4.8600000000000012
aF4.2000000000000002
aF4.9999999999999991
aF3.6400000000000001
aF3.9600000000000004
aF2.7999999999999989
aF4.6200000000000019
aF4.7400000000000002
aF4.54
aF5.5999999999999996
aF5.5999999999999988
aF6.7599999999999989
aF5.3200000000000003
aF2.7400000000000002
aF5.9400000000000004
aF5.3199999999999985
aF4.6400000000000006
aF3.8399999999999999
aF5.2400000000000002
aF4.1799999999999997
aF5.2199999999999998
aF3.7999999999999998
aF3.8999999999999999
aF3.4199999999999995
aF3.7799999999999994
aF5.8200000000000003
aF4.1399999999999988
aF6.1200000000000001
aF5.7000000000000002
aF5.5999999999999996
aF3.8599999999999999
aF5.3200000000000012
aF4.6800000000000015
aF5.2200000000000024
aF4.8999999999999986
aF3.5600000000000001
aF5.5999999999999996
aF5.3799999999999999
aF3.7999999999999994
aF4.2599999999999998
aF6.2800000000000002
aF3.5
aF5.3399999999999999
aF3.7200000000000002
aF3.7400000000000015
aF1.5400000000000003
aF4.7199999999999998
aF3.0
aF3.7599999999999998
aF5.0600000000000005
aF5.3399999999999999
aF3.0600000000000001
aF4.46
aF5.2400000000000002
aF3.8800000000000008
aF4.5999999999999996
aF5.8799999999999999
aF4.0600000000000014
aF5.2000000000000002
aF4.8399999999999999
aF4.620000000000001
aF6.0800000000000001
aF5.9400000000000004
aF4.9999999999999991
aF4.2999999999999998
aF4.6000000000000014
aF5.6799999999999997
aF3.2000000000000002
aF6.04
aF4.1199999999999992
aF5.2999999999999998
aF4.1199999999999983
aF4.9000000000000021
aF4.7600000000000007
aF1.5800000000000001
aF3.2400000000000002
aF5.0200000000000005
aF4.1599999999999993
aF3.8799999999999999
aF5.7999999999999998
aF5.6200000000000001
aF4.8399999999999999
aF6.0599999999999996
aF6.4400000000000004
aF4.580000000000001
aF5.0200000000000005
aF4.2400000000000002
aF5.2400000000000011
aF5.7000000000000002
aF3.9799999999999982
aF5.7800000000000002
aF3.9400000000000013
aF4.8000000000000007
aF5.2800000000000002
aF3.04
aF3.9400000000000004
aF3.52
aF5.6600000000000001
aF6.0800000000000001
aF5.0000000000000009
aF4.6999999999999993
aF4.1200000000000001
aF5.5199999999999996
aF3.9199999999999999
aF3.6599999999999984
aF3.6399999999999992
aF4.3799999999999999
aF5.7400000000000002
aF2.6599999999999988
aF5.6199999999999992
aF4.3600000000000003
aF3.8600000000000017
aF4.04
aF5.3800000000000008
aF4.5199999999999987
aF4.379999999999999
aF3.2000000000000006
aF4.3200000000000003
aF5.6600000000000001
aF6.0599999999999996
aF3.0800000000000001
aF4.3799999999999999
aF5.8200000000000003
aF4.6999999999999993
aF4.6399999999999997
aF5.5199999999999996
aF4.9000000000000004
aF4.620000000000001
aF4.3599999999999985
aF5.0400000000000009
aF3.919999999999999
aF4.7400000000000002
aF6.7999999999999998
aF4.3199999999999994
aF4.2200000000000006
aF4.3200000000000003
aF5.8200000000000003
aF4.0800000000000001
aF4.3999999999999986
aF4.7000000000000002
aF5.54
aF5.8399999999999999
aF5.0600000000000005
aF3.9399999999999999
aF4.3600000000000003
aF3.8999999999999999
aF3.7200000000000002
aF5.7000000000000002
aF2.9200000000000004
aF3.899999999999999
aF6.7199999999999998
aF5.9199999999999999
aF4.0999999999999996
aF4.2400000000000002
aF5.3600000000000003
aF5.2199999999999998
aF6.2800000000000002
aF4.4200000000000008
aF4.9400000000000013
aF5.0399999999999974
aF2.9399999999999995
aF4.2800000000000002
aF5.6799999999999997
aF4.0800000000000001
aF3.04
aF4.4199999999999999
aF4.9400000000000004
aF5.9000000000000004
aF4.3000000000000007
aF5.54
aF6.04
aF6.6200000000000001
aF6.0600000000000014
aF3.7199999999999993
aF3.7799999999999998
aF4.620000000000001
aF4.8800000000000008
aF4.6399999999999988
aF5.9000000000000004
aF4.5199999999999996
aF4.0200000000000005
aF4.2399999999999984
aF4.2800000000000002
aF6.5599999999999996
aF4.54
aF4.7400000000000011
aF4.6999999999999993
aF4.7999999999999998
aF6.5199999999999996
aF6.3799999999999999
aF5.4200000000000026
aF5.3399999999999999
aF4.2599999999999998
aF4.9000000000000004
aF4.3800000000000008
aF5.1799999999999997
aF5.5800000000000001
aF4.6400000000000015
aF3.5
aF4.6799999999999988
aF3.7200000000000002
aF5.4599999999999973
aF6.1799999999999997
aF5.0599999999999996
aF6.7599999999999998
aF5.9000000000000004
aF4.6399999999999997
aF6.5
aF5.2400000000000002
aF4.1199999999999983
aF5.7999999999999998
aF6.0599999999999996
aF4.8200000000000003
aF5.1799999999999997
aF4.2400000000000002
aF4.8999999999999986
aF6.2199999999999998
aF5.0
aF4.3599999999999985
aF6.2599999999999998
aF5.8399999999999999
aF5.3800000000000008
aF4.6600000000000001
aF5.2999999999999998
aF3.7000000000000002
aF5.8399999999999999
aF5.0200000000000005
aF6.2400000000000002
aF3.2799999999999998
aF5.6800000000000015
aF5.4800000000000004
aF4.1399999999999997
aF4.1200000000000001
aF5.0000000000000018
aF5.1200000000000001
aF5.0000000000000009
aF4.1000000000000014
aF4.04
aF5.04
aF5.04
aF5.0800000000000018
aF5.96
aF5.3999999999999977
aF4.7599999999999989
aF3.7000000000000002
aF5.6800000000000024
aF4.7200000000000015
aF5.6399999999999997
aF6.0199999999999996
aF4.3599999999999994
aF5.2400000000000002
aF4.54
aF5.9000000000000004
aF5.3200000000000003
aF5.54
aF5.8600000000000021
aF5.660000000000001
aF5.7200000000000015
aF5.5599999999999996
aF4.5800000000000018
aF4.9599999999999991
aF4.2000000000000002
aF3.7599999999999998
aF5.5599999999999987
aF5.2800000000000002
aF5.4800000000000004
aF4.5200000000000014
aF5.2999999999999998
aF5.339999999999999
aF5.0199999999999996
aF5.7999999999999998
aF6.7400000000000002
aF5.46
aF6.0199999999999996
aF6.9000000000000004
aF3.5600000000000001
aF5.9400000000000004
aF5.9799999999999986
aF4.9400000000000004
aF5.0399999999999991
aF5.5
aF5.1399999999999997
aF7.1399999999999997
aF6.6399999999999997
aF5.3599999999999985
aF5.1200000000000019
aF5.7999999999999998
aF6.5200000000000022
aF4.9600000000000009
aF4.0999999999999996
aF4.5199999999999996
aF6.1799999999999997
aF5.4600000000000026
aF5.46
aF5.4800000000000004
aF6.3200000000000003
aF4.5600000000000014
aF6.0199999999999987
aF7.2800000000000002
aF6.3799999999999999
aF4.8000000000000007
aF6.5
aF4.8799999999999981
aF7.6600000000000001
aF5.7199999999999998
aF5.3600000000000012
aF6.6000000000000023
aF6.6600000000000001
aF6.2400000000000002
aF5.9000000000000004
aF5.2999999999999989
aF4.9800000000000004
aF4.4200000000000008
aF4.7200000000000015
aF6.2400000000000002
aF5.4400000000000004
aF5.660000000000001
aF5.8799999999999981
aF6.5199999999999996
aF5.0799999999999992
aF6.54
aF6.6399999999999997
aF5.2399999999999984
aF6.8200000000000003
aF5.5199999999999987
aF6.4400000000000013
aF4.7599999999999998
aF6.3399999999999999
aF5.7999999999999998
aF3.3000000000000012
aF5.9800000000000013
aF6.8200000000000003
aF4.1399999999999997
aF5.120000000000001
aF5.2999999999999998
aF4.7000000000000002
aF6.3799999999999999
aF5.160000000000001
aF6.4400000000000004
aF7.0199999999999996
aF5.5199999999999978
aF6.1399999999999997
aF8.4399999999999995
aF7.4200000000000008
aF4.8600000000000003
aF5.9000000000000004
aF5.8200000000000003
aF6.6799999999999997
aF5.9800000000000004
aF5.080000000000001
aF5.0800000000000001
aF6.8399999999999999
aF5.8200000000000003
aF5.6200000000000001
aF7.1399999999999997
aF4.7800000000000002
aF6.1799999999999997
aF6.879999999999999
aF5.8200000000000003
aF5.1200000000000001
aF4.0999999999999996
aF7.8200000000000003
aF5.1000000000000014
aF5.4000000000000004
aF6.9800000000000004
aF4.54
aF6.7599999999999998
aF5.9400000000000004
aF6.0599999999999996
aF5.7999999999999998
aF5.7800000000000002
aF5.7600000000000025
aF6.3200000000000003
aF6.3399999999999999
aF6.9400000000000004
aF5.9800000000000004
aF6.5199999999999996
aF7.6399999999999997
aF4.5999999999999996
aF6.7000000000000002
aF5.7999999999999998
aF6.1600000000000001
aF6.0800000000000001
aF7.5599999999999996
aF4.9799999999999986
aF5.6399999999999997
aF5.1799999999999997
aF7.5799999999999992
aF5.8399999999999999
aF6.2000000000000002
aF6.2800000000000002
aF4.9400000000000004
aF5.9199999999999999
aF5.3799999999999999
aF6.5599999999999996
aF4.7999999999999998
aF6.8399999999999999
aF4.8600000000000021
aF5.1799999999999997
aF4.9800000000000004
aF5.6599999999999993
aF6.4199999999999999
aF5.6399999999999997
aF5.0799999999999992
aF5.96
aF6.2999999999999998
aF5.5799999999999992
aF5.8399999999999999
aF3.7000000000000011
aF6.2800000000000002
aF5.6200000000000001
aF4.5000000000000018
aF6.379999999999999
aF4.8600000000000012
aF6.6600000000000001
aF5.8600000000000003
aF4.5
aF5.5
aF5.3400000000000007
aF5.6999999999999993
aF4.96
aF6.6799999999999997
aF6.6799999999999997
aF5.8600000000000003
aF4.9599999999999991
aF6.5999999999999996
aF4.419999999999999
aF6.1799999999999997
aF4.7999999999999998
aF4.7400000000000011
aF4.6799999999999997
aF6.46
aF5.5999999999999996
aF6.6799999999999997
aF5.3799999999999999
aF6.54
aF5.2999999999999998
aF6.2800000000000002
aF5.4200000000000026
aF6.1200000000000001
aF5.5
aF5.9000000000000004
aF7.4000000000000004
aF6.6399999999999997
aF6.6800000000000015
aF6.6200000000000001
aF6.2000000000000002
aF5.8799999999999999
aF5.6799999999999997
aF4.1999999999999993
aF4.6799999999999997
aF7.2999999999999998
aF6.7599999999999998
aF5.2000000000000002
aF4.8399999999999999
aF7.8399999999999981
aF5.7999999999999998
aF5.7200000000000015
aF5.5999999999999996
aF5.6799999999999997
aF6.2200000000000015
aF5.9800000000000004
aF7.6200000000000001
aF5.9400000000000004
aF5.1200000000000001
aF5.8600000000000003
aF5.8200000000000003
aF5.5600000000000014
aF6.7199999999999989
aF3.6800000000000002
aF5.4799999999999986
aF6.3399999999999999
aF6.5
aF5.4800000000000004
aF6.6600000000000001
aF6.04
aF5.7000000000000002
aF7.4800000000000004
aF6.0999999999999996
aF6.2400000000000011
aF4.1799999999999997
aF4.9400000000000004
aF5.6399999999999997
aF5.2999999999999998
aF6.839999999999999
aF6.3399999999999999
aF5.4800000000000013
aF6.4199999999999999
aF6.0999999999999996
aF6.7199999999999998
aF6.3200000000000003
aF7.0999999999999996
aF6.0
aF6.1799999999999997
aF7.1200000000000001
aF6.2800000000000002
aF6.1200000000000001
aF7.0599999999999996
aF5.2999999999999998
aF7.3200000000000003
aF6.6399999999999997
aF5.9799999999999978
aF4.780000000000002
aF5.4200000000000008
aF6.4000000000000004
aF5.4799999999999986
aF5.7999999999999998
aF6.1200000000000001
aF5.6400000000000023
aF6.5
aF5.8200000000000003
aF6.5199999999999996
aF7.3200000000000003
aF6.6200000000000001
aF6.2999999999999998
aF6.3200000000000003
aF6.9000000000000004
aF6.2800000000000002
aF6.2000000000000002
aF6.2800000000000002
aF4.1200000000000001
aF6.9400000000000004
aF4.980000000000004
aF5.4800000000000004
aF6.9800000000000004
aF5.7199999999999998
aF7.1799999999999997
aF5.6799999999999997
aF6.1600000000000001
aF6.7800000000000002
aF6.46
aF7.3600000000000003
aF6.6399999999999997
aF6.8799999999999999
aF6.2999999999999998
aF6.2999999999999998
aF6.0800000000000001
aF6.46
aF6.1000000000000014
aF7.2199999999999998
aF4.5199999999999996
aF5.96
aF5.2200000000000015
aF5.5199999999999996
aF7.3200000000000003
aF5.5599999999999996
aF6.2400000000000002
aF5.5999999999999996
aF5.8200000000000003
aF5.1000000000000014
aF6.839999999999999
aF5.1799999999999997
aF6.580000000000001
aF5.7800000000000002
aF5.4999999999999991
aF6.6200000000000001
aF6.9199999999999999
aF6.7000000000000002
aF6.5999999999999988
aF5.9400000000000004
aF7.4199999999999999
aF7.3799999999999999
aF6.6600000000000001
aF7.2800000000000002
aF5.6799999999999997
aF7.3799999999999999
aF6.5199999999999996
aF6.1600000000000001
aF5.4399999999999986
aF5.6600000000000001
aF6.8600000000000003
aF6.4199999999999999
aF5.54
aF4.7999999999999998
aF6.2400000000000002
aF6.2400000000000002
aF6.96
aF5.3999999999999977
aF6.4999999999999991
aF7.3200000000000003
aF6.7599999999999998
aF5.6800000000000015
aF6.2000000000000002
aF7.3999999999999986
aF7.0
aF6.0199999999999996
aF7.6200000000000001
aF6.0399999999999991
aF5.7400000000000002
aF7.04
aF6.5999999999999996
aF6.6600000000000001
aF6.6799999999999997
aF5.0
aF6.3399999999999999
aF7.6399999999999997
aF7.0800000000000001
aF7.4200000000000026
aF3.46
aF6.2800000000000002
aF5.7199999999999998
aF6.3600000000000003
aF5.7800000000000002
aF6.8199999999999985
aF5.7999999999999998
aF4.8600000000000003
aF6.6999999999999975
aF7.2000000000000002
aF5.7999999999999998
aF5.9800000000000004
aF6.5999999999999996
aF6.9000000000000004
aF6.3600000000000003
aF7.46
aF7.0400000000000009
aF5.9399999999999986
aF7.4000000000000004
aF7.1600000000000001
aF6.8200000000000003
aF6.0
aF7.2000000000000002
aF6.9000000000000004
aF6.5
aF6.5199999999999996
aF6.6399999999999997
aF5.0199999999999987
aF7.7800000000000002
aF6.2999999999999998
aF5.5999999999999996
aF6.96
aF6.2400000000000002
aF5.5199999999999996
aF8.0399999999999991
aF7.7000000000000002
aF5.9199999999999999
aF6.0800000000000001
aF6.9000000000000004
aF4.7599999999999998
aF7.7999999999999998
aF7.0800000000000001
aF6.2000000000000002
aF6.1600000000000001
aF6.0599999999999996
aF6.7000000000000002
aF7.2199999999999998
aF6.2999999999999998
aF6.8600000000000003
aF7.9199999999999999
aF6.0199999999999996
aF5.5999999999999988
aF7.7199999999999998
aF7.04
aF6.8200000000000003
aF6.8600000000000003
aF7.4400000000000004
aF6.6799999999999997
aF6.8399999999999999
aF7.3799999999999999
aF6.0
aF7.04
aF6.5
aF6.4400000000000004
aF5.8400000000000007
aF6.7000000000000002
aF6.6200000000000001
aF5.6799999999999997
aF5.8799999999999999
aF6.3399999999999999
aF6.54
aF5.3200000000000003
aF6.839999999999999
aF5.4999999999999973
aF6.9000000000000004
aF7.0800000000000001
aF6.2000000000000002
aF7.0999999999999996
aF6.8399999999999999
aF6.7199999999999998
aF6.6799999999999997
aF5.9400000000000004
aF6.5800000000000001
aF6.8200000000000003
aF4.7800000000000002
aF7.6799999999999997
aF6.96
aF5.7599999999999998
aF5.6600000000000001
aF5.7400000000000002
aF6.2800000000000002
aF6.0
aF6.7199999999999989
aF5.379999999999999
aF7.0199999999999996
aF7.2800000000000002
aF6.9199999999999999
aF5.8399999999999999
aF6.3799999999999999
aF6.4000000000000004
aF6.2800000000000002
aF6.0599999999999978
aF6.9800000000000004
aF6.7199999999999998
aF5.2999999999999989
aF5.2000000000000002
aF7.5
aF6.8200000000000003
aF7.2400000000000002
aF6.5800000000000001
aF7.2800000000000002
asS'steps'
p165
(lp166
I3384
aI1687
aI1089
aI937
aI957
aI964
aI588
aI840
aI447
aI314
aI395
aI355
aI335
aI313
aI208
aI331
aI253
aI334
aI275
aI232
aI178
aI221
aI196
aI194
aI258
aI214
aI150
aI200
aI239
aI373
aI258
aI236
aI162
aI170
aI154
aI246
aI158
aI224
aI200
aI218
aI214
aI229
aI139
aI245
aI217
aI242
aI348
aI240
aI139
aI199
aI252
aI197
aI202
aI176
aI185
aI279
aI217
aI197
aI230
aI216
aI200
aI162
aI157
aI149
aI218
aI177
aI206
aI147
aI131
aI134
aI127
aI183
aI151
aI215
aI211
aI205
aI206
aI218
aI197
aI206
aI214
aI199
aI171
aI113
aI182
aI151
aI165
aI173
aI163
aI184
aI156
aI261
aI174
aI144
aI126
aI167
aI217
aI178
aI165
aI124
aI165
aI137
aI95
aI178
aI123
aI148
aI116
aI114
aI151
aI146
aI165
aI140
aI161
aI195
aI97
aI163
aI173
aI142
aI118
aI115
aI140
aI100
aI145
aI180
aI144
aI146
aI104
aI126
aI97
aI137
aI114
aI135
aI187
aI117
aI123
aI113
aI113
aI317
aI131
aI128
aI125
aI100
aI154
aI122
aI119
aI122
aI109
aI111
aI136
aI116
aI225
aI152
aI124
aI72
aI110
aI105
aI118
aI126
aI74
aI93
aI116
aI102
aI94
aI86
aI89
aI95
aI97
aI99
aI86
aI127
aI89
aI88
aI93
aI90
aI80
aI85
aI97
aI96
aI77
aI89
aI98
aI100
aI97
aI93
aI70
aI97
aI81
aI67
aI84
aI104
aI69
aI85
aI85
aI71
aI78
aI74
aI80
aI83
aI89
aI108
aI109
aI105
aI107
aI106
aI69
aI83
aI75
aI117
aI82
aI89
aI87
aI93
aI89
aI94
aI98
aI84
aI66
aI92
aI89
aI116
aI90
aI89
aI90
aI89
aI88
aI98
aI87
aI84
aI90
aI76
aI81
aI71
aI86
aI84
aI98
aI89
aI81
aI80
aI79
aI78
aI80
aI86
aI77
aI69
aI77
aI70
aI75
aI87
aI90
aI68
aI71
aI81
aI83
aI85
aI87
aI77
aI81
aI83
aI72
aI77
aI88
aI74
aI66
aI83
aI88
aI82
aI99
aI73
aI81
aI74
aI74
aI89
aI69
aI87
aI75
aI81
aI67
aI78
aI91
aI59
aI81
aI88
aI72
aI78
aI93
aI84
aI85
aI97
aI83
aI80
aI88
aI74
aI100
aI109
aI81
aI85
aI91
aI91
aI70
aI70
aI101
aI74
aI78
aI81
aI81
aI83
aI94
aI88
aI87
aI110
aI79
aI61
aI82
aI94
aI71
aI79
aI71
aI81
aI79
aI75
aI76
aI68
aI81
aI76
aI81
aI60
aI78
aI79
aI95
aI96
aI76
aI93
aI92
aI76
aI83
aI84
aI89
aI83
aI63
aI89
aI102
aI86
aI64
aI98
aI77
aI71
aI64
aI80
aI75
aI68
aI66
aI69
aI94
aI72
aI68
aI74
aI82
aI72
aI85
aI70
aI81
aI66
aI75
aI78
aI79
aI64
aI59
aI78
aI95
aI84
aI72
aI73
aI82
aI76
aI72
aI75
aI86
aI80
aI80
aI76
aI70
aI71
aI66
aI75
aI71
aI75
aI78
aI67
aI87
aI66
aI85
aI85
aI75
aI76
aI74
aI84
aI57
aI82
aI80
aI61
aI70
aI69
aI83
aI88
aI70
aI75
aI64
aI83
aI75
aI76
aI78
aI73
aI80
aI69
aI80
aI73
aI79
aI84
aI60
aI69
aI69
aI66
aI68
aI77
aI71
aI73
aI66
aI77
aI66
aI71
aI72
aI72
aI62
aI73
aI88
aI76
aI70
aI75
aI69
aI66
aI65
aI95
aI63
aI75
aI60
aI58
aI85
aI75
aI65
aI74
aI79
aI64
aI75
aI83
aI74
aI65
aI80
aI78
aI76
aI66
aI83
aI75
aI79
aI76
aI77
aI80
aI71
aI80
aI67
aI69
aI79
aI69
aI61
aI68
aI84
aI70
aI90
aI60
aI71
aI67
aI73
aI77
aI68
aI66
aI92
aI82
aI71
aI71
aI72
aI71
aI75
aI58
aI81
aI86
aI77
aI82
aI75
aI77
aI77
aI71
aI66
aI72
aI74
aI63
aI76
aI62
aI72
aI72
aI59
aI74
aI66
aI79
aI71
aI70
aI77
aI56
aI81
aI82
aI76
aI70
aI84
aI64
aI58
aI67
aI77
aI66
aI75
aI66
aI65
aI66
aI65
aI73
aI61
aI58
aI77
aI62
aI71
aI69
aI65
aI80
aI89
aI60
aI67
aI61
aI70
aI68
aI71
aI73
aI74
aI67
aI77
aI83
aI63
aI63
aI63
aI60
aI68
aI83
aI79
aI80
aI68
aI66
aI58
aI57
aI74
aI56
aI64
aI68
aI66
aI53
aI66
aI74
aI74
aI71
aI68
aI77
aI76
aI70
aI68
aI73
aI69
aI67
aI80
aI65
aI75
aI66
aI67
aI77
aI65
aI66
aI66
aI61
aI76
aI61
aI65
aI66
aI64
aI73
aI57
aI66
aI65
aI69
aI66
aI74
aI66
aI74
aI54
aI64
aI69
aI64
aI66
aI60
aI69
aI62
aI62
aI62
aI65
aI62
aI61
aI78
aI67
aI64
aI61
aI69
aI62
aI71
aI62
aI61
aI66
aI70
aI57
aI61
aI62
aI71
aI68
aI65
aI64
aI56
aI68
aI69
aI63
aI50
aI64
aI60
aI69
aI73
aI63
aI72
aI82
aI64
aI67
aI66
aI69
aI60
aI73
aI72
aI64
aI89
aI75
aI75
aI72
aI55
aI73
aI69
aI58
aI60
aI65
aI71
aI60
aI65
aI59
aI81
aI61
aI67
aI68
aI62
aI57
aI70
aI62
aI62
aI71
aI59
aI63
aI70
aI62
aI63
aI58
aI60
aI69
aI63
aI65
aI60
aI60
aI63
aI65
aI53
aI71
aI67
aI69
aI62
aI65
aI63
aI60
aI79
aI56
aI72
aI67
aI69
aI60
aI61
aI62
aI64
aI70
aI81
aI57
aI63
aI74
aI61
aI70
aI58
aI62
aI55
aI60
aI60
aI71
aI59
aI57
aI75
aI61
aI60
aI65
aI58
aI60
aI77
aI52
aI72
aI55
aI60
aI60
aI64
aI55
aI66
aI68
aI64
aI67
aI53
aI63
aI55
aI67
aI50
aI55
aI58
aI59
aI53
aI73
aI89
aI57
aI64
aI55
aI60
aI50
aI55
aI61
aI67
aI56
aI58
aI74
aI59
aI64
aI60
aI82
aI54
aI57
aI55
aI63
aI58
aI75
aI57
aI61
aI55
aI78
aI58
aI55
aI65
aI51
aI59
aI66
aI63
aI63
aI59
aI59
aI65
aI54
aI64
aI61
aI73
aI58
aI55
aI59
aI56
aI76
aI71
aI47
aI56
aI65
aI59
aI58
aI50
aI73
aI54
aI64
aI54
aI64
aI62
aI60
aI63
aI56
aI62
aI62
aI62
aI60
aI56
aI57
aI69
aI63
aI52
aI69
aI61
aI68
aI58
aI57
aI47
aI56
aI67
aI62
aI59
aI57
aI52
aI56
aI56
aI55
aI66
aI45
aI61
aI69
aI57
aI61
aI46
aI53
aI58
aI65
aI57
aI59
aI63
aI55
aI59
aI67
aI58
aI51
aI59
aI54
aI59
aI54
aI55
aI56
aI58
aI56
aI67
aI61
aI58
aI61
aI49
aI51
aI53
aI61
aI53
aI57
aI52
aI58
aI48
aI64
aI63
aI65
aI50
aI56
aI58
aI56
aI65
aI59
aI67
aI41
aI69
aI61
aI43
aI52
aI62
aI51
aI48
aI54
aI68
aI54
aI68
aI61
aI63
aI59
aI59
aI50
aI53
aI47
aI62
aI55
aI65
aI58
aI67
aI47
aI64
aI53
aI55
aI56
aI60
aI51
aI64
aI50
aI57
aI49
aI66
aI62
aI55
aI57
aI65
aI53
aI57
aI50
aI66
aI59
aI54
aI55
aI44
aI60
aI54
aI49
aI56
aI52
aI56
aI52
aI57
aI54
aI58
aI60
aI54
aI48
aI54
aI57
aI50
aI55
aI62
aI55
aI51
aI62
aI56
aI55
aI48
aI44
aI50
aI52
aI56
aI48
aI47
aI58
aI60
aI60
aI63
aI53
aI47
aI52
aI57
aI48
aI58
aI61
aI48
aI52
aI54
aI69
aI55
aI56
aI52
aI54
aI63
aI60
aI48
aI52
aI54
aI53
aI51
aI60
aI58
aI49
aI60
aI50
aI48
asS'settings'
p167
(dp168
S'environment'
p169
(dp170
S'terminal_states'
p171
(dp172
(I0
I11
tp173
I10
sssS'experiment'
p174
(dp175
S'instances'
p176
I50
sS'episodes'
p177
I1000
sS'results_dir'
p178
S'results'
p179
ssS'agent'
p180
(dp181
S'alpha'
p182
F0.01
sss.