(dp0
S'policy'
p1
(lp2
(lp3
(S'E'
p4
tp5
a(S'W'
p6
tp7
a(S'N'
p8
tp9
a(g4
tp10
a(g4
tp11
a(g4
tp12
a(S'S'
p13
tp14
a(g13
tp15
a(g4
tp16
a(g13
tp17
a(g13
tp18
a(g13
tp19
aa(lp20
(g8
tp21
a(g13
tp22
a(g8
tp23
a(g8
tp24
a(g4
tp25
a(g8
tp26
a(g4
tp27
a(g8
tp28
a(g13
tp29
a(g4
tp30
a(g13
tp31
a(g13
tp32
aa(lp33
(g6
tp34
a(g8
tp35
a(g8
tp36
a(g8
tp37
a(g8
tp38
a(g8
tp39
a(g8
tp40
a(g4
tp41
a(g13
tp42
a(g13
tp43
a(g6
tp44
a(g6
tp45
aa(lp46
(g8
tp47
a(g8
tp48
a(g8
tp49
a(g8
tp50
a(g8
tp51
a(g8
tp52
a(g8
tp53
a(g4
tp54
a(g13
tp55
a(g8
tp56
a(g6
tp57
a(g8
tp58
aa(lp59
(g13
tp60
a(g8
tp61
a(g8
tp62
a(g6
tp63
a(g8
tp64
a(g8
tp65
a(g8
tp66
a(g4
tp67
a(g4
tp68
a(g8
tp69
a(g8
tp70
a(g8
tp71
aa(lp72
(g13
tp73
a(g13
tp74
a(g6
tp75
a(g6
tp76
a(g13
tp77
a(g4
tp78
a(g4
tp79
a(g4
tp80
a(g4
tp81
a(g8
tp82
a(g8
tp83
a(g8
tp84
aa(lp85
(g13
tp86
a(g13
tp87
a(g6
tp88
a(g13
tp89
a(g13
tp90
a(g4
tp91
a(g4
tp92
a(g4
tp93
a(g4
tp94
a(g8
tp95
a(g8
tp96
a(g8
tp97
aa(lp98
(g13
tp99
a(g13
tp100
a(g13
tp101
a(g13
tp102
a(g13
tp103
a(g13
tp104
a(g4
tp105
a(g8
tp106
a(g8
tp107
a(g8
tp108
a(g8
tp109
a(g8
tp110
aa(lp111
(g13
tp112
a(g13
tp113
a(g13
tp114
a(g13
tp115
a(g13
tp116
a(g13
tp117
a(g13
tp118
a(g4
tp119
a(g8
tp120
a(g8
tp121
a(g8
tp122
a(g8
tp123
aa(lp124
(g13
tp125
a(g4
tp126
a(g4
tp127
a(g13
tp128
a(g4
tp129
a(g4
tp130
a(g4
tp131
a(g4
tp132
a(g8
tp133
a(g8
tp134
a(g8
tp135
a(g8
tp136
aa(lp137
(g4
tp138
a(g4
tp139
a(g4
tp140
a(g4
tp141
a(g4
tp142
a(g4
tp143
a(g8
tp144
a(g8
tp145
a(g8
tp146
a(g8
tp147
a(g8
tp148
a(g8
tp149
aa(lp150
(g4
tp151
a(g4
tp152
a(g8
tp153
a(g8
tp154
a(g8
tp155
a(g8
tp156
a(g8
tp157
a(g8
tp158
a(g4
tp159
a(g8
tp160
a(g8
tp161
a(g8
tp162
aasS'world'
p163
(lp164
(lp165
I0
aI0
aI0
aI0
aI0
aI0
aI0
aI0
aI0
aI0
aI0
aI0
aa(lp166
I0
aI0
aI0
aI0
aI0
aI0
aI0
aI0
aI0
aI0
aI0
aI0
aa(lp167
I0
aI0
aI0
aI-1
aI-1
aI-1
aI-1
aI-1
aI-1
aI10
aI0
aI0
aa(lp168
I0
aI0
aI0
aI-1
aI-2
aI-2
aI-2
aI-2
aI-1
aI0
aI0
aI0
aa(lp169
I0
aI0
aI0
aI-1
aI-2
aI-3
aI-3
aI-2
aI-1
aI0
aI0
aI0
aa(lp170
I0
aI0
aI0
aI-1
aI-2
aI-3
aI-2
aI-2
aI-1
aI0
aI0
aI0
aa(lp171
I0
aI0
aI0
aI-1
aI-2
aI-3
aI-2
aI-1
aI0
aI0
aI0
aI0
aa(lp172
I0
aI0
aI0
aI-1
aI-2
aI-2
aI-2
aI-1
aI0
aI0
aI0
aI0
aa(lp173
I0
aI0
aI0
aI-1
aI-1
aI-1
aI-1
aI-1
aI0
aI0
aI0
aI0
aa(lp174
I0
aI0
aI0
aI0
aI0
aI0
aI0
aI0
aI0
aI0
aI0
aI0
aa(lp175
I0
aI0
aI0
aI0
aI0
aI0
aI0
aI0
aI0
aI0
aI0
aI0
aa(lp176
I0
aI0
aI0
aI0
aI0
aI0
aI0
aI0
aI0
aI0
aI0
aI0
aasS'returns'
p177
(lp178
F0.0
aF4.0
aF0.0
aF-21.0
aF-9.0
aF6.0
aF-29.0
aF10.0
aF-6.0
aF-9.0
aF10.0
aF10.0
aF0.0
aF-2.0
aF6.0
aF-3.0
aF10.0
aF10.0
aF8.0
aF-11.0
aF10.0
aF-1.0
aF-10.0
aF10.0
aF6.0
aF10.0
aF5.0
aF10.0
aF9.0
aF10.0
aF-4.0
aF-5.0
aF10.0
aF9.0
aF-1.0
aF10.0
aF-2.0
aF4.0
aF-1.0
aF-11.0
aF-13.0
aF10.0
aF10.0
aF9.0
aF-1.0
aF9.0
aF-16.0
aF9.0
aF-4.0
aF9.0
aF1.0
aF10.0
aF10.0
aF4.0
aF10.0
aF10.0
aF8.0
aF10.0
aF10.0
aF-5.0
aF3.0
aF10.0
aF10.0
aF-9.0
aF10.0
aF9.0
aF3.0
aF-3.0
aF-7.0
aF10.0
aF10.0
aF1.0
aF3.0
aF0.0
aF9.0
aF5.0
aF10.0
aF-9.0
aF5.0
aF1.0
aF1.0
aF9.0
aF10.0
aF3.0
aF9.0
aF9.0
aF10.0
aF9.0
aF3.0
aF9.0
aF10.0
aF10.0
aF8.0
aF-2.0
aF-7.0
aF10.0
aF-13.0
aF-7.0
aF9.0
aF9.0
aF10.0
aF2.0
aF10.0
aF10.0
aF10.0
aF1.0
aF-5.0
aF8.0
aF10.0
aF9.0
aF10.0
aF7.0
aF8.0
aF10.0
aF9.0
aF10.0
aF9.0
aF10.0
aF10.0
aF10.0
aF9.0
aF10.0
aF10.0
aF10.0
aF10.0
aF10.0
aF4.0
aF7.0
aF10.0
aF10.0
aF10.0
aF10.0
aF7.0
aF10.0
aF10.0
aF-2.0
aF10.0
aF10.0
aF10.0
aF9.0
aF10.0
aF9.0
aF9.0
aF10.0
aF10.0
aF10.0
aF10.0
aF5.0
aF10.0
aF10.0
aF-1.0
aF-6.0
aF9.0
aF9.0
aF-6.0
aF8.0
aF10.0
aF9.0
aF10.0
aF8.0
aF9.0
aF10.0
aF10.0
aF8.0
aF-5.0
aF10.0
aF10.0
aF8.0
aF6.0
aF10.0
aF10.0
aF10.0
aF10.0
aF10.0
aF8.0
aF10.0
aF10.0
aF1.0
aF10.0
aF4.0
aF10.0
aF10.0
aF9.0
aF9.0
aF10.0
aF10.0
aF1.0
aF10.0
aF10.0
aF10.0
aF10.0
aF10.0
aF10.0
aF10.0
aF0.0
aF10.0
aF10.0
aF10.0
aF9.0
aF-3.0
aF9.0
aF-6.0
aF9.0
aF7.0
aF9.0
aF10.0
aF10.0
aF10.0
aF9.0
aF10.0
aF5.0
aF10.0
aF-3.0
aF5.0
aF10.0
aF10.0
aF10.0
aF-7.0
aF10.0
aF10.0
aF-2.0
aF0.0
aF10.0
aF10.0
aF8.0
aF10.0
aF7.0
aF10.0
aF8.0
aF10.0
aF-15.0
aF10.0
aF10.0
aF1.0
aF10.0
aF9.0
aF10.0
aF10.0
aF3.0
aF10.0
aF10.0
aF7.0
aF-14.0
aF4.0
aF6.0
aF9.0
aF3.0
aF10.0
aF10.0
aF10.0
aF10.0
aF7.0
aF7.0
aF10.0
aF8.0
aF10.0
aF9.0
aF10.0
aF6.0
aF8.0
aF2.0
aF10.0
aF8.0
aF9.0
aF10.0
aF10.0
aF10.0
aF10.0
aF2.0
aF-4.0
aF2.0
aF10.0
aF10.0
aF10.0
aF8.0
aF10.0
aF10.0
aF10.0
aF10.0
aF2.0
aF8.0
aF-2.0
aF10.0
aF10.0
aF-1.0
aF8.0
aF10.0
aF-37.0
aF-1.0
aF10.0
aF2.0
aF9.0
aF2.0
aF10.0
aF3.0
aF10.0
aF10.0
aF10.0
aF10.0
aF-16.0
aF10.0
aF2.0
aF8.0
aF10.0
aF10.0
aF10.0
aF10.0
aF9.0
aF10.0
aF6.0
aF8.0
aF10.0
aF-9.0
aF10.0
aF10.0
aF10.0
aF6.0
aF10.0
aF10.0
aF10.0
aF10.0
aF5.0
aF8.0
aF7.0
aF10.0
aF10.0
aF9.0
aF10.0
aF10.0
aF9.0
aF-7.0
aF9.0
aF10.0
aF8.0
aF10.0
aF10.0
aF10.0
aF-15.0
aF10.0
aF10.0
aF10.0
aF10.0
aF10.0
aF3.0
aF3.0
aF9.0
aF10.0
aF9.0
aF10.0
aF10.0
aF10.0
aF9.0
aF8.0
aF10.0
aF10.0
aF10.0
aF-3.0
aF9.0
aF7.0
aF10.0
aF10.0
aF10.0
aF7.0
aF10.0
aF10.0
aF10.0
aF10.0
aF9.0
aF1.0
aF10.0
aF10.0
aF10.0
aF9.0
aF10.0
aF10.0
aF7.0
aF6.0
aF10.0
aF10.0
aF10.0
aF10.0
aF10.0
aF8.0
aF10.0
aF10.0
aF10.0
aF-5.0
aF10.0
aF10.0
aF10.0
aF10.0
aF10.0
aF10.0
aF-9.0
aF10.0
aF10.0
aF10.0
aF10.0
aF9.0
aF10.0
aF10.0
aF-1.0
aF10.0
aF10.0
aF10.0
aF10.0
aF10.0
aF4.0
aF6.0
aF6.0
aF6.0
aF10.0
aF10.0
aF10.0
aF10.0
aF10.0
aF10.0
aF10.0
aF10.0
aF10.0
aF10.0
aF9.0
aF10.0
aF10.0
aF5.0
aF10.0
aF10.0
aF-2.0
aF10.0
aF8.0
aF10.0
aF10.0
aF9.0
aF5.0
aF10.0
aF10.0
aF10.0
aF8.0
aF-1.0
aF10.0
aF10.0
aF10.0
aF5.0
aF10.0
aF10.0
aF10.0
aF7.0
aF10.0
aF10.0
aF10.0
aF10.0
aF10.0
aF10.0
aF10.0
aF9.0
aF10.0
aF9.0
aF10.0
aF10.0
aF10.0
aF10.0
aF10.0
aF10.0
aF10.0
aF10.0
aF10.0
aF10.0
aF10.0
aF10.0
aF8.0
aF10.0
aF10.0
aF10.0
aF10.0
aF10.0
aF10.0
aF10.0
aF10.0
aF10.0
aF10.0
aF10.0
aF10.0
aF8.0
aF10.0
aF10.0
aF9.0
aF3.0
aF9.0
aF10.0
aF10.0
aF10.0
aF8.0
aF9.0
aF10.0
aF10.0
aF9.0
aF10.0
aF9.0
aF10.0
aF10.0
aF10.0
aF-4.0
aF10.0
aF10.0
aF3.0
aF10.0
aF10.0
aF10.0
aF10.0
aF7.0
aF10.0
aF8.0
aF10.0
aF10.0
aF10.0
aF8.0
aF10.0
aF10.0
aF10.0
aF10.0
aF10.0
aF10.0
aF10.0
aF10.0
aF10.0
aF10.0
aF10.0
aF10.0
aF10.0
aF7.0
aF10.0
aF10.0
aF6.0
aF10.0
aF10.0
aF10.0
aF10.0
aF10.0
aF10.0
aF10.0
aF10.0
aF10.0
aF8.0
aF5.0
aF10.0
aF10.0
aF10.0
aF10.0
aF8.0
aF10.0
aF10.0
aF10.0
aF10.0
aF10.0
aF7.0
aF10.0
aF10.0
aF10.0
aF10.0
aF10.0
aF10.0
aF10.0
aF10.0
aF10.0
aF10.0
aF10.0
aF10.0
aF9.0
aF10.0
aF10.0
aF7.0
aF6.0
aF10.0
aF10.0
aF10.0
aF10.0
aF10.0
aF9.0
aF10.0
aF10.0
aF10.0
aF10.0
aF10.0
aF9.0
aF10.0
aF10.0
aF10.0
aF10.0
aF10.0
aF10.0
aF10.0
aF10.0
aF10.0
aF10.0
aF10.0
aF10.0
aF10.0
aF10.0
aF10.0
aF10.0
aF10.0
aF8.0
aF10.0
aF9.0
aF-4.0
aF10.0
aF9.0
aF10.0
aF10.0
aF10.0
aF10.0
aF10.0
aF10.0
aF10.0
aF10.0
aF10.0
aF10.0
aF-4.0
aF2.0
aF10.0
aF10.0
aF10.0
aF10.0
aF10.0
aF10.0
aF10.0
aF10.0
aF10.0
aF10.0
aF10.0
aF10.0
aF10.0
aF7.0
aF10.0
aF10.0
aF10.0
aF10.0
aF10.0
aF10.0
aF10.0
aF10.0
aF10.0
aF1.0
aF10.0
aF10.0
aF10.0
aF1.0
aF10.0
aF10.0
aF9.0
aF10.0
aF10.0
aF9.0
aF10.0
aF10.0
aF10.0
aF10.0
aF10.0
aF10.0
aF9.0
aF10.0
aF3.0
aF10.0
aF10.0
aF10.0
aF10.0
aF10.0
aF10.0
aF10.0
aF10.0
aF10.0
aF10.0
aF10.0
aF4.0
aF10.0
aF10.0
aF1.0
aF9.0
aF10.0
aF10.0
aF10.0
aF10.0
aF10.0
aF9.0
aF10.0
aF10.0
aF10.0
aF10.0
aF10.0
aF9.0
aF10.0
aF10.0
aF10.0
aF5.0
aF10.0
aF10.0
aF10.0
aF-6.0
aF10.0
aF10.0
aF10.0
aF10.0
aF10.0
aF10.0
aF10.0
aF10.0
aF10.0
aF10.0
aF10.0
aF10.0
aF10.0
aF10.0
aF6.0
aF8.0
aF10.0
aF10.0
aF4.0
aF10.0
aF10.0
aF10.0
aF10.0
aF10.0
aF10.0
aF10.0
aF10.0
aF10.0
aF10.0
aF10.0
aF10.0
aF10.0
aF10.0
aF10.0
aF9.0
aF8.0
aF10.0
aF8.0
aF10.0
aF10.0
aF10.0
aF10.0
aF10.0
aF10.0
aF9.0
aF10.0
aF10.0
aF10.0
aF4.0
aF8.0
aF10.0
aF10.0
aF10.0
aF8.0
aF10.0
aF10.0
aF-21.0
aF10.0
aF10.0
aF5.0
aF8.0
aF10.0
aF10.0
aF8.0
aF10.0
aF10.0
aF10.0
aF10.0
aF10.0
aF9.0
aF10.0
aF10.0
aF10.0
aF10.0
aF10.0
aF10.0
aF10.0
aF9.0
aF10.0
aF10.0
aF10.0
aF10.0
aF10.0
aF10.0
aF10.0
aF10.0
aF10.0
aF10.0
aF10.0
aF10.0
aF10.0
aF10.0
aF10.0
aF10.0
aF7.0
aF10.0
aF10.0
aF10.0
aF10.0
aF10.0
aF9.0
aF9.0
aF10.0
aF10.0
aF10.0
aF10.0
aF9.0
aF10.0
aF10.0
aF10.0
aF8.0
aF10.0
aF10.0
aF10.0
aF10.0
aF10.0
aF10.0
aF10.0
aF9.0
aF10.0
aF4.0
aF10.0
aF9.0
aF10.0
aF10.0
aF10.0
aF10.0
aF10.0
aF10.0
aF10.0
aF10.0
aF10.0
aF10.0
aF9.0
aF10.0
aF7.0
aF9.0
aF10.0
aF4.0
aF10.0
aF10.0
aF10.0
aF10.0
aF10.0
aF-3.0
aF10.0
aF10.0
aF10.0
aF10.0
aF10.0
aF9.0
aF10.0
aF10.0
aF10.0
aF10.0
aF10.0
aF10.0
aF10.0
aF10.0
aF9.0
aF10.0
aF10.0
aF10.0
aF10.0
aF10.0
aF10.0
aF10.0
aF9.0
aF10.0
aF10.0
aF8.0
aF10.0
aF7.0
aF10.0
aF7.0
aF10.0
aF10.0
aF10.0
aF10.0
aF10.0
aF10.0
aF10.0
aF10.0
aF10.0
aF10.0
aF10.0
aF8.0
aF-3.0
aF10.0
aF8.0
aF10.0
aF10.0
aF10.0
aF10.0
aF10.0
aF10.0
aF10.0
aF10.0
aF10.0
aF10.0
aF10.0
aF10.0
aF9.0
aF10.0
aF10.0
aF10.0
aF8.0
aF10.0
aF-7.0
aF10.0
aF10.0
aF10.0
aF8.0
aF10.0
aF10.0
aF9.0
aF10.0
aF10.0
aF10.0
aF10.0
aF10.0
aF10.0
aF10.0
aF10.0
aF10.0
aF10.0
aF10.0
aF10.0
aF9.0
aF10.0
aF10.0
aF10.0
aF10.0
aF10.0
aF10.0
aF-1.0
aF10.0
aF10.0
aF10.0
aF10.0
aF10.0
aF10.0
aF10.0
aF10.0
aF10.0
aF10.0
aF10.0
aF10.0
aF10.0
aF10.0
aF10.0
aF10.0
aF10.0
aF8.0
aF9.0
aF10.0
aF10.0
aF8.0
aF10.0
aF10.0
aF10.0
aF10.0
aF10.0
aF10.0
aF10.0
aF10.0
aF10.0
aF10.0
aF4.0
aF10.0
aF9.0
aF10.0
aF9.0
aF10.0
aF10.0
aF10.0
aF10.0
aF1.0
aF10.0
aF10.0
aF10.0
aF10.0
aF10.0
aF10.0
aF7.0
aF10.0
aF10.0
aF10.0
aF10.0
aF10.0
aF10.0
aF10.0
aF10.0
aF8.0
aF10.0
aF10.0
aF10.0
aF10.0
aF10.0
aF10.0
aF6.0
aF10.0
aF10.0
aF10.0
aF10.0
aF10.0
aF10.0
aF10.0
aF10.0
aF10.0
aF10.0
aF10.0
aF10.0
aF10.0
aF10.0
aF10.0
aF10.0
aF7.0
aF10.0
aF10.0
aF10.0
aF10.0
aF10.0
aF7.0
aF10.0
aF10.0
aF10.0
aF10.0
aF10.0
aF10.0
aF-4.0
aF10.0
aF10.0
aF10.0
aF10.0
aF10.0
aF10.0
aF10.0
aF10.0
aF10.0
aF8.0
aF8.0
aF10.0
aF10.0
aF10.0
aF-18.0
aF10.0
aF10.0
aF10.0
aF10.0
aF10.0
aF10.0
aF10.0
aF8.0
aF10.0
aF10.0
aF10.0
aF10.0
aF10.0
aF8.0
aF10.0
aF10.0
aF10.0
aF10.0
aF10.0
aF10.0
aF9.0
aF10.0
aF10.0
aF10.0
aF10.0
aF10.0
aF10.0
aF7.0
aF10.0
aF10.0
aF-5.0
aF10.0
aF10.0
aF10.0
aF10.0
aF8.0
aF8.0
aF10.0
aF7.0
aF10.0
aF10.0
aF10.0
aF10.0
aF10.0
aF10.0
aF10.0
aF10.0
aF10.0
aF10.0
aF10.0
aF10.0
aF10.0
aF10.0
aF10.0
aF10.0
aF10.0
aF10.0
aF10.0
aF10.0
aF-1.0
aF9.0
aF10.0
aF10.0
aF10.0
aF10.0
aF10.0
aF10.0
aF10.0
aF10.0
aF10.0
aF10.0
aF10.0
aF10.0
aF7.0
aF10.0
aF10.0
aF10.0
aF10.0
aF10.0
aF10.0
aF10.0
aF10.0
aF10.0
aF10.0
aF10.0
aF10.0
aF10.0
aF10.0
aF10.0
aF10.0
aF10.0
aF10.0
aF10.0
aF10.0
aF10.0
aF10.0
aF10.0
aF10.0
aF10.0
aF9.0
aF10.0
aF10.0
aF10.0
aF10.0
aF10.0
aF9.0
aF10.0
aF10.0
aF10.0
aF10.0
aF10.0
aF10.0
aF10.0
aF10.0
aF10.0
aF10.0
aF10.0
aF10.0
aF10.0
aF10.0
aF10.0
aF10.0
aF10.0
aF10.0
aF10.0
aF10.0
aF10.0
aF10.0
aF10.0
aF10.0
aF10.0
aF10.0
aF10.0
aF10.0
aF10.0
aF10.0
aF10.0
aF10.0
aF10.0
aF10.0
aF10.0
aF10.0
aF10.0
aF10.0
aF10.0
aF10.0
aF9.0
aF10.0
aF10.0
aF10.0
aF10.0
aF10.0
aF10.0
aF10.0
aF10.0
aF10.0
aF10.0
aF10.0
aF9.0
aF10.0
aF10.0
aF10.0
aF10.0
aF10.0
aF9.0
aF9.0
aF10.0
aF10.0
aF10.0
aF10.0
aF10.0
aF10.0
aF10.0
aF10.0
aF10.0
aF10.0
aF10.0
aF10.0
aF10.0
aF10.0
aF10.0
aF10.0
aF10.0
aF10.0
aF0.0
aF9.0
aF10.0
aF8.0
aF10.0
aF10.0
aF10.0
aF10.0
aF10.0
aF8.0
aF10.0
aF10.0
aF10.0
aF10.0
aF10.0
aF10.0
aF10.0
aF10.0
aF9.0
aF10.0
aF10.0
aF10.0
aF0.0
aF10.0
aF9.0
aF10.0
aF10.0
aF10.0
aF10.0
aF10.0
aF10.0
aF9.0
aF8.0
aF10.0
aF10.0
aF10.0
aF9.0
aF10.0
aF9.0
aF10.0
aF8.0
aF10.0
aF10.0
aF10.0
aF10.0
aF10.0
aF6.0
aF9.0
aF10.0
aF10.0
aF10.0
aF10.0
aF10.0
aF10.0
aF10.0
aF10.0
aF10.0
aF10.0
aF9.0
aF6.0
aF10.0
aF10.0
aF10.0
aF10.0
aF10.0
aF10.0
aF10.0
aF10.0
aF10.0
aF10.0
aF10.0
aF10.0
aF10.0
aF10.0
aF10.0
aF10.0
aF6.0
aF10.0
aF10.0
aF10.0
aF10.0
aF10.0
aF10.0
aF10.0
aF8.0
aF10.0
aF10.0
aF10.0
aF10.0
aF10.0
aF10.0
aF10.0
aF10.0
aF10.0
aF10.0
aF7.0
aF10.0
aF10.0
aF10.0
aF10.0
aF9.0
aF10.0
aF10.0
aF10.0
aF10.0
aF9.0
aF10.0
aF10.0
aF8.0
aF10.0
aF10.0
aF10.0
aF10.0
aF10.0
aF10.0
aF9.0
aF10.0
aF7.0
aF10.0
aF9.0
aF10.0
aF9.0
aF10.0
aF10.0
aF10.0
aF10.0
aF10.0
aF0.0
aF9.0
aF10.0
aF10.0
aF10.0
aF10.0
aF10.0
aF10.0
aF10.0
aF10.0
aF10.0
aF10.0
aF10.0
aF10.0
aF10.0
aF10.0
aF10.0
aF10.0
aF10.0
aF10.0
aF10.0
aF10.0
aF9.0
aF10.0
aF10.0
aF10.0
aF10.0
aF10.0
aF10.0
aF10.0
aF10.0
aF10.0
aF10.0
aF10.0
aF10.0
aF9.0
aF10.0
aF10.0
aF10.0
aF10.0
aF10.0
aF10.0
aF7.0
aF10.0
aF10.0
aF10.0
aF10.0
aF10.0
aF10.0
aF10.0
aF10.0
aF10.0
aF10.0
aF10.0
aF9.0
aF10.0
aF10.0
aF9.0
aF10.0
aF10.0
aF10.0
aF10.0
aF10.0
aF10.0
aF10.0
aF10.0
aF10.0
aF10.0
aF10.0
aF10.0
aF10.0
aF10.0
aF10.0
aF10.0
aF10.0
aF10.0
aF10.0
aF10.0
aF10.0
aF10.0
aF10.0
aF6.0
aF10.0
aF10.0
aF8.0
aF10.0
aF8.0
aF10.0
aF10.0
aF10.0
aF10.0
aF10.0
aF10.0
aF10.0
aF10.0
aF6.0
aF10.0
aF10.0
aF10.0
aF10.0
aF10.0
aF10.0
aF10.0
aF10.0
aF10.0
aF10.0
aF9.0
aF10.0
aF10.0
aF10.0
aF10.0
aF10.0
aF10.0
aF10.0
aF10.0
aF10.0
aF10.0
aF10.0
aF10.0
aF10.0
aF10.0
aF1.0
aF10.0
aF6.0
aF10.0
aF10.0
aF10.0
aF10.0
aF6.0
aF10.0
aF10.0
aF10.0
aF10.0
aF10.0
aF10.0
aF10.0
aF3.0
aF7.0
aF10.0
aF10.0
aF9.0
aF8.0
aF10.0
aF6.0
aF10.0
aF10.0
aF10.0
aF10.0
aF9.0
aF10.0
aF10.0
aF10.0
aF10.0
aF10.0
aF10.0
aF10.0
aF10.0
aF10.0
aF10.0
aF10.0
aF10.0
aF10.0
aF10.0
aF10.0
aF10.0
aF10.0
aF10.0
aF10.0
aF10.0
aF10.0
aF10.0
aF9.0
aF10.0
aF10.0
aF10.0
aF10.0
aF10.0
aF10.0
aF10.0
aF8.0
aF8.0
aF10.0
aF10.0
aF10.0
aF10.0
aF10.0
aF10.0
aF10.0
aF2.0
aF10.0
aF10.0
aF10.0
aF9.0
aF10.0
aF10.0
aF10.0
aF10.0
aF10.0
aF10.0
aF10.0
aF10.0
aF10.0
aF10.0
aF8.0
aF10.0
aF10.0
aF9.0
aF10.0
aF9.0
aF10.0
aF10.0
aF10.0
aF10.0
aF10.0
aF10.0
aF10.0
aF10.0
aF10.0
aF10.0
aF-1.0
aF10.0
aF10.0
aF10.0
aF10.0
aF10.0
aF10.0
aF10.0
aF9.0
aF10.0
aF10.0
aF10.0
aF8.0
aF10.0
aF10.0
aF10.0
aF10.0
aF10.0
aF10.0
aF9.0
aF10.0
aF10.0
aF8.0
aF-10.0
aF10.0
aF10.0
aF10.0
aF10.0
aF10.0
aF10.0
aF10.0
aF10.0
aF10.0
aF10.0
aF10.0
aF10.0
aF10.0
aF10.0
aF10.0
aF10.0
aF10.0
aF10.0
aF10.0
aF10.0
aF9.0
aF10.0
aF9.0
aF4.0
aF9.0
aF10.0
aF8.0
aF10.0
aF-4.0
aF10.0
aF10.0
aF6.0
aF6.0
aF10.0
aF10.0
aF8.0
aF10.0
aF10.0
aF9.0
aF10.0
aF10.0
aF8.0
aF10.0
aF10.0
aF10.0
aF10.0
aF10.0
aF10.0
aF10.0
aF10.0
aF9.0
aF10.0
aF10.0
aF10.0
aF7.0
aF10.0
aF10.0
aF9.0
aF10.0
aF10.0
aF10.0
aF10.0
aF10.0
aF8.0
aF10.0
aF10.0
aF6.0
aF10.0
aF9.0
aF10.0
aF10.0
aF10.0
aF10.0
aF8.0
aF7.0
aF8.0
aF10.0
aF10.0
aF10.0
aF10.0
aF10.0
aF5.0
aF9.0
aF10.0
aF10.0
aF10.0
aF8.0
aF10.0
aF10.0
aF10.0
aF10.0
aF10.0
aF10.0
aF10.0
aF5.0
aF10.0
aF10.0
aF10.0
aF10.0
aF10.0
aF10.0
aF10.0
aF10.0
aF10.0
aF2.0
aF10.0
aF10.0
aF-4.0
aF10.0
aF10.0
aF10.0
aF1.0
aF10.0
aF10.0
aF10.0
aF10.0
aF10.0
aF10.0
aF10.0
aF10.0
aF10.0
aF10.0
aF10.0
aF10.0
aF9.0
aF10.0
aF10.0
aF10.0
aF10.0
aF9.0
aF10.0
aF10.0
aF10.0
aF10.0
aF10.0
aF10.0
aF10.0
aF10.0
aF10.0
aF10.0
aF10.0
aF10.0
aF10.0
aF10.0
aF10.0
aF10.0
aF9.0
aF10.0
aF10.0
aF10.0
aF10.0
aF8.0
aF10.0
aF9.0
aF9.0
aF10.0
aF10.0
aF10.0
aF10.0
aF10.0
aF10.0
aF10.0
aF10.0
aF10.0
aF10.0
aF10.0
aF10.0
aF8.0
aF10.0
aF10.0
aF10.0
aF10.0
aF10.0
aF10.0
aF10.0
aF10.0
aF10.0
aF9.0
aF10.0
aF10.0
aF10.0
aF10.0
aF10.0
aF9.0
aF10.0
aF10.0
aF10.0
aF10.0
aF10.0
aF10.0
aF7.0
aF9.0
aF10.0
aF10.0
aF9.0
aF10.0
aF10.0
aF10.0
aF10.0
aF10.0
aF10.0
aF10.0
aF10.0
aF10.0
aF10.0
aF10.0
aF8.0
aF6.0
aF10.0
aF10.0
aF10.0
aF9.0
aF10.0
aF10.0
aF9.0
aF10.0
aF9.0
aF8.0
aF10.0
aF10.0
aF10.0
aF9.0
aF10.0
aF9.0
aF7.0
aF10.0
aF4.0
aF10.0
aF10.0
aF10.0
aF9.0
aF8.0
aF9.0
aF8.0
aF10.0
aF10.0
aF10.0
aF10.0
aF10.0
aF10.0
aF10.0
aF5.0
aF9.0
aF10.0
aF10.0
aF10.0
aF10.0
aF8.0
aF10.0
aF10.0
aF10.0
aF10.0
aF9.0
aF10.0
aF10.0
aF9.0
aF10.0
aF10.0
aF10.0
aF10.0
aF10.0
aF10.0
aF10.0
aF10.0
aF8.0
aF7.0
aF10.0
aF9.0
aF10.0
aF10.0
aF10.0
aF9.0
aF9.0
aF10.0
aF10.0
aF10.0
aF10.0
aF10.0
aF10.0
aF10.0
aF5.0
aF10.0
aF9.0
aF10.0
aF7.0
aF10.0
aF10.0
aF10.0
aF10.0
aF10.0
aF10.0
aF10.0
aF10.0
aF10.0
aF10.0
aF10.0
aF10.0
aF10.0
aF10.0
aF10.0
aF10.0
aF10.0
aF10.0
aF10.0
aF10.0
aF10.0
aF10.0
aF10.0
aF10.0
aF9.0
aF9.0
aF10.0
aF10.0
aF2.0
aF10.0
aF10.0
aF10.0
aF10.0
aF10.0
aF10.0
aF10.0
aF10.0
aF10.0
aF9.0
aF10.0
aF10.0
aF10.0
aF8.0
aF10.0
aF9.0
aF10.0
aF10.0
aF9.0
aF10.0
aF10.0
aF9.0
aF10.0
aF10.0
aF9.0
aF7.0
aF10.0
aF10.0
aF9.0
aF9.0
aF10.0
aF10.0
aF10.0
aF10.0
aF10.0
aF10.0
aF10.0
aF8.0
aF8.0
aF9.0
aF-1.0
aF10.0
aF10.0
aF10.0
aF8.0
aF5.0
aF6.0
aF8.0
aF10.0
aF10.0
aF10.0
aF9.0
aF10.0
aF10.0
aF10.0
aF9.0
aF10.0
aF10.0
aF10.0
aF8.0
aF10.0
aF10.0
aF10.0
aF10.0
aF8.0
aF10.0
aF10.0
aF10.0
aF10.0
aF10.0
aF10.0
aF10.0
aF10.0
aF10.0
aF10.0
aF10.0
aF10.0
aF10.0
aF10.0
aF10.0
aF10.0
aF10.0
aF10.0
aF10.0
aF10.0
aF10.0
aF9.0
aF10.0
aF10.0
aF10.0
aF10.0
aF7.0
aF10.0
aF8.0
aF10.0
aF10.0
aF10.0
aF10.0
aF10.0
aF9.0
aF10.0
aF10.0
aF10.0
aF10.0
aF10.0
aF10.0
aF6.0
aF10.0
aF10.0
aF10.0
aF10.0
aF9.0
aF10.0
aF10.0
aF10.0
aF10.0
aF10.0
aF10.0
aF10.0
aF8.0
aF10.0
aF3.0
aF10.0
aF10.0
aF10.0
aF-10.0
aF10.0
aF10.0
aF6.0
aF10.0
aF10.0
aF10.0
aF10.0
aF10.0
aF3.0
aF9.0
aF10.0
aF8.0
aF10.0
aF8.0
aF10.0
aF10.0
aF6.0
aF10.0
aF10.0
aF10.0
aF10.0
aF10.0
aF10.0
aF9.0
aF10.0
aF10.0
aF10.0
aF10.0
aF9.0
aF10.0
aF10.0
aF9.0
aF10.0
aF10.0
aF10.0
aF9.0
aF9.0
aF10.0
aF10.0
aF10.0
aF10.0
aF10.0
aF10.0
aF10.0
aF10.0
aF10.0
aF10.0
aF10.0
aF9.0
aF10.0
aF10.0
aF10.0
aF10.0
aF10.0
aF10.0
aF6.0
aF10.0
aF7.0
aF10.0
aF10.0
aF10.0
aF10.0
aF9.0
aF10.0
aF10.0
aF10.0
aF10.0
aF9.0
aF10.0
aF9.0
aF10.0
aF4.0
aF10.0
aF10.0
aF10.0
aF10.0
aF9.0
aF10.0
aF10.0
aF10.0
aF8.0
aF10.0
aF10.0
aF10.0
aF10.0
aF10.0
aF8.0
aF10.0
aF10.0
aF10.0
aF10.0
aF9.0
aF10.0
aF10.0
aF10.0
aF10.0
aF10.0
aF10.0
aF10.0
aF10.0
aF10.0
aF0.0
aF10.0
aF10.0
aF10.0
aF10.0
aF10.0
aF10.0
aF10.0
aF10.0
aF10.0
aF10.0
aF10.0
aF10.0
aF10.0
aF10.0
aF10.0
aF10.0
aF9.0
aF7.0
aF10.0
aF10.0
aF9.0
aF10.0
aF10.0
aF10.0
aF7.0
aF10.0
aF10.0
aF10.0
aF10.0
aF10.0
aF10.0
aF-3.0
aF10.0
aF10.0
aF10.0
aF9.0
aF10.0
aF10.0
aF10.0
aF10.0
aF10.0
aF10.0
aF9.0
aF10.0
aF9.0
aF10.0
aF10.0
aF10.0
aF10.0
aF9.0
aF10.0
aF10.0
aF10.0
aF10.0
aF10.0
aF9.0
aF8.0
aF5.0
aF10.0
aF10.0
aF10.0
aF9.0
aF10.0
aF9.0
aF10.0
aF9.0
aF10.0
aF9.0
aF10.0
aF9.0
aF7.0
aF10.0
aF10.0
aF10.0
aF10.0
aF10.0
aF9.0
aF9.0
aF10.0
aF10.0
aF7.0
aF10.0
aF10.0
aF10.0
aF10.0
aF10.0
aF10.0
aF10.0
aF10.0
aF8.0
aF8.0
aF10.0
aF10.0
aF10.0
aF10.0
aF10.0
aF10.0
aF8.0
aF10.0
aF10.0
aF10.0
aF6.0
aF10.0
aF9.0
aF10.0
aF10.0
aF10.0
aF10.0
aF10.0
aF10.0
aF10.0
aF10.0
aF10.0
aF10.0
aF10.0
aF10.0
aF10.0
aF10.0
aF10.0
aF9.0
aF10.0
aF7.0
aF10.0
aF10.0
aF10.0
aF10.0
aF9.0
aF9.0
aF10.0
aF10.0
aF10.0
aF10.0
aF9.0
aF10.0
aF10.0
aF10.0
aF10.0
aF8.0
aF10.0
aF10.0
aF10.0
aF10.0
aF10.0
aF9.0
aF10.0
aF10.0
aF10.0
aF10.0
aF10.0
aF10.0
aF10.0
aF10.0
aF10.0
aF10.0
aF10.0
aF10.0
aF10.0
aF9.0
aF10.0
aF10.0
aF8.0
aF8.0
aF10.0
aF10.0
aF10.0
aF10.0
aF10.0
aF10.0
aF10.0
aF10.0
aF10.0
aF10.0
aF10.0
aF10.0
aF9.0
aF10.0
aF10.0
aF10.0
aF10.0
aF9.0
aF10.0
aF10.0
aF10.0
aF10.0
aF10.0
aF10.0
aF10.0
aF10.0
aF10.0
aF10.0
aF6.0
aF10.0
aF10.0
aF8.0
aF10.0
aF10.0
aF3.0
aF10.0
aF10.0
aF7.0
aF6.0
aF10.0
aF10.0
aF10.0
aF10.0
aF10.0
aF10.0
aF7.0
aF10.0
aF10.0
aF9.0
aF10.0
aF10.0
aF10.0
aF10.0
aF10.0
aF10.0
aF10.0
aF10.0
aF10.0
aF10.0
aF10.0
aF10.0
aF10.0
aF10.0
aF10.0
aF10.0
aF8.0
aF10.0
aF10.0
aF8.0
aF9.0
aF10.0
aF10.0
aF10.0
aF9.0
aF10.0
aF9.0
aF10.0
aF9.0
aF10.0
aF10.0
aF10.0
aF10.0
aF9.0
aF10.0
aF10.0
aF10.0
aF9.0
aF10.0
aF10.0
aF10.0
aF8.0
aF6.0
aF9.0
aF10.0
aF7.0
aF6.0
aF10.0
aF10.0
aF10.0
aF10.0
aF10.0
aF10.0
aF10.0
aF9.0
aF9.0
aF9.0
aF10.0
aF10.0
aF10.0
aF10.0
aF10.0
aF10.0
aF9.0
aF10.0
aF10.0
aF8.0
aF10.0
aF10.0
aF10.0
aF10.0
aF10.0
aF10.0
aF10.0
aF10.0
aF9.0
aF10.0
aF10.0
aF10.0
aF10.0
aF10.0
aF10.0
aF10.0
aF10.0
aF10.0
aF10.0
aF10.0
aF10.0
aF10.0
aF10.0
aF9.0
aF10.0
aF10.0
aF10.0
aF8.0
aF10.0
aF10.0
aF10.0
aF10.0
aF10.0
aF10.0
aF10.0
aF10.0
aF10.0
aF9.0
aF10.0
aF10.0
aF10.0
aF10.0
aF10.0
aF10.0
aF10.0
aF9.0
aF10.0
aF10.0
aF9.0
aF10.0
aF10.0
aF10.0
aF10.0
aF10.0
aF10.0
aF10.0
aF10.0
aF10.0
aF10.0
aF10.0
aF10.0
aF9.0
aF9.0
aF10.0
aF10.0
aF10.0
aF0.0
aF10.0
aF9.0
aF9.0
aF10.0
aF10.0
aF8.0
aF10.0
aF10.0
aF10.0
aF10.0
aF10.0
aF10.0
aF7.0
aF10.0
aF10.0
aF10.0
aF10.0
aF8.0
aF10.0
aF5.0
aF10.0
aF10.0
aF10.0
aF10.0
aF10.0
aF10.0
aF10.0
aF10.0
aF10.0
aF10.0
aF10.0
aF7.0
aF10.0
aF10.0
aF10.0
aF10.0
aF10.0
aF8.0
aF10.0
aF9.0
aF10.0
aF10.0
aF10.0
aF10.0
aF10.0
aF10.0
aF10.0
aF10.0
aF10.0
aF10.0
aF9.0
aF10.0
aF10.0
aF10.0
aF10.0
aF10.0
aF10.0
aF10.0
aF10.0
aF10.0
aF10.0
aF9.0
aF10.0
aF-2.0
aF10.0
aF10.0
aF10.0
aF10.0
aF10.0
aF10.0
aF10.0
aF10.0
aF10.0
aF10.0
aF9.0
aF10.0
aF10.0
aF10.0
aF10.0
aF10.0
aF10.0
aF10.0
aF10.0
aF10.0
aF10.0
aF10.0
aF10.0
aF10.0
aF7.0
aF10.0
aF10.0
aF10.0
aF10.0
aF10.0
aF8.0
aF8.0
aF8.0
aF10.0
aF10.0
aF10.0
aF10.0
aF10.0
aF10.0
aF10.0
aF10.0
aF10.0
aF10.0
aF10.0
aF10.0
aF10.0
aF9.0
aF0.0
aF10.0
aF10.0
aF10.0
aF10.0
aF10.0
aF10.0
aF10.0
aF10.0
aF7.0
aF10.0
aF10.0
aF10.0
aF9.0
aF10.0
aF10.0
aF10.0
aF10.0
aF10.0
aF10.0
aF9.0
aF10.0
aF9.0
aF10.0
aF10.0
aF10.0
aF10.0
aF10.0
aF10.0
aF10.0
aF10.0
aF10.0
aF10.0
aF10.0
aF10.0
aF8.0
aF9.0
aF10.0
aF10.0
aF10.0
aF10.0
aF10.0
aF10.0
aF9.0
aF8.0
aF10.0
aF10.0
aF8.0
aF10.0
aF10.0
aF10.0
aF10.0
aF10.0
aF10.0
aF10.0
aF10.0
aF10.0
aF10.0
aF-2.0
aF10.0
aF10.0
aF10.0
aF10.0
aF7.0
aF10.0
aF10.0
aF9.0
aF10.0
aF10.0
aF10.0
aF10.0
aF10.0
aF10.0
aF10.0
aF10.0
aF10.0
aF10.0
aF10.0
aF10.0
aF10.0
aF6.0
aF8.0
aF10.0
aF8.0
aF9.0
aF10.0
aF10.0
aF10.0
aF10.0
aF9.0
aF10.0
aF10.0
aF9.0
aF10.0
aF10.0
aF10.0
aF10.0
aF10.0
aF9.0
aF10.0
aF10.0
aF10.0
aF10.0
aF10.0
aF10.0
aF10.0
aF10.0
aF10.0
aF10.0
aF4.0
aF10.0
aF10.0
aF9.0
aF8.0
aF10.0
aF10.0
aF10.0
aF10.0
aF7.0
aF10.0
aF10.0
aF10.0
aF10.0
aF10.0
aF10.0
aF10.0
aF9.0
aF10.0
aF10.0
aF10.0
aF10.0
aF9.0
aF9.0
aF10.0
aF10.0
aF10.0
aF10.0
aF10.0
aF10.0
aF10.0
aF10.0
aF10.0
aF10.0
aF10.0
aF10.0
aF10.0
aF10.0
aF10.0
aF10.0
aF10.0
aF10.0
aF10.0
aF10.0
aF10.0
aF8.0
aF10.0
aF10.0
aF9.0
aF3.0
aF10.0
aF10.0
aF9.0
aF10.0
aF10.0
aF10.0
aF10.0
aF10.0
aF9.0
aF10.0
aF10.0
aF8.0
aF10.0
aF10.0
aF8.0
aF10.0
aF10.0
aF10.0
aF10.0
aF10.0
aF10.0
aF7.0
aF10.0
aF10.0
aF10.0
aF10.0
aF10.0
aF10.0
aF10.0
aF10.0
aF10.0
aF10.0
aF10.0
aF10.0
aF9.0
aF9.0
aF9.0
aF10.0
aF10.0
aF10.0
aF10.0
aF10.0
aF9.0
aF10.0
aF10.0
aF10.0
aF10.0
aF10.0
aF10.0
aF10.0
aF8.0
aF10.0
aF10.0
aF10.0
aF9.0
aF10.0
aF10.0
aF10.0
aF10.0
aF6.0
aF10.0
aF10.0
aF9.0
aF9.0
aF10.0
aF10.0
aF10.0
aF8.0
aF10.0
aF10.0
aF10.0
aF10.0
aF10.0
aF10.0
aF10.0
aF10.0
aF10.0
aF10.0
aF10.0
aF10.0
aF10.0
aF10.0
aF10.0
aF10.0
aF10.0
aF10.0
aF10.0
aF10.0
aF10.0
aF9.0
aF10.0
aF10.0
aF10.0
aF10.0
aF10.0
aF10.0
aF10.0
aF10.0
aF10.0
aF9.0
aF10.0
aF10.0
aF10.0
aF10.0
aF8.0
aF10.0
aF10.0
aF10.0
aF10.0
aF10.0
aF10.0
aF10.0
aF10.0
aF10.0
aF10.0
aF10.0
aF9.0
aF10.0
aF10.0
aF10.0
aF10.0
aF10.0
aF10.0
aF10.0
aF10.0
aF7.0
aF10.0
aF10.0
aF6.0
aF10.0
aF10.0
aF10.0
aF9.0
aF9.0
aF10.0
aF10.0
aF9.0
aF10.0
aF10.0
aF10.0
aF10.0
aF10.0
aF10.0
aF10.0
aF10.0
aF10.0
aF8.0
aF10.0
aF9.0
aF9.0
aF9.0
aF10.0
aF10.0
aF10.0
aF10.0
aF9.0
aF10.0
aF7.0
aF10.0
aF10.0
aF10.0
aF10.0
aF10.0
aF10.0
aF4.0
aF10.0
aF9.0
aF10.0
aF10.0
aF10.0
aF10.0
aF10.0
aF10.0
aF10.0
aF10.0
aF10.0
aF10.0
aF10.0
aF10.0
aF10.0
aF10.0
aF10.0
aF10.0
aF10.0
aF9.0
aF10.0
aF10.0
aF10.0
aF10.0
aF10.0
aF10.0
aF10.0
aF7.0
aF10.0
aF10.0
aF10.0
aF10.0
aF10.0
aF10.0
aF10.0
aF10.0
aF10.0
aF10.0
aF10.0
aF10.0
aF10.0
aF10.0
aF10.0
aF9.0
aF10.0
aF10.0
aF10.0
aF10.0
aF9.0
aF10.0
aF10.0
aF10.0
aF9.0
aF10.0
aF10.0
aF10.0
aF10.0
aF10.0
aF10.0
aF10.0
aF10.0
aF9.0
aF10.0
aF7.0
aF10.0
aF10.0
aF10.0
aF10.0
aF9.0
aF10.0
aF10.0
aF10.0
aF10.0
aF10.0
aF10.0
aF9.0
aF9.0
aF10.0
aF10.0
aF10.0
aF8.0
aF10.0
aF10.0
aF10.0
aF8.0
aF10.0
aF10.0
aF9.0
aF10.0
aF10.0
aF10.0
aF6.0
aF9.0
aF10.0
aF10.0
aF10.0
aF10.0
aF10.0
aF9.0
aF10.0
aF10.0
aF10.0
aF10.0
aF10.0
aF5.0
aF10.0
aF10.0
aF8.0
aF10.0
aF8.0
aF10.0
aF10.0
aF10.0
aF10.0
aF10.0
aF10.0
aF10.0
aF10.0
aF10.0
aF9.0
aF9.0
aF10.0
aF10.0
aF10.0
aF10.0
aF10.0
aF10.0
aF8.0
aF10.0
aF10.0
aF0.0
aF10.0
aF6.0
aF10.0
aF10.0
aF10.0
aF10.0
aF9.0
aF10.0
aF10.0
aF10.0
aF8.0
aF10.0
aF10.0
aF9.0
aF10.0
aF10.0
aF10.0
aF10.0
aF10.0
aF10.0
aF10.0
aF10.0
aF10.0
aF10.0
aF10.0
aF10.0
aF10.0
aF10.0
aF10.0
aF10.0
aF10.0
aF10.0
aF9.0
aF7.0
aF10.0
aF10.0
aF10.0
aF10.0
aF10.0
aF10.0
aF9.0
aF10.0
aF10.0
aF10.0
aF10.0
aF10.0
aF10.0
aF8.0
aF10.0
aF10.0
aF10.0
aF10.0
aF8.0
aF10.0
aF10.0
aF10.0
aF9.0
aF9.0
aF10.0
aF10.0
aF10.0
aF10.0
aF10.0
aF10.0
aF10.0
aF10.0
aF10.0
aF10.0
aF10.0
aF10.0
aF7.0
aF8.0
aF9.0
aF8.0
aF-7.0
aF10.0
aF10.0
aF10.0
aF10.0
aF10.0
aF10.0
aF10.0
aF10.0
aF10.0
aF10.0
aF10.0
aF10.0
aF7.0
aF10.0
aF9.0
aF10.0
aF10.0
aF9.0
aF7.0
aF10.0
aF10.0
aF10.0
aF10.0
aF10.0
aF9.0
aF10.0
aF9.0
aF10.0
aF10.0
aF10.0
aF10.0
aF10.0
aF10.0
aF10.0
aF10.0
aF10.0
aF10.0
aF10.0
aF10.0
aF10.0
aF10.0
aF10.0
aF10.0
aF10.0
aF8.0
aF10.0
aF10.0
aF10.0
aF10.0
aF10.0
aF10.0
aF10.0
aF10.0
aF9.0
aF10.0
aF10.0
aF10.0
aF10.0
aF10.0
aF10.0
aF9.0
aF10.0
aF9.0
aF10.0
aF10.0
aF10.0
aF10.0
aF10.0
aF7.0
aF10.0
aF10.0
aF10.0
aF8.0
aF10.0
aF10.0
aF10.0
aF10.0
aF10.0
aF6.0
aF10.0
aF10.0
aF10.0
aF-1.0
aF10.0
aF6.0
aF10.0
aF10.0
aF10.0
aF6.0
aF7.0
aF9.0
aF9.0
aF10.0
aF10.0
aF10.0
aF9.0
aF10.0
aF8.0
aF10.0
aF8.0
aF10.0
aF10.0
aF10.0
aF10.0
aF10.0
aF6.0
aF6.0
aF9.0
aF10.0
aF10.0
aF10.0
aF6.0
aF10.0
aF10.0
aF10.0
aF9.0
aF10.0
aF10.0
aF9.0
aF10.0
aF8.0
aF10.0
aF10.0
aF10.0
aF4.0
aF10.0
aF10.0
aF10.0
aF10.0
aF10.0
aF10.0
aF8.0
aF10.0
aF9.0
aF10.0
aF10.0
aF10.0
aF1.0
aF9.0
aF10.0
aF10.0
aF10.0
aF10.0
aF10.0
aF10.0
aF10.0
aF10.0
aF10.0
aF10.0
aF9.0
aF8.0
aF10.0
aF10.0
aF10.0
aF10.0
aF10.0
aF10.0
aF10.0
aF10.0
aF10.0
aF9.0
aF10.0
aF10.0
aF10.0
aF9.0
aF10.0
aF3.0
aF10.0
aF10.0
aF10.0
aF10.0
aF10.0
aF10.0
aF10.0
aF10.0
aF10.0
aF10.0
aF10.0
aF10.0
aF10.0
aF10.0
aF10.0
aF10.0
aF10.0
aF10.0
aF10.0
aF10.0
aF10.0
aF9.0
aF10.0
aF10.0
aF9.0
aF10.0
aF10.0
aF9.0
aF7.0
aF10.0
aF10.0
aF10.0
aF10.0
aF10.0
aF10.0
aF10.0
aF10.0
aF10.0
aF10.0
aF10.0
aF10.0
aF10.0
aF10.0
aF10.0
aF10.0
aF10.0
aF7.0
aF10.0
aF10.0
aF9.0
aF2.0
aF10.0
aF10.0
aF9.0
aF7.0
aF10.0
aF10.0
aF9.0
aF10.0
aF10.0
aF10.0
aF9.0
aF10.0
aF8.0
aF10.0
aF10.0
aF10.0
aF10.0
aF10.0
aF10.0
aF10.0
aF8.0
aF10.0
aF10.0
aF10.0
aF10.0
aF10.0
aF10.0
aF10.0
aF10.0
aF10.0
aF10.0
aF8.0
aF10.0
aF8.0
aF10.0
aF9.0
aF10.0
aF10.0
aF10.0
aF10.0
aF10.0
aF10.0
aF8.0
aF6.0
aF10.0
aF10.0
aF10.0
aF10.0
aF8.0
aF9.0
aF10.0
aF10.0
aF10.0
aF9.0
aF10.0
aF10.0
aF10.0
aF10.0
aF7.0
aF10.0
aF10.0
aF10.0
aF10.0
aF10.0
aF10.0
aF9.0
aF10.0
aF10.0
aF7.0
aF10.0
aF10.0
aF10.0
aF10.0
aF10.0
aF10.0
aF10.0
aF4.0
aF9.0
aF10.0
aF10.0
aF10.0
aF10.0
aF10.0
aF10.0
aF10.0
aF10.0
aF8.0
aF10.0
aF10.0
aF10.0
aF9.0
aF9.0
aF10.0
aF10.0
aF3.0
aF10.0
aF10.0
aF10.0
aF3.0
aF10.0
aF10.0
aF10.0
aF10.0
aF10.0
aF5.0
aF10.0
aF10.0
aF9.0
aF10.0
aF10.0
aF10.0
aF10.0
aF10.0
aF10.0
aF10.0
aF10.0
aF8.0
aF10.0
aF9.0
aF10.0
aF10.0
aF7.0
aF8.0
aF10.0
aF10.0
aF10.0
aF10.0
aF10.0
aF9.0
aF10.0
aF10.0
aF10.0
aF9.0
aF10.0
aF10.0
aF10.0
aF10.0
aF10.0
aF10.0
aF10.0
aF9.0
aF10.0
aF8.0
aF10.0
aF10.0
aF7.0
aF10.0
aF10.0
aF10.0
aF10.0
aF10.0
aF10.0
aF10.0
aF7.0
aF10.0
aF10.0
aF9.0
aF10.0
aF9.0
aF10.0
aF10.0
aF9.0
aF10.0
aF10.0
aF10.0
aF10.0
aF10.0
aF10.0
aF9.0
aF9.0
aF7.0
aF10.0
aF10.0
aF10.0
aF10.0
aF6.0
aF10.0
aF10.0
aF8.0
aF10.0
aF10.0
aF10.0
aF5.0
aF10.0
aF10.0
aF10.0
aF9.0
aF10.0
aF8.0
aF10.0
aF10.0
aF10.0
aF10.0
aF10.0
aF9.0
aF10.0
aF10.0
aF9.0
aF10.0
aF10.0
aF10.0
aF9.0
aF2.0
aF10.0
aF10.0
aF10.0
aF10.0
aF9.0
aF9.0
aF10.0
aF10.0
aF10.0
aF10.0
aF10.0
aF10.0
aF10.0
aF10.0
aF9.0
aF10.0
aF8.0
aF9.0
aF10.0
aF10.0
aF6.0
aF10.0
aF10.0
aF10.0
aF10.0
aF9.0
aF10.0
aF10.0
aF10.0
aF8.0
aF10.0
aF8.0
aF10.0
aF9.0
aF10.0
aF8.0
aF9.0
aF10.0
aF10.0
aF10.0
aF10.0
aF10.0
aF10.0
aF9.0
aF10.0
aF10.0
aF-3.0
aF8.0
aF10.0
aF10.0
aF10.0
aF10.0
aF10.0
aF6.0
aF10.0
aF10.0
aF10.0
aF5.0
aF10.0
aF10.0
aF10.0
aF10.0
aF10.0
aF10.0
aF10.0
aF10.0
aF10.0
aF10.0
aF10.0
aF10.0
aF8.0
aF10.0
aF10.0
aF10.0
aF10.0
aF10.0
aF10.0
aF10.0
aF10.0
aF10.0
aF8.0
aF10.0
aF9.0
aF10.0
aF10.0
aF10.0
aF10.0
aF10.0
aF10.0
aF10.0
aF10.0
aF8.0
aF10.0
aF10.0
aF10.0
aF9.0
aF10.0
aF10.0
aF10.0
aF10.0
aF10.0
aF10.0
aF10.0
aF10.0
aF10.0
aF10.0
aF10.0
aF10.0
aF10.0
aF10.0
aF10.0
aF10.0
aF10.0
aF8.0
aF9.0
aF10.0
aF10.0
aF10.0
aF10.0
aF10.0
aF10.0
aF9.0
aF10.0
aF9.0
aF10.0
aF10.0
aF8.0
aF10.0
aF10.0
aF10.0
aF10.0
aF10.0
aF9.0
aF10.0
aF10.0
aF10.0
aF10.0
aF9.0
aF10.0
aF10.0
aF10.0
aF10.0
aF4.0
aF10.0
aF10.0
aF10.0
aF10.0
aF10.0
aF10.0
aF10.0
aF10.0
aF10.0
aF10.0
aF10.0
aF10.0
aF10.0
aF10.0
aF10.0
aF10.0
aF10.0
aF9.0
aF10.0
aF10.0
aF9.0
aF1.0
aF10.0
aF10.0
aF10.0
aF10.0
aF10.0
aF9.0
aF10.0
aF10.0
aF7.0
aF8.0
aF10.0
aF9.0
aF10.0
aF10.0
aF10.0
aF10.0
aF10.0
aF10.0
aF9.0
aF10.0
aF7.0
aF10.0
aF8.0
aF10.0
aF9.0
aF10.0
aF9.0
aF10.0
aF7.0
aF10.0
aF10.0
aF10.0
aF10.0
aF10.0
aF9.0
aF10.0
aF9.0
aF10.0
aF10.0
aF10.0
aF10.0
aF9.0
aF10.0
aF10.0
aF9.0
aF9.0
aF10.0
aF10.0
aF10.0
aF10.0
aF10.0
aF10.0
aF1.0
aF9.0
aF10.0
aF10.0
aF10.0
aF9.0
aF10.0
aF10.0
aF10.0
aF10.0
aF10.0
aF10.0
aF8.0
aF10.0
aF5.0
aF10.0
aF10.0
aF10.0
aF10.0
aF10.0
aF10.0
aF10.0
aF10.0
aF10.0
aF10.0
aF10.0
aF9.0
aF8.0
aF10.0
aF10.0
aF10.0
aF10.0
aF10.0
aF10.0
aF10.0
aF10.0
aF10.0
aF10.0
aF10.0
aF9.0
aF10.0
aF10.0
aF10.0
aF10.0
aF10.0
aF10.0
aF10.0
aF10.0
aF10.0
aF10.0
aF7.0
aF8.0
aF10.0
aF10.0
aF10.0
aF10.0
aF6.0
aF10.0
aF10.0
aF10.0
aF8.0
aF10.0
aF10.0
aF10.0
aF10.0
aF10.0
aF10.0
aF10.0
aF10.0
aF10.0
aF9.0
aF10.0
aF10.0
aF10.0
aF10.0
aF10.0
aF10.0
aF10.0
aF10.0
aF9.0
aF10.0
aF10.0
aF10.0
aF9.0
aF10.0
aF10.0
aF10.0
aF10.0
aF10.0
aF9.0
aF10.0
aF10.0
aF10.0
aF10.0
aF10.0
aF6.0
aF10.0
aF10.0
aF10.0
aF10.0
aF8.0
aF10.0
aF10.0
aF7.0
aF8.0
aF10.0
aF10.0
aF10.0
aF10.0
aF10.0
aF3.0
aF9.0
aF10.0
aF10.0
aF10.0
aF9.0
aF10.0
aF10.0
aF10.0
aF10.0
aF9.0
aF10.0
aF10.0
aF10.0
aF10.0
aF10.0
aF10.0
aF10.0
aF8.0
aF10.0
aF10.0
aF10.0
aF10.0
aF10.0
aF10.0
aF10.0
aF10.0
aF10.0
aF10.0
aF10.0
aF10.0
aF4.0
aF10.0
aF9.0
aF10.0
aF10.0
aF10.0
aF9.0
aF10.0
aF10.0
aF9.0
aF10.0
aF10.0
aF10.0
aF10.0
aF10.0
aF10.0
aF10.0
aF10.0
aF10.0
aF10.0
aF10.0
aF10.0
aF9.0
aF10.0
aF10.0
aF10.0
aF10.0
aF10.0
aF10.0
aF8.0
aF9.0
aF10.0
aF10.0
aF10.0
aF10.0
aF10.0
aF8.0
aF7.0
aF10.0
aF10.0
aF8.0
aF10.0
aF10.0
aF10.0
aF10.0
aF10.0
aF8.0
aF10.0
aF10.0
aF10.0
aF10.0
aF9.0
aF10.0
aF6.0
aF10.0
aF10.0
aF10.0
aF10.0
aF10.0
aF10.0
aF10.0
aF10.0
aF10.0
aF4.0
aF10.0
aF9.0
aF10.0
aF9.0
aF8.0
aF10.0
aF8.0
aF10.0
aF10.0
aF9.0
aF10.0
aF10.0
aF10.0
aF10.0
aF9.0
aF10.0
aF10.0
aF10.0
aF10.0
aF9.0
aF5.0
aF9.0
aF10.0
aF10.0
aF7.0
aF10.0
aF10.0
aF10.0
aF10.0
aF9.0
aF10.0
aF10.0
aF10.0
aF7.0
aF10.0
aF10.0
aF10.0
aF10.0
aF10.0
aF10.0
aF10.0
aF10.0
aF10.0
aF10.0
aF10.0
aF10.0
aF10.0
aF10.0
aF10.0
aF9.0
aF6.0
aF9.0
aF10.0
aF9.0
aF10.0
aF10.0
aF10.0
aF10.0
aF10.0
aF10.0
aF10.0
aF10.0
aF10.0
aF9.0
aF10.0
aF10.0
aF10.0
aF10.0
aF10.0
aF8.0
aF9.0
aF10.0
aF9.0
aF10.0
aF10.0
aF10.0
aF10.0
aF9.0
aF10.0
aF10.0
aF9.0
aF10.0
aF10.0
aF8.0
aF10.0
aF10.0
aF10.0
aF9.0
aF9.0
aF9.0
aF5.0
aF10.0
aF6.0
aF9.0
aF5.0
aF10.0
aF10.0
aF9.0
aF9.0
aF10.0
aF10.0
aF10.0
aF10.0
aF10.0
aF10.0
aF9.0
aF10.0
aF10.0
aF10.0
aF9.0
aF10.0
aF10.0
aF9.0
aF10.0
aF10.0
aF10.0
aF10.0
aF10.0
aF10.0
aF10.0
aF8.0
aF6.0
aF10.0
aF10.0
aF10.0
aF10.0
aF8.0
aF10.0
aF10.0
aF10.0
aF9.0
aF9.0
aF8.0
aF9.0
aF10.0
aF10.0
aF10.0
aF10.0
aF10.0
aF10.0
aF10.0
aF9.0
aF10.0
aF10.0
aF9.0
aF10.0
aF10.0
aF10.0
aF10.0
aF10.0
aF10.0
aF9.0
aF9.0
aF9.0
aF9.0
aF10.0
aF10.0
aF10.0
aF10.0
aF10.0
aF10.0
aF10.0
aF10.0
aF10.0
aF5.0
aF10.0
aF9.0
aF10.0
aF10.0
aF10.0
aF10.0
aF10.0
aF9.0
aF10.0
aF10.0
aF8.0
aF10.0
aF10.0
aF10.0
aF10.0
aF10.0
aF10.0
aF9.0
aF10.0
aF10.0
aF10.0
aF10.0
aF10.0
aF10.0
aF9.0
aF9.0
aF7.0
aF10.0
aF10.0
aF10.0
aF10.0
aF6.0
aF2.0
aF9.0
aF6.0
aF10.0
aF10.0
aF9.0
aF10.0
aF10.0
aF10.0
aF8.0
aF-1.0
aF10.0
aF10.0
aF10.0
aF10.0
aF8.0
aF10.0
aF10.0
aF10.0
aF10.0
aF8.0
aF6.0
aF10.0
aF10.0
aF10.0
aF10.0
aF10.0
aF9.0
aF9.0
aF9.0
aF10.0
aF10.0
aF3.0
aF-6.0
aF10.0
aF10.0
aF10.0
aF10.0
aF10.0
aF10.0
aF9.0
aF8.0
aF10.0
aF8.0
aF10.0
aF10.0
aF10.0
aF10.0
aF10.0
aF10.0
aF10.0
aF10.0
aF9.0
aF10.0
aF10.0
aF10.0
aF10.0
aF10.0
aF9.0
aF10.0
aF10.0
aF10.0
aF10.0
aF9.0
aF10.0
aF10.0
aF10.0
aF10.0
aF10.0
aF10.0
aF10.0
aF10.0
aF10.0
aF10.0
aF10.0
aF9.0
aF10.0
aF10.0
aF6.0
aF9.0
aF10.0
aF10.0
aF10.0
aF10.0
aF10.0
aF10.0
aF10.0
aF10.0
aF10.0
aF10.0
aF10.0
aF10.0
aF10.0
aF10.0
aF10.0
aF9.0
aF10.0
aF9.0
aF10.0
aF10.0
aF9.0
aF10.0
aF7.0
aF10.0
aF9.0
aF10.0
aF7.0
aF10.0
aF8.0
aF10.0
aF10.0
aF10.0
aF10.0
aF9.0
aF10.0
aF10.0
aF9.0
aF10.0
aF10.0
aF9.0
aF10.0
aF9.0
aF10.0
aF10.0
aF10.0
aF10.0
aF10.0
aF10.0
aF10.0
aF10.0
aF10.0
aF10.0
aF10.0
aF10.0
aF10.0
aF10.0
aF10.0
aF10.0
aF10.0
aF9.0
aF10.0
aF8.0
aF10.0
aF10.0
aF10.0
aF10.0
aF4.0
aF10.0
aF8.0
aF6.0
aF10.0
aF10.0
aF10.0
aF10.0
aF10.0
aF10.0
aF10.0
aF10.0
aF10.0
aF10.0
aF10.0
aF10.0
aF10.0
aF10.0
aF7.0
aF-4.0
aF10.0
aF10.0
aF10.0
aF10.0
aF10.0
aF10.0
aF8.0
aF9.0
aF10.0
aF10.0
aF10.0
aF10.0
aF10.0
aF10.0
aF10.0
aF10.0
aF10.0
aF10.0
aF10.0
aF10.0
aF10.0
aF10.0
aF10.0
aF10.0
aF10.0
aF10.0
aF10.0
aF8.0
aF10.0
aF8.0
aF10.0
aF10.0
aF10.0
aF7.0
aF10.0
aF10.0
aF8.0
aF8.0
aF6.0
aF10.0
aF8.0
aF10.0
aF10.0
aF9.0
aF10.0
aF10.0
aF10.0
aF8.0
aF10.0
aF9.0
aF10.0
aF9.0
aF9.0
aF8.0
aF10.0
aF10.0
aF8.0
aF10.0
aF10.0
aF10.0
aF10.0
aF10.0
aF10.0
aF5.0
aF10.0
aF10.0
aF10.0
aF10.0
aF10.0
aF10.0
aF10.0
aF10.0
aF10.0
aF10.0
aF10.0
aF10.0
aF10.0
aF10.0
aF10.0
aF10.0
aF10.0
aF10.0
aF8.0
aF10.0
aF10.0
aF9.0
aF10.0
aF10.0
aF10.0
aF9.0
aF10.0
aF8.0
aF10.0
aF10.0
aF10.0
aF10.0
aF10.0
aF9.0
aF10.0
aF10.0
aF10.0
aF10.0
aF10.0
aF10.0
aF10.0
aF10.0
aF9.0
aF10.0
aF10.0
aF8.0
aF10.0
aF10.0
aF10.0
aF7.0
aF-2.0
aF10.0
aF9.0
aF10.0
aF9.0
aF9.0
aF10.0
aF10.0
aF10.0
aF10.0
aF10.0
aF10.0
aF10.0
aF9.0
aF10.0
aF10.0
aF10.0
aF10.0
aF10.0
aF10.0
aF10.0
aF10.0
aF10.0
aF10.0
aF10.0
aF10.0
aF10.0
aF9.0
aF10.0
aF10.0
aF10.0
aF10.0
aF10.0
aF10.0
aF10.0
aF10.0
aF10.0
aF10.0
aF10.0
aF10.0
aF10.0
aF9.0
aF10.0
aF9.0
aF10.0
aF10.0
aF10.0
aF6.0
aF10.0
aF10.0
aF10.0
aF8.0
aF10.0
aF10.0
aF10.0
aF9.0
aF10.0
aF10.0
aF10.0
aF10.0
aF8.0
aF10.0
aF10.0
aF8.0
aF10.0
aF10.0
aF10.0
aF10.0
aF8.0
aF10.0
aF9.0
aF10.0
aF10.0
aF10.0
aF10.0
aF10.0
aF10.0
aF10.0
aF10.0
aF9.0
aF7.0
aF10.0
aF10.0
aF10.0
aF10.0
aF10.0
aF10.0
aF9.0
aF10.0
aF10.0
aF10.0
aF10.0
aF10.0
aF10.0
aF10.0
aF10.0
aF8.0
aF10.0
aF10.0
aF10.0
aF10.0
aF10.0
aF10.0
aF9.0
aF9.0
aF10.0
aF10.0
aF10.0
aF10.0
aF9.0
aF10.0
aF10.0
aF10.0
aF10.0
aF10.0
aF10.0
aF10.0
aF10.0
aF10.0
aF10.0
aF10.0
aF10.0
aF9.0
aF6.0
aF10.0
aF10.0
aF9.0
aF10.0
aF10.0
aF10.0
aF10.0
aF10.0
aF10.0
aF9.0
aF9.0
aF9.0
aF10.0
aF10.0
aF10.0
aF10.0
aF10.0
aF10.0
aF2.0
aF10.0
aF10.0
aF10.0
aF10.0
aF10.0
aF10.0
aF9.0
aF9.0
aF10.0
aF10.0
aF10.0
aF5.0
aF10.0
aF10.0
aF10.0
aF10.0
aF10.0
aF9.0
aF10.0
aF10.0
aF10.0
aF7.0
aF10.0
aF9.0
aF10.0
aF10.0
aF10.0
aF10.0
aF10.0
aF10.0
aF10.0
aF10.0
aF10.0
aF10.0
aF10.0
aF10.0
aF10.0
aF10.0
aF10.0
aF9.0
aF10.0
aF10.0
aF10.0
aF10.0
aF10.0
aF9.0
aF10.0
aF10.0
aF10.0
aF8.0
aF9.0
aF8.0
aF10.0
aF10.0
aF10.0
aF10.0
aF-5.0
aF10.0
aF10.0
aF10.0
aF10.0
aF10.0
aF10.0
aF10.0
aF10.0
aF9.0
aF10.0
aF8.0
aF10.0
aF10.0
aF10.0
aF9.0
aF10.0
aF10.0
aF10.0
aF9.0
aF9.0
aF9.0
aF10.0
aF9.0
aF10.0
aF10.0
aF9.0
aF10.0
aF10.0
aF10.0
aF10.0
aF6.0
aF8.0
aF7.0
aF10.0
aF10.0
aF10.0
aF10.0
aF10.0
aF10.0
aF10.0
aF10.0
aF4.0
aF10.0
aF10.0
aF10.0
aF10.0
aF9.0
aF10.0
aF7.0
aF10.0
aF10.0
aF10.0
aF10.0
aF10.0
aF10.0
aF10.0
aF10.0
aF10.0
aF10.0
aF10.0
aF10.0
aF10.0
aF10.0
aF10.0
aF9.0
aF10.0
aF10.0
aF10.0
aF10.0
aF10.0
aF10.0
aF10.0
aF10.0
aF10.0
aF8.0
aF10.0
aF10.0
aF10.0
aF9.0
aF8.0
aF10.0
aF10.0
aF8.0
aF10.0
aF10.0
aF10.0
aF10.0
aF10.0
aF10.0
aF10.0
aF10.0
aF10.0
aF10.0
aF10.0
aF7.0
aF10.0
aF9.0
aF10.0
aF10.0
aF10.0
aF1.0
aF10.0
aF10.0
aF10.0
aF9.0
aF10.0
aF10.0
aF10.0
aF10.0
aF9.0
aF7.0
aF9.0
aF9.0
aF10.0
aF9.0
aF10.0
aF10.0
aF9.0
aF10.0
aF9.0
aF10.0
aF10.0
aF10.0
aF10.0
aF10.0
aF10.0
aF10.0
aF10.0
aF5.0
aF9.0
aF8.0
aF10.0
aF10.0
aF9.0
aF10.0
aF10.0
aF10.0
aF10.0
aF10.0
aF10.0
aF10.0
aF10.0
aF10.0
aF10.0
aF10.0
aF10.0
aF10.0
aF10.0
aF10.0
aF10.0
aF10.0
aF7.0
aF7.0
aF10.0
aF10.0
aF10.0
aF8.0
aF10.0
aF10.0
aF10.0
aF10.0
aF9.0
aF10.0
aF9.0
aF10.0
aF10.0
aF10.0
aF10.0
aF10.0
aF10.0
aF10.0
aF7.0
aF10.0
aF9.0
aF10.0
aF10.0
aF10.0
aF10.0
aF9.0
aF10.0
aF10.0
aF10.0
aF10.0
aF1.0
aF10.0
aF10.0
aF10.0
aF7.0
aF10.0
aF10.0
aF10.0
aF7.0
aF10.0
aF8.0
aF9.0
aF1.0
aF10.0
aF10.0
aF9.0
aF10.0
aF10.0
aF10.0
aF10.0
aF9.0
aF10.0
aF10.0
aF9.0
aF10.0
aF9.0
aF10.0
aF10.0
aF-4.0
aF9.0
aF10.0
aF10.0
aF10.0
aF10.0
aF10.0
aF10.0
aF10.0
aF10.0
aF10.0
aF10.0
aF10.0
aF9.0
aF10.0
aF10.0
aF10.0
aF10.0
aF10.0
aF9.0
aF10.0
aF10.0
aF10.0
aF10.0
aF8.0
aF10.0
aF10.0
aF9.0
aF10.0
aF10.0
aF10.0
aF10.0
aF10.0
aF10.0
aF9.0
aF10.0
aF10.0
aF-8.0
aF10.0
aF9.0
aF10.0
aF10.0
aF10.0
aF10.0
aF8.0
aF9.0
aF9.0
aF10.0
aF10.0
aF10.0
aF10.0
aF10.0
aF10.0
aF10.0
aF10.0
aF10.0
aF10.0
aF10.0
aF10.0
aF10.0
aF10.0
aF8.0
aF10.0
aF10.0
aF10.0
aF10.0
aF10.0
aF9.0
aF-1.0
aF-1.0
aF10.0
aF9.0
aF9.0
aF7.0
aF7.0
aF10.0
aF10.0
aF10.0
aF7.0
aF9.0
aF10.0
aF10.0
aF10.0
aF9.0
aF10.0
aF10.0
aF10.0
aF10.0
aF10.0
aF10.0
aF7.0
aF10.0
aF-3.0
aF10.0
aF10.0
aF10.0
aF10.0
aF10.0
aF10.0
aF10.0
aF10.0
aF10.0
aF10.0
aF10.0
aF10.0
aF10.0
aF10.0
aF10.0
aF10.0
aF10.0
aF10.0
aF10.0
aF-4.0
aF10.0
aF10.0
aF10.0
aF10.0
aF10.0
aF10.0
aF10.0
aF10.0
aF9.0
aF9.0
aF9.0
aF9.0
aF10.0
aF10.0
aF10.0
aF10.0
aF8.0
aF10.0
aF10.0
aF9.0
aF10.0
aF10.0
aF9.0
aF9.0
aF10.0
aF10.0
aF10.0
aF10.0
aF10.0
aF10.0
aF10.0
aF10.0
aF10.0
aF10.0
aF10.0
aF4.0
aF10.0
aF10.0
aF10.0
aF10.0
aF10.0
aF8.0
aF10.0
aF10.0
aF8.0
aF9.0
aF9.0
aF10.0
aF2.0
aF9.0
aF10.0
aF10.0
aF10.0
aF10.0
aF10.0
aF10.0
aF8.0
aF10.0
aF10.0
aF10.0
aF10.0
aF9.0
aF10.0
aF10.0
aF8.0
aF9.0
aF9.0
aF8.0
aF10.0
aF10.0
aF10.0
aF10.0
aF10.0
aF10.0
aF9.0
aF9.0
aF10.0
aF10.0
aF10.0
aF10.0
aF10.0
aF6.0
aF8.0
aF10.0
aF10.0
aF10.0
aF10.0
aF10.0
aF9.0
aF10.0
aF10.0
aF10.0
aF10.0
aF10.0
aF10.0
aF-3.0
aF9.0
aF10.0
aF10.0
aF10.0
aF10.0
aF10.0
aF10.0
aF10.0
aF9.0
aF10.0
aF9.0
aF10.0
aF10.0
aF10.0
aF10.0
aF1.0
aF10.0
aF8.0
aF10.0
aF10.0
aF8.0
aF9.0
aF9.0
aF10.0
aF10.0
aF9.0
aF10.0
aF9.0
aF6.0
aF10.0
aF10.0
aF10.0
aF10.0
aF6.0
aF9.0
aF10.0
aF9.0
aF10.0
aF10.0
aF10.0
aF10.0
aF10.0
aF10.0
aF5.0
aF10.0
aF10.0
aF9.0
aF10.0
aF10.0
aF10.0
aF10.0
aF-2.0
aF10.0
aF10.0
aF10.0
aF10.0
aF5.0
aF10.0
aF10.0
aF10.0
aF10.0
aF10.0
aF9.0
aF10.0
aF10.0
aF10.0
aF10.0
aF10.0
aF9.0
aF7.0
aF10.0
aF10.0
aF10.0
aF10.0
aF10.0
aF8.0
aF10.0
aF10.0
aF10.0
aF9.0
aF10.0
aF10.0
aF9.0
aF10.0
aF9.0
aF10.0
aF8.0
aF10.0
aF10.0
aF8.0
aF10.0
aF10.0
aF10.0
aF10.0
aF9.0
aF10.0
aF9.0
aF10.0
aF10.0
aF10.0
aF6.0
aF10.0
aF10.0
aF9.0
aF9.0
aF10.0
aF10.0
aF10.0
aF10.0
aF10.0
aF10.0
aF5.0
aF10.0
aF10.0
aF10.0
aF10.0
aF10.0
aF10.0
aF3.0
aF10.0
aF10.0
aF9.0
aF10.0
aF10.0
aF10.0
aF10.0
aF10.0
aF7.0
aF9.0
aF10.0
aF10.0
aF10.0
aF10.0
aF10.0
aF10.0
aF10.0
aF10.0
aF10.0
aF10.0
aF10.0
aF10.0
aF10.0
aF10.0
aF10.0
aF10.0
aF10.0
aF-3.0
aF9.0
aF10.0
aF9.0
aF10.0
aF10.0
aF10.0
aF10.0
aF10.0
aF10.0
aF8.0
aF10.0
aF10.0
aF6.0
aF9.0
aF10.0
aF10.0
aF9.0
aF10.0
aF10.0
aF10.0
aF10.0
aF10.0
aF10.0
aF10.0
aF10.0
aF10.0
aF9.0
aF10.0
aF10.0
aF10.0
aF9.0
aF10.0
aF9.0
aF10.0
aF10.0
aF10.0
aF10.0
aF10.0
aF10.0
aF10.0
aF10.0
aF10.0
aF10.0
aF10.0
aF9.0
aF10.0
aF10.0
aF10.0
aF10.0
aF10.0
aF8.0
aF10.0
aF10.0
aF10.0
aF10.0
aF9.0
aF10.0
aF10.0
aF10.0
aF10.0
aF7.0
aF10.0
aF5.0
aF10.0
aF10.0
aF10.0
aF10.0
aF10.0
aF9.0
aF10.0
aF10.0
aF10.0
aF9.0
aF9.0
aF10.0
aF10.0
aF10.0
aF8.0
aF9.0
aF10.0
aF10.0
aF10.0
aF10.0
aF10.0
aF10.0
aF9.0
aF9.0
aF10.0
aF10.0
aF9.0
aF9.0
aF6.0
aF10.0
aF10.0
aF5.0
aF10.0
aF10.0
aF7.0
aF9.0
aF10.0
aF10.0
aF10.0
aF10.0
aF10.0
aF10.0
aF10.0
aF10.0
aF10.0
aF10.0
aF10.0
aF10.0
aF10.0
aF9.0
aF10.0
aF10.0
aF10.0
aF10.0
aF9.0
aF10.0
aF10.0
aF10.0
aF9.0
aF5.0
aF10.0
aF10.0
aF10.0
aF10.0
aF4.0
aF10.0
aF10.0
aF10.0
aF8.0
aF10.0
aF10.0
aF10.0
aF8.0
aF8.0
aF10.0
aF10.0
aF10.0
aF10.0
aF10.0
aF10.0
aF10.0
aF8.0
aF10.0
aF4.0
aF9.0
aF10.0
aF8.0
aF10.0
aF10.0
aF10.0
aF7.0
aF10.0
aF10.0
aF10.0
aF9.0
aF8.0
aF10.0
aF7.0
aF10.0
aF8.0
aF8.0
aF10.0
aF9.0
aF7.0
aF10.0
aF-2.0
aF10.0
aF10.0
aF10.0
aF9.0
aF10.0
aF8.0
aF10.0
aF10.0
aF9.0
aF10.0
aF10.0
aF8.0
aF-6.0
aF10.0
aF10.0
aF10.0
aF6.0
aF6.0
aF9.0
aF10.0
aF7.0
aF10.0
aF10.0
aF10.0
aF10.0
aF9.0
aF10.0
aF10.0
aF8.0
aF9.0
aF10.0
aF10.0
aF9.0
aF10.0
aF10.0
aF10.0
aF10.0
aF9.0
aF10.0
aF10.0
aF10.0
aF10.0
aF10.0
aF10.0
aF10.0
aF9.0
aF10.0
aF9.0
aF10.0
aF10.0
aF10.0
aF10.0
aF10.0
aF10.0
aF10.0
aF10.0
aF9.0
aF10.0
aF6.0
aF10.0
aF10.0
aF10.0
aF10.0
aF10.0
aF10.0
aF10.0
aF10.0
aF10.0
aF10.0
aF10.0
aF7.0
aF8.0
aF10.0
aF10.0
aF7.0
aF10.0
aF10.0
aF10.0
aF8.0
aF10.0
aF10.0
aF10.0
aF10.0
aF10.0
aF7.0
aF10.0
aF10.0
aF10.0
aF10.0
aF8.0
aF10.0
aF10.0
aF10.0
aF10.0
aF10.0
aF10.0
aF10.0
aF8.0
aF10.0
aF0.0
aF10.0
aF10.0
aF10.0
aF9.0
aF10.0
aF10.0
aF10.0
aF10.0
aF8.0
aF10.0
aF10.0
aF8.0
aF10.0
aF10.0
aF10.0
aF10.0
aF10.0
aF10.0
aF10.0
aF7.0
aF9.0
aF10.0
aF10.0
aF10.0
aF10.0
aF10.0
aF9.0
aF9.0
aF10.0
aF10.0
aF10.0
aF10.0
aF10.0
aF9.0
aF8.0
aF10.0
aF10.0
aF10.0
aF8.0
aF10.0
aF8.0
aF9.0
aF7.0
aF10.0
aF10.0
aF8.0
aF10.0
aF10.0
aF10.0
aF10.0
aF10.0
aF9.0
aF10.0
aF8.0
aF10.0
aF10.0
aF10.0
aF10.0
aF3.0
aF10.0
aF10.0
aF9.0
aF7.0
aF9.0
aF10.0
aF10.0
aF6.0
aF10.0
aF10.0
aF10.0
aF10.0
aF6.0
aF10.0
aF10.0
aF10.0
aF10.0
aF10.0
aF10.0
aF10.0
aF10.0
aF10.0
aF10.0
aF10.0
aF10.0
aF10.0
aF9.0
aF9.0
aF10.0
aF10.0
aF10.0
aF10.0
aF10.0
aF10.0
aF10.0
aF10.0
aF10.0
aF10.0
aF10.0
aF10.0
aF10.0
aF10.0
aF9.0
aF10.0
aF10.0
aF10.0
aF10.0
aF10.0
aF10.0
aF7.0
aF10.0
aF10.0
aF8.0
aF6.0
aF10.0
aF10.0
aF10.0
aF10.0
aF9.0
aF7.0
aF9.0
aF10.0
aF9.0
aF9.0
aF10.0
aF10.0
aF10.0
aF10.0
aF10.0
aF10.0
aF10.0
aF10.0
aF10.0
aF9.0
aF10.0
aF10.0
aF10.0
aF10.0
aF10.0
aF10.0
aF10.0
aF10.0
aF10.0
aF10.0
aF10.0
aF10.0
aF10.0
aF10.0
aF10.0
aF3.0
aF10.0
aF10.0
aF10.0
aF10.0
aF10.0
aF10.0
aF10.0
aF10.0
aF10.0
aF10.0
aF10.0
aF10.0
aF9.0
aF10.0
aF10.0
aF10.0
aF10.0
aF10.0
aF10.0
aF10.0
aF10.0
aF10.0
aF10.0
aF10.0
aF10.0
aF10.0
aF10.0
aF10.0
aF10.0
aF4.0
aF10.0
aF10.0
aF10.0
aF10.0
aF10.0
aF6.0
aF10.0
aF6.0
aF10.0
aF10.0
aF8.0
aF10.0
aF10.0
aF10.0
aF10.0
aF10.0
aF10.0
aF10.0
aF10.0
aF10.0
aF10.0
aF10.0
aF10.0
aF10.0
aF10.0
aF9.0
aF9.0
aF8.0
aF10.0
aF10.0
aF10.0
aF10.0
aF10.0
aF9.0
aF10.0
aF10.0
aF10.0
aF10.0
aF10.0
aF9.0
aF9.0
aF9.0
aF10.0
aF10.0
aF10.0
aF10.0
aF10.0
aF10.0
aF10.0
aF10.0
aF2.0
aF10.0
aF10.0
aF10.0
aF10.0
aF10.0
aF10.0
aF7.0
aF10.0
aF10.0
aF8.0
aF10.0
aF10.0
aF10.0
aF10.0
aF10.0
aF10.0
aF5.0
aF10.0
aF8.0
aF9.0
aF10.0
aF10.0
aF10.0
aF9.0
aF10.0
aF10.0
aF10.0
aF10.0
aF10.0
aF10.0
aF10.0
aF10.0
aF4.0
aF10.0
aF8.0
aF10.0
aF10.0
aF10.0
aF10.0
aF10.0
aF10.0
aF10.0
aF10.0
aF10.0
aF8.0
aF10.0
aF10.0
aF9.0
aF10.0
aF10.0
aF10.0
aF10.0
aF10.0
aF10.0
aF10.0
aF10.0
aF10.0
aF9.0
aF10.0
aF10.0
aF10.0
aF9.0
aF-3.0
aF10.0
aF10.0
aF10.0
aF10.0
aF6.0
aF10.0
aF10.0
aF10.0
aF10.0
aF2.0
aF10.0
aF10.0
aF10.0
aF10.0
aF10.0
aF10.0
aF9.0
aF10.0
aF10.0
aF9.0
aF10.0
aF10.0
aF8.0
aF10.0
aF10.0
aF10.0
aF10.0
aF10.0
aF10.0
aF10.0
aF10.0
aF10.0
aF10.0
aF10.0
aF10.0
aF10.0
aF10.0
aF10.0
aF10.0
aF10.0
aF10.0
aF10.0
aF8.0
aF10.0
aF10.0
aF10.0
aF10.0
aF10.0
aF10.0
aF10.0
aF9.0
aF10.0
aF7.0
aF10.0
aF10.0
aF10.0
aF9.0
aF10.0
aF10.0
aF8.0
aF10.0
aF10.0
aF10.0
aF10.0
aF10.0
aF10.0
aF10.0
aF10.0
aF10.0
aF10.0
aF10.0
aF10.0
aF10.0
aF9.0
aF10.0
aF10.0
aF10.0
aF10.0
aF9.0
aF10.0
aF10.0
aF10.0
aF10.0
aF10.0
aF10.0
aF10.0
aF10.0
aF10.0
aF10.0
aF10.0
aF10.0
aF10.0
aF10.0
aF10.0
aF10.0
aF10.0
aF10.0
aF10.0
aF8.0
aF10.0
aF10.0
aF9.0
aF10.0
aF9.0
aF10.0
aF10.0
aF9.0
aF4.0
aF10.0
aF10.0
aF10.0
aF10.0
aF10.0
aF8.0
aF10.0
aF10.0
aF10.0
aF10.0
aF10.0
aF4.0
aF10.0
aF10.0
aF10.0
aF10.0
aF10.0
aF10.0
aF10.0
aF10.0
aF9.0
aF10.0
aF10.0
aF8.0
aF10.0
aF10.0
aF10.0
aF10.0
aF9.0
aF10.0
aF10.0
aF10.0
aF10.0
aF10.0
aF10.0
aF9.0
aF10.0
aF10.0
aF10.0
aF10.0
aF10.0
aF10.0
aF10.0
aF10.0
aF10.0
aF10.0
aF10.0
aF10.0
aF10.0
aF6.0
aF10.0
aF10.0
aF9.0
aF10.0
aF10.0
aF10.0
aF10.0
aF10.0
aF10.0
aF10.0
aF-1.0
aF10.0
aF6.0
aF10.0
aF3.0
aF10.0
aF10.0
aF10.0
aF10.0
aF10.0
aF10.0
aF10.0
aF10.0
aF10.0
aF9.0
aF10.0
aF10.0
aF3.0
aF9.0
aF10.0
aF10.0
aF10.0
aF10.0
aF10.0
aF10.0
aF9.0
aF10.0
aF10.0
aF10.0
aF10.0
aF10.0
aF8.0
aF10.0
aF10.0
aF10.0
aF9.0
aF10.0
aF10.0
aF10.0
aF10.0
aF10.0
aF10.0
aF2.0
aF9.0
aF9.0
aF10.0
aF10.0
aF10.0
aF5.0
aF10.0
aF9.0
aF10.0
aF8.0
aF10.0
aF10.0
aF10.0
aF10.0
aF1.0
aF10.0
aF10.0
aF8.0
aF10.0
aF10.0
aF9.0
aF9.0
aF10.0
aF10.0
aF10.0
aF10.0
aF10.0
aF10.0
aF9.0
aF10.0
aF10.0
aF10.0
aF10.0
aF10.0
aF7.0
aF10.0
aF4.0
aF10.0
aF10.0
aF10.0
aF10.0
aF10.0
aF10.0
aF10.0
aF10.0
aF10.0
aF10.0
aF8.0
aF9.0
aF10.0
aF9.0
aF10.0
aF10.0
aF10.0
aF10.0
aF10.0
aF8.0
aF10.0
aF9.0
aF10.0
aF10.0
aF10.0
aF10.0
aF10.0
aF10.0
aF8.0
aF10.0
aF10.0
aF9.0
aF10.0
aF10.0
aF10.0
aF10.0
aF10.0
aF10.0
aF10.0
aF10.0
aF10.0
aF9.0
aF10.0
aF9.0
aF9.0
aF9.0
aF10.0
aF9.0
aF10.0
aF10.0
aF10.0
aF-5.0
aF10.0
aF10.0
aF9.0
aF10.0
aF10.0
aF10.0
aF10.0
aF10.0
aF9.0
aF10.0
aF10.0
aF10.0
aF10.0
aF8.0
aF9.0
aF9.0
aF10.0
aF10.0
aF10.0
aF10.0
aF7.0
aF9.0
aF10.0
aF8.0
aF8.0
aF10.0
aF10.0
aF10.0
aF10.0
aF10.0
aF9.0
aF3.0
aF10.0
aF10.0
aF10.0
aF10.0
aF10.0
aF9.0
aF10.0
aF5.0
aF10.0
aF9.0
aF10.0
aF10.0
aF10.0
aF8.0
aF10.0
aF10.0
aF8.0
aF9.0
aF9.0
aF10.0
aF10.0
aF10.0
aF9.0
aF10.0
aF10.0
aF10.0
aF8.0
aF10.0
aF9.0
aF10.0
aF9.0
aF10.0
aF10.0
aF9.0
aF9.0
aF10.0
aF10.0
aF9.0
aF10.0
aF10.0
aF10.0
aF8.0
aF10.0
aF9.0
aF10.0
aF10.0
aF10.0
aF10.0
aF10.0
aF10.0
aF10.0
aF10.0
aF10.0
aF10.0
aF10.0
aF10.0
aF10.0
aF10.0
aF10.0
aF9.0
aF10.0
aF10.0
aF6.0
aF10.0
aF10.0
aF10.0
aF10.0
aF9.0
aF10.0
aF10.0
aF10.0
aF-1.0
aF10.0
aF10.0
aF10.0
aF10.0
aF9.0
aF9.0
aF10.0
aF10.0
aF10.0
aF10.0
aF10.0
aF10.0
aF10.0
aF10.0
aF10.0
aF10.0
aF8.0
aF9.0
aF10.0
aF3.0
aF8.0
aF10.0
aF4.0
aF9.0
aF9.0
aF10.0
aF8.0
aF10.0
aF10.0
aF5.0
aF9.0
aF10.0
aF9.0
aF10.0
aF10.0
aF8.0
aF10.0
aF10.0
aF10.0
aF9.0
aF9.0
aF9.0
aF8.0
aF9.0
aF10.0
aF10.0
aF10.0
aF10.0
aF10.0
aF10.0
aF10.0
aF10.0
aF10.0
aF10.0
aF8.0
aF10.0
aF10.0
aF8.0
aF10.0
aF10.0
aF10.0
aF10.0
aF10.0
aF9.0
aF10.0
aF9.0
aF10.0
aF10.0
aF8.0
aF9.0
aF10.0
aF10.0
aF9.0
aF7.0
aF9.0
aF10.0
aF10.0
aF10.0
aF10.0
aF7.0
aF10.0
aF9.0
aF10.0
aF10.0
aF10.0
aF10.0
aF10.0
aF10.0
aF10.0
aF5.0
aF9.0
aF9.0
aF10.0
aF10.0
aF3.0
aF5.0
aF10.0
aF8.0
aF8.0
aF10.0
aF10.0
aF10.0
aF10.0
aF10.0
aF10.0
aF10.0
aF10.0
aF10.0
aF10.0
aF10.0
aF10.0
aF10.0
aF10.0
aF10.0
aF10.0
aF10.0
aF10.0
aF10.0
aF10.0
aF10.0
aF10.0
aF10.0
aF10.0
aF0.0
aF10.0
aF10.0
aF7.0
aF10.0
aF9.0
aF4.0
aF8.0
aF10.0
aF10.0
aF10.0
aF10.0
aF10.0
aF10.0
aF10.0
aF9.0
aF10.0
aF10.0
aF10.0
aF10.0
aF10.0
aF10.0
aF10.0
aF10.0
aF6.0
aF10.0
aF5.0
aF10.0
aF3.0
aF10.0
aF9.0
aF10.0
aF10.0
aF10.0
aF10.0
aF10.0
aF10.0
aF10.0
aF10.0
aF10.0
aF10.0
aF5.0
aF6.0
aF9.0
aF8.0
aF6.0
aF10.0
aF10.0
aF10.0
aF9.0
aF10.0
aF10.0
aF10.0
aF10.0
aF10.0
aF10.0
aF10.0
aF10.0
aF9.0
aF10.0
aF9.0
aF10.0
aF7.0
aF10.0
aF10.0
aF8.0
aF10.0
aF10.0
aF10.0
aF10.0
aF10.0
aF10.0
aF10.0
aF10.0
aF10.0
aF10.0
aF10.0
aF10.0
aF10.0
aF10.0
aF9.0
aF10.0
aF10.0
aF10.0
aF10.0
aF10.0
aF10.0
aF9.0
aF10.0
aF9.0
aF9.0
aF9.0
aF10.0
aF10.0
aF7.0
aF10.0
aF9.0
aF10.0
aF10.0
aF10.0
aF9.0
aF10.0
aF10.0
aF10.0
aF9.0
aF10.0
aF10.0
aF10.0
aF9.0
aF10.0
aF10.0
aF9.0
aF10.0
aF8.0
aF10.0
aF10.0
aF10.0
aF6.0
aF10.0
aF10.0
aF10.0
aF10.0
aF10.0
aF10.0
aF10.0
aF10.0
aF10.0
aF10.0
aF5.0
aF10.0
aF10.0
aF10.0
aF10.0
aF10.0
aF10.0
aF10.0
aF9.0
aF10.0
aF10.0
aF10.0
aF9.0
aF10.0
aF10.0
aF10.0
aF8.0
aF9.0
aF10.0
aF10.0
aF10.0
aF6.0
aF10.0
aF7.0
aF9.0
aF10.0
aF9.0
aF10.0
aF10.0
aF10.0
aF10.0
aF10.0
aF9.0
aF10.0
aF2.0
aF10.0
aF10.0
aF10.0
aF9.0
aF8.0
aF10.0
aF10.0
aF10.0
aF10.0
aF5.0
aF10.0
aF6.0
aF10.0
aF10.0
aF10.0
aF10.0
aF10.0
aF10.0
aF10.0
aF6.0
aF10.0
aF10.0
aF9.0
aF10.0
aF10.0
aF10.0
aF10.0
aF9.0
aF10.0
aF10.0
aF10.0
aF10.0
aF8.0
aF10.0
aF10.0
aF9.0
aF10.0
aF10.0
aF10.0
aF10.0
aF10.0
aF10.0
aF10.0
aF10.0
aF10.0
aF10.0
aF10.0
aF10.0
aF10.0
aF10.0
aF10.0
aF10.0
aF10.0
aF10.0
aF5.0
aF9.0
aF10.0
aF10.0
aF10.0
aF10.0
aF4.0
aF8.0
aF10.0
aF10.0
aF5.0
aF10.0
aF10.0
aF10.0
aF8.0
aF10.0
aF10.0
aF10.0
aF10.0
aF10.0
aF9.0
aF10.0
aF9.0
aF10.0
aF10.0
aF10.0
aF10.0
aF10.0
aF10.0
aF5.0
aF9.0
aF10.0
aF10.0
aF9.0
aF8.0
aF10.0
aF10.0
aF10.0
aF9.0
aF10.0
aF10.0
aF10.0
aF6.0
aF10.0
aF10.0
aF-5.0
aF10.0
aF10.0
aF10.0
aF9.0
aF10.0
aF10.0
aF10.0
aF10.0
aF9.0
aF10.0
aF10.0
aF10.0
aF10.0
aF10.0
aF10.0
aF10.0
aF10.0
aF4.0
aF10.0
aF1.0
aF10.0
aF10.0
aF8.0
aF10.0
aF10.0
aF10.0
aF10.0
aF0.0
aF10.0
aF9.0
aF10.0
aF10.0
aF10.0
aF10.0
aF10.0
aF10.0
aF10.0
aF10.0
aF10.0
aF10.0
aF10.0
aF8.0
aF10.0
aF9.0
aF10.0
aF9.0
aF10.0
aF10.0
aF10.0
aF10.0
aF10.0
aF10.0
aF6.0
aF10.0
aF10.0
aF10.0
aF10.0
aF10.0
aF10.0
aF10.0
aF10.0
aF8.0
aF10.0
aF10.0
aF10.0
aF8.0
aF10.0
aF10.0
aF9.0
aF10.0
aF8.0
aF10.0
aF10.0
aF10.0
aF10.0
aF8.0
aF8.0
aF10.0
aF10.0
aF10.0
aF10.0
aF8.0
aF9.0
aF10.0
aF10.0
aF10.0
aF10.0
aF9.0
aF10.0
aF8.0
aF10.0
aF10.0
aF10.0
aF10.0
aF10.0
aF10.0
aF10.0
aF10.0
aF10.0
aF10.0
aF9.0
aF9.0
aF10.0
aF10.0
aF10.0
aF10.0
aF10.0
aF10.0
aF10.0
aF10.0
aF10.0
aF10.0
aF10.0
aF10.0
aF9.0
aF10.0
aF10.0
aF10.0
aF10.0
aF10.0
aF9.0
aF9.0
aF10.0
aF9.0
aF10.0
aF10.0
aF10.0
aF9.0
aF10.0
aF10.0
aF10.0
aF9.0
aF10.0
aF10.0
aF10.0
aF10.0
aF10.0
aF10.0
aF7.0
aF10.0
aF9.0
aF10.0
aF10.0
aF5.0
aF9.0
aF10.0
aF10.0
aF9.0
aF10.0
aF7.0
aF10.0
aF9.0
aF10.0
aF9.0
aF10.0
aF10.0
aF6.0
aF10.0
aF10.0
aF10.0
aF10.0
aF9.0
aF10.0
aF9.0
aF10.0
aF10.0
aF10.0
aF10.0
aF10.0
aF10.0
aF10.0
aF10.0
aF10.0
aF10.0
aF10.0
aF10.0
aF10.0
aF10.0
aF10.0
aF9.0
aF9.0
aF10.0
aF9.0
aF10.0
aF4.0
aF10.0
aF9.0
aF10.0
aF9.0
aF10.0
aF10.0
aF6.0
aF10.0
aF10.0
aF10.0
aF10.0
aF10.0
aF8.0
aF10.0
aF9.0
aF10.0
aF9.0
aF10.0
aF10.0
aF10.0
aF9.0
aF10.0
aF10.0
aF10.0
aF10.0
aF10.0
aF10.0
aF10.0
aF10.0
aF9.0
aF10.0
aF10.0
aF10.0
aF10.0
aF10.0
aF10.0
aF10.0
aF10.0
aF10.0
aF10.0
aF10.0
aF10.0
aF10.0
aF10.0
aF10.0
aF10.0
aF10.0
aF10.0
aF10.0
aF9.0
aF10.0
aF1.0
aF10.0
aF9.0
aF10.0
aF10.0
aF3.0
aF8.0
aF10.0
aF10.0
aF9.0
aF8.0
aF9.0
aF10.0
aF10.0
aF10.0
aF10.0
aF10.0
aF10.0
aF9.0
aF10.0
aF10.0
aF10.0
aF8.0
aF10.0
aF10.0
aF10.0
aF7.0
aF9.0
aF9.0
aF10.0
aF10.0
aF10.0
aF10.0
aF10.0
aF10.0
aF10.0
aF10.0
aF10.0
aF10.0
aF8.0
aF10.0
aF10.0
aF10.0
aF9.0
aF3.0
aF10.0
aF8.0
aF10.0
aF6.0
aF9.0
aF7.0
aF10.0
aF10.0
aF10.0
aF10.0
aF10.0
aF10.0
aF10.0
aF10.0
aF10.0
aF9.0
aF9.0
aF10.0
aF10.0
aF10.0
aF8.0
aF10.0
aF10.0
aF10.0
aF10.0
aF10.0
aF10.0
aF10.0
aF10.0
aF10.0
aF10.0
aF10.0
aF7.0
aF6.0
aF10.0
aF9.0
aF10.0
aF10.0
aF9.0
aF8.0
aF9.0
aF10.0
aF10.0
aF10.0
aF10.0
aF10.0
aF10.0
aF10.0
aF10.0
aF9.0
aF10.0
aF9.0
aF10.0
aF10.0
aF10.0
aF9.0
aF9.0
aF10.0
aF10.0
aF10.0
aF10.0
aF10.0
aF10.0
aF10.0
aF10.0
aF10.0
aF6.0
aF5.0
aF10.0
aF10.0
aF10.0
aF10.0
aF10.0
aF8.0
aF9.0
aF10.0
aF10.0
aF10.0
aF10.0
aF10.0
aF10.0
aF10.0
aF10.0
aF10.0
aF9.0
aF9.0
aF10.0
aF8.0
aF10.0
aF8.0
aF10.0
aF10.0
aF10.0
aF10.0
aF10.0
aF10.0
aF5.0
aF10.0
aF10.0
aF8.0
aF10.0
aF8.0
aF10.0
aF10.0
aF10.0
aF10.0
aF10.0
aF10.0
aF10.0
aF5.0
aF10.0
aF10.0
aF9.0
aF10.0
aF10.0
aF10.0
aF10.0
aF10.0
aF10.0
aF10.0
aF10.0
aF9.0
aF10.0
aF10.0
aF10.0
aF10.0
aF10.0
aF10.0
aF10.0
aF10.0
aF10.0
aF8.0
aF10.0
aF10.0
aF10.0
aF8.0
aF10.0
aF10.0
aF8.0
aF9.0
aF10.0
aF10.0
aF10.0
aF10.0
aF10.0
aF6.0
aF10.0
aF9.0
aF10.0
aF6.0
aF10.0
aF9.0
aF5.0
aF10.0
aF9.0
aF10.0
aF10.0
aF10.0
aF10.0
aF10.0
aF9.0
aF10.0
aF10.0
aF9.0
aF10.0
aF8.0
aF10.0
aF10.0
aF10.0
aF10.0
aF10.0
aF10.0
aF10.0
aF9.0
aF10.0
aF10.0
aF10.0
aF10.0
aF10.0
aF10.0
aF8.0
aF10.0
aF10.0
aF10.0
aF10.0
aF10.0
aF10.0
aF10.0
aF10.0
aF10.0
aF9.0
aF10.0
aF10.0
aF9.0
aF10.0
aF10.0
aF10.0
aF10.0
aF10.0
aF10.0
aF8.0
aF9.0
aF10.0
aF10.0
aF10.0
aF10.0
aF10.0
aF10.0
aF7.0
aF8.0
aF10.0
aF3.0
aF9.0
aF10.0
aF8.0
aF10.0
aF8.0
aF9.0
aF10.0
aF8.0
aF10.0
aF10.0
aF8.0
aF8.0
aF10.0
aF10.0
aF10.0
aF10.0
aF10.0
aF10.0
aF10.0
aF10.0
aF10.0
aF10.0
aF10.0
aF8.0
aF4.0
aF10.0
aF10.0
aF10.0
aF10.0
aF8.0
aF9.0
aF5.0
aF9.0
aF10.0
aF10.0
aF10.0
aF9.0
aF10.0
aF10.0
aF10.0
aF10.0
aF9.0
aF8.0
aF10.0
aF10.0
aF10.0
aF9.0
aF9.0
aF10.0
aF10.0
aF9.0
aF10.0
aF9.0
aF10.0
aF10.0
aF10.0
aF10.0
aF9.0
aF10.0
aF10.0
aF10.0
aF8.0
aF10.0
aF7.0
aF8.0
aF10.0
aF10.0
aF10.0
aF9.0
aF10.0
aF10.0
aF10.0
aF10.0
aF10.0
aF7.0
aF10.0
aF10.0
aF10.0
aF10.0
aF9.0
aF10.0
aF10.0
aF8.0
aF10.0
aF10.0
aF10.0
aF10.0
aF8.0
aF9.0
aF6.0
aF10.0
aF6.0
aF9.0
aF10.0
aF10.0
aF10.0
aF10.0
aF9.0
aF9.0
aF10.0
aF10.0
aF10.0
aF8.0
aF10.0
aF10.0
aF8.0
aF10.0
aF10.0
aF10.0
aF10.0
aF10.0
aF8.0
aF10.0
aF9.0
aF10.0
aF10.0
aF7.0
aF8.0
aF10.0
aF9.0
aF7.0
aF10.0
aF9.0
aF10.0
aF10.0
aF9.0
aF9.0
aF10.0
aF10.0
aF8.0
aF10.0
aF10.0
aF10.0
aF10.0
aF10.0
aF10.0
aF10.0
aF9.0
aF9.0
aF10.0
aF10.0
aF9.0
aF10.0
aF10.0
aF9.0
aF9.0
aF10.0
aF8.0
aF10.0
aF10.0
aF10.0
aF7.0
aF5.0
aF10.0
aF10.0
aF10.0
aF10.0
aF10.0
aF10.0
aF10.0
aF10.0
aF10.0
aF10.0
aF10.0
aF5.0
aF10.0
aF10.0
aF10.0
aF9.0
aF10.0
aF9.0
aF10.0
aF9.0
aF10.0
aF10.0
aF10.0
aF10.0
aF10.0
aF4.0
aF10.0
aF6.0
aF10.0
aF10.0
aF10.0
aF10.0
aF10.0
aF10.0
aF10.0
aF6.0
aF10.0
aF10.0
aF10.0
aF10.0
aF9.0
aF9.0
aF10.0
aF10.0
aF10.0
aF10.0
aF10.0
aF10.0
aF10.0
aF10.0
aF6.0
aF10.0
aF9.0
aF10.0
aF10.0
aF10.0
aF10.0
aF8.0
aF10.0
aF10.0
aF10.0
aF10.0
aF10.0
aF9.0
aF10.0
aF10.0
aF10.0
aF10.0
aF8.0
aF9.0
aF9.0
aF10.0
aF9.0
aF10.0
aF9.0
aF10.0
aF8.0
aF10.0
aF9.0
aF9.0
aF5.0
aF10.0
aF8.0
aF9.0
aF10.0
aF10.0
aF10.0
aF10.0
aF6.0
aF10.0
aF10.0
aF10.0
aF10.0
aF10.0
aF9.0
aF10.0
aF10.0
aF7.0
aF10.0
aF10.0
aF10.0
aF10.0
aF10.0
aF7.0
aF10.0
aF10.0
aF10.0
aF10.0
aF10.0
aF10.0
aF10.0
aF6.0
aF10.0
aF9.0
aF10.0
aF10.0
aF10.0
aF10.0
aF9.0
aF10.0
aF10.0
aF10.0
aF10.0
aF10.0
aF10.0
aF9.0
aF10.0
aF10.0
aF10.0
aF10.0
aF10.0
aF10.0
aF10.0
aF9.0
aF10.0
aF10.0
aF10.0
aF9.0
aF10.0
aF10.0
aF10.0
aF10.0
aF10.0
aF10.0
aF10.0
aF10.0
aF10.0
aF9.0
aF5.0
aF9.0
aF10.0
aF9.0
aF10.0
aF9.0
aF10.0
aF10.0
aF10.0
aF9.0
aF10.0
aF10.0
aF8.0
aF10.0
aF9.0
aF7.0
aF9.0
aF10.0
aF10.0
aF9.0
aF10.0
aF10.0
aF10.0
aF-5.0
aF10.0
aF10.0
aF10.0
aF8.0
aF10.0
aF10.0
aF10.0
aF10.0
aF7.0
aF10.0
aF10.0
aF10.0
aF10.0
aF9.0
aF10.0
aF9.0
aF10.0
aF8.0
aF10.0
aF10.0
aF10.0
aF10.0
aF10.0
aF9.0
aF10.0
aF8.0
aF10.0
aF10.0
aF10.0
aF10.0
aF10.0
aF10.0
aF10.0
aF10.0
aF10.0
aF10.0
aF10.0
aF8.0
aF8.0
aF10.0
aF10.0
aF10.0
aF10.0
aF10.0
aF10.0
aF8.0
aF10.0
aF10.0
aF9.0
aF10.0
aF10.0
aF9.0
aF9.0
aF10.0
aF8.0
aF10.0
aF10.0
aF10.0
aF10.0
aF10.0
aF10.0
aF10.0
aF10.0
aF10.0
aF10.0
aF10.0
aF8.0
aF10.0
aF10.0
aF10.0
aF10.0
aF10.0
aF10.0
aF10.0
aF10.0
aF10.0
aF9.0
aF10.0
aF10.0
aF8.0
aF10.0
aF10.0
aF10.0
aF10.0
aF10.0
aF10.0
aF10.0
aF9.0
aF10.0
aF10.0
aF10.0
aF10.0
aF9.0
aF9.0
aF2.0
aF10.0
aF10.0
aF10.0
aF10.0
aF10.0
aF10.0
aF10.0
aF10.0
aF10.0
aF10.0
aF9.0
aF10.0
aF10.0
aF10.0
aF10.0
aF10.0
aF10.0
aF10.0
aF9.0
aF10.0
aF10.0
aF10.0
aF10.0
aF10.0
aF10.0
aF10.0
aF10.0
aF10.0
aF10.0
aF10.0
aF10.0
aF9.0
aF10.0
aF10.0
aF10.0
aF9.0
aF10.0
aF9.0
aF10.0
aF7.0
aF10.0
aF8.0
aF10.0
aF7.0
aF10.0
aF10.0
aF8.0
aF10.0
aF10.0
aF10.0
aF9.0
aF-2.0
aF10.0
aF9.0
aF10.0
aF10.0
aF10.0
aF10.0
aF10.0
aF10.0
aF10.0
aF10.0
aF10.0
aF10.0
aF10.0
aF10.0
aF10.0
aF10.0
aF10.0
aF8.0
aF10.0
aF10.0
aF9.0
aF10.0
aF10.0
aF10.0
aF10.0
aF9.0
aF6.0
aF10.0
aF10.0
aF10.0
aF10.0
aF8.0
aF10.0
aF10.0
aF10.0
aF5.0
aF10.0
aF10.0
aF6.0
aF10.0
aF10.0
aF10.0
aF10.0
aF10.0
aF10.0
aF10.0
aF10.0
aF9.0
aF10.0
aF10.0
aF10.0
aF10.0
aF7.0
aF10.0
aF10.0
aF10.0
aF10.0
aF9.0
aF10.0
aF8.0
aF9.0
aF10.0
aF9.0
aF9.0
aF10.0
aF10.0
aF10.0
aF10.0
aF9.0
aF6.0
aF10.0
aF10.0
aF10.0
aF9.0
aF10.0
aF10.0
aF9.0
aF10.0
aF10.0
aF10.0
aF10.0
aF10.0
aF10.0
aF7.0
aF4.0
aF10.0
aF10.0
aF10.0
aF10.0
aF10.0
aF10.0
aF10.0
aF10.0
aF10.0
aF10.0
aF10.0
aF10.0
aF10.0
aF10.0
aF10.0
aF3.0
aF10.0
aF10.0
aF10.0
aF9.0
aF10.0
aF10.0
aF10.0
aF10.0
aF10.0
aF10.0
aF10.0
aF6.0
aF10.0
aF10.0
aF10.0
aF10.0
aF10.0
aF10.0
aF4.0
aF10.0
aF10.0
aF10.0
aF10.0
aF10.0
aF9.0
aF10.0
aF10.0
aF7.0
aF10.0
aF10.0
aF10.0
aF10.0
aF10.0
aF10.0
aF10.0
aF10.0
aF8.0
aF10.0
aF10.0
aF10.0
aF10.0
aF10.0
aF10.0
aF6.0
aF9.0
aF10.0
aF10.0
aF9.0
aF10.0
aF10.0
aF10.0
aF10.0
aF10.0
aF9.0
aF10.0
aF10.0
aF8.0
aF9.0
aF10.0
aF8.0
aF10.0
aF10.0
aF10.0
aF5.0
aF10.0
aF9.0
aF10.0
aF10.0
aF9.0
aF10.0
aF10.0
aF7.0
aF10.0
aF9.0
aF10.0
aF10.0
aF10.0
aF10.0
aF10.0
aF10.0
aF10.0
aF10.0
aF10.0
aF10.0
aF10.0
aF5.0
aF10.0
aF10.0
aF10.0
aF10.0
aF10.0
aF10.0
aF10.0
aF9.0
aF10.0
aF9.0
aF10.0
aF10.0
aF2.0
aF10.0
aF10.0
aF10.0
aF10.0
aF8.0
aF-3.0
aF6.0
aF10.0
aF10.0
aF5.0
aF10.0
aF10.0
aF10.0
aF10.0
aF10.0
aF8.0
aF10.0
aF10.0
aF9.0
aF8.0
aF10.0
aF8.0
aF10.0
aF10.0
aF10.0
aF7.0
aF10.0
aF10.0
aF8.0
aF9.0
aF9.0
aF10.0
aF10.0
aF10.0
aF10.0
aF10.0
aF9.0
aF10.0
aF10.0
aF10.0
aF10.0
aF10.0
aF10.0
aF10.0
aF8.0
aF7.0
aF10.0
aF9.0
aF9.0
aF6.0
aF10.0
aF10.0
aF10.0
aF10.0
aF10.0
aF7.0
aF10.0
aF10.0
aF10.0
aF9.0
aF10.0
aF10.0
aF10.0
aF9.0
aF10.0
aF10.0
aF8.0
aF10.0
aF8.0
aF10.0
aF10.0
aF1.0
aF10.0
aF10.0
aF9.0
aF10.0
aF9.0
aF10.0
aF10.0
aF10.0
aF10.0
aF10.0
aF10.0
aF9.0
aF10.0
aF10.0
aF8.0
aF10.0
aF10.0
aF10.0
aF10.0
aF10.0
aF9.0
aF10.0
aF10.0
aF10.0
aF10.0
aF10.0
aF10.0
aF9.0
aF9.0
aF9.0
aF9.0
aF10.0
aF10.0
aF10.0
aF10.0
aF10.0
aF10.0
aF7.0
aF10.0
aF10.0
aF10.0
aF10.0
aF10.0
aF10.0
aF10.0
aF10.0
aF9.0
aF10.0
aF10.0
aF10.0
aF10.0
aF10.0
aF8.0
aF10.0
aF10.0
aF8.0
aF10.0
aF10.0
aF10.0
aF10.0
aF9.0
aF10.0
aF10.0
aF10.0
aF10.0
aF10.0
aF10.0
aF10.0
aF10.0
aF10.0
aF10.0
aF9.0
aF10.0
aF10.0
aF10.0
aF10.0
aF10.0
aF10.0
aF10.0
aF10.0
aF10.0
aF10.0
aF10.0
aF10.0
aF10.0
aF8.0
aF10.0
aF9.0
aF10.0
aF10.0
aF10.0
aF10.0
aF10.0
aF10.0
aF10.0
aF8.0
aF10.0
aF8.0
aF10.0
aF10.0
aF10.0
aF10.0
aF10.0
aF9.0
aF10.0
aF5.0
aF7.0
aF10.0
aF10.0
aF7.0
aF9.0
aF10.0
aF10.0
aF10.0
aF10.0
aF10.0
aF10.0
aF10.0
aF9.0
aF10.0
aF10.0
aF10.0
aF10.0
aF10.0
aF9.0
aF10.0
aF7.0
aF10.0
aF9.0
aF10.0
aF10.0
aF10.0
aF10.0
aF9.0
aF9.0
aF10.0
aF10.0
aF8.0
aF5.0
aF10.0
aF10.0
aF10.0
aF10.0
aF10.0
aF10.0
aF10.0
aF10.0
aF9.0
aF10.0
aF10.0
aF5.0
aF10.0
aF10.0
aF10.0
aF10.0
aF9.0
aF10.0
aF10.0
aF10.0
aF1.0
aF8.0
aF10.0
aF10.0
aF10.0
aF8.0
aF10.0
aF10.0
aF8.0
aF10.0
aF10.0
aF10.0
aF9.0
aF10.0
aF9.0
aF10.0
aF10.0
aF10.0
aF9.0
aF10.0
aF10.0
aF8.0
aF10.0
aF10.0
aF10.0
aF10.0
aF9.0
aF10.0
aF10.0
aF9.0
aF10.0
aF10.0
aF10.0
aF10.0
aF10.0
aF10.0
aF8.0
aF10.0
aF10.0
aF10.0
aF10.0
aF10.0
aF9.0
aF10.0
aF10.0
aF10.0
aF10.0
aF10.0
aF7.0
aF10.0
aF10.0
aF9.0
aF10.0
aF10.0
aF10.0
aF10.0
aF10.0
aF10.0
aF8.0
aF10.0
aF10.0
aF10.0
aF10.0
aF10.0
aF10.0
aF10.0
aF10.0
aF10.0
aF10.0
aF10.0
aF10.0
aF7.0
aF10.0
aF10.0
aF10.0
aF10.0
aF10.0
aF10.0
aF10.0
aF10.0
aF10.0
aF9.0
aF10.0
aF10.0
aF10.0
aF10.0
aF10.0
aF10.0
aF10.0
aF10.0
aF8.0
aF10.0
aF9.0
aF10.0
aF10.0
aF10.0
aF10.0
aF10.0
aF9.0
aF10.0
aF10.0
aF7.0
aF7.0
aF10.0
aF9.0
aF10.0
aF10.0
aF-5.0
aF10.0
aF9.0
aF10.0
aF10.0
aF10.0
aF10.0
aF10.0
aF10.0
aF10.0
aF10.0
aF10.0
aF9.0
aF10.0
aF10.0
aF9.0
aF10.0
aF10.0
aF10.0
aF10.0
aF10.0
aF9.0
aF10.0
aF10.0
aF8.0
aF10.0
aF10.0
aF10.0
aF10.0
aF10.0
aF10.0
aF10.0
aF10.0
aF10.0
aF8.0
aF7.0
aF10.0
aF10.0
aF8.0
aF10.0
aF10.0
aF10.0
aF10.0
aF10.0
aF10.0
aF10.0
aF8.0
aF6.0
aF10.0
aF9.0
aF10.0
aF10.0
aF10.0
aF9.0
aF10.0
aF10.0
aF10.0
aF10.0
aF10.0
aF9.0
aF10.0
aF10.0
aF3.0
aF10.0
aF10.0
aF-5.0
aF8.0
aF9.0
aF10.0
aF10.0
aF10.0
aF10.0
aF10.0
aF10.0
aF10.0
aF10.0
aF10.0
aF10.0
aF10.0
aF10.0
aF10.0
aF10.0
aF10.0
aF9.0
aF10.0
aF10.0
aF10.0
aF10.0
aF10.0
aF10.0
aF10.0
aF8.0
aF9.0
aF10.0
aF10.0
aF10.0
aF10.0
aF10.0
aF9.0
aF10.0
aF10.0
aF10.0
aF10.0
aF10.0
aF10.0
aF10.0
aF10.0
aF3.0
aF10.0
aF10.0
aF10.0
aF10.0
aF10.0
aF10.0
aF10.0
aF10.0
aF10.0
aF1.0
aF10.0
aF9.0
aF10.0
aF10.0
aF10.0
aF10.0
aF10.0
aF10.0
aF10.0
aF10.0
aF10.0
aF10.0
aF10.0
aF10.0
aF10.0
aF10.0
aF10.0
aF10.0
aF9.0
aF10.0
aF10.0
aF9.0
aF10.0
aF10.0
aF9.0
aF10.0
aF10.0
aF10.0
aF10.0
aF10.0
aF10.0
aF10.0
aF1.0
aF10.0
aF10.0
aF10.0
aF10.0
aF10.0
aF10.0
aF10.0
aF9.0
aF10.0
aF10.0
aF10.0
aF10.0
aF8.0
aF10.0
aF10.0
aF10.0
aF7.0
aF10.0
aF10.0
aF10.0
aF10.0
aF10.0
aF10.0
aF10.0
aF10.0
aF10.0
aF10.0
aF10.0
aF10.0
aF10.0
aF10.0
aF-1.0
aF10.0
aF10.0
aF10.0
aF10.0
aF10.0
aF-3.0
aF10.0
aF10.0
aF10.0
aF10.0
aF9.0
aF10.0
aF10.0
aF10.0
aF10.0
aF9.0
aF10.0
aF10.0
aF10.0
aF10.0
aF7.0
aF10.0
aF10.0
aF9.0
aF10.0
aF10.0
aF10.0
aF10.0
aF10.0
aF10.0
aF10.0
aF6.0
aF10.0
aF10.0
aF10.0
aF10.0
aF10.0
aF10.0
aF10.0
aF10.0
aF10.0
aF8.0
aF10.0
aF10.0
aF10.0
aF10.0
aF10.0
aF10.0
aF10.0
aF10.0
aF10.0
aF10.0
aF10.0
aF3.0
aF10.0
aF10.0
aF9.0
aF10.0
aF5.0
aF10.0
aF10.0
aF10.0
aF10.0
aF10.0
aF10.0
aF10.0
aF10.0
aF10.0
aF10.0
aF10.0
aF8.0
aF10.0
aF10.0
aF10.0
aF10.0
aF0.0
aF9.0
aF10.0
aF10.0
aF10.0
aF10.0
aF10.0
aF9.0
aF10.0
aF10.0
aF9.0
aF10.0
aF10.0
aF7.0
aF10.0
aF10.0
aF10.0
aF10.0
aF10.0
aF10.0
aF10.0
aF10.0
aF10.0
aF9.0
aF10.0
aF10.0
aF9.0
aF10.0
aF10.0
aF6.0
aF10.0
aF10.0
aF10.0
aF10.0
aF9.0
aF10.0
aF10.0
aF10.0
aF8.0
aF10.0
aF10.0
aF10.0
aF9.0
aF10.0
aF9.0
aF10.0
aF10.0
aF9.0
aF10.0
aF10.0
aF10.0
aF10.0
aF10.0
aF10.0
aF10.0
aF10.0
aF10.0
aF10.0
aF10.0
aF10.0
aF10.0
aF10.0
aF10.0
aF10.0
aF10.0
aF10.0
aF10.0
aF10.0
aF10.0
aF10.0
aF10.0
aF9.0
aF10.0
aF10.0
aF10.0
aF10.0
aF10.0
aF10.0
aF10.0
aF10.0
aF10.0
aF10.0
aF10.0
aF10.0
aF10.0
aF10.0
aF9.0
aF10.0
aF10.0
aF10.0
aF9.0
aF10.0
aF10.0
aF10.0
aF10.0
aF10.0
aF10.0
aF10.0
aF10.0
aF10.0
aF10.0
aF10.0
aF3.0
aF10.0
aF10.0
aF10.0
aF10.0
aF10.0
aF2.0
aF10.0
aF10.0
aF10.0
aF10.0
aF10.0
aF10.0
aF10.0
aF9.0
aF10.0
aF10.0
aF10.0
aF10.0
aF10.0
aF10.0
aF10.0
aF10.0
aF4.0
aF10.0
aF10.0
aF10.0
aF10.0
aF10.0
aF10.0
aF10.0
aF10.0
aF10.0
aF6.0
aF10.0
aF10.0
aF9.0
aF9.0
aF9.0
aF10.0
aF8.0
aF8.0
aF10.0
aF7.0
aF9.0
aF10.0
aF10.0
aF6.0
aF10.0
aF10.0
aF10.0
aF10.0
aF10.0
aF10.0
aF9.0
aF10.0
aF9.0
aF10.0
aF10.0
aF9.0
aF10.0
aF10.0
aF10.0
aF10.0
aF10.0
aF10.0
aF8.0
aF10.0
aF9.0
aF10.0
aF8.0
aF10.0
aF9.0
aF10.0
aF10.0
aF10.0
aF10.0
aF10.0
aF10.0
aF10.0
aF7.0
aF-2.0
aF10.0
aF8.0
aF10.0
aF10.0
aF10.0
aF9.0
aF10.0
aF10.0
aF9.0
aF10.0
aF9.0
aF10.0
aF9.0
aF10.0
aF10.0
aF10.0
aF10.0
aF9.0
aF10.0
aF10.0
aF10.0
aF10.0
aF10.0
aF10.0
aF10.0
aF10.0
aF10.0
aF10.0
aF10.0
aF6.0
aF10.0
aF10.0
aF8.0
aF10.0
aF10.0
aF10.0
aF10.0
aF10.0
aF10.0
aF10.0
aF10.0
aF10.0
aF10.0
aF10.0
aF10.0
aF8.0
aF9.0
aF10.0
aF10.0
aF10.0
aF10.0
aF6.0
aF10.0
aF10.0
aF10.0
aF10.0
aF10.0
aF10.0
aF10.0
aF10.0
aF10.0
aF10.0
aF8.0
aF10.0
aF10.0
aF10.0
aF10.0
aF9.0
aF10.0
aF10.0
aF8.0
aF10.0
aF10.0
aF-3.0
aF10.0
aF10.0
aF10.0
aF9.0
aF10.0
aF10.0
aF10.0
aF10.0
aF10.0
aF10.0
aF10.0
aF10.0
aF10.0
aF10.0
aF10.0
aF10.0
aF10.0
aF10.0
aF10.0
aF10.0
aF10.0
aF9.0
aF8.0
aF10.0
aF8.0
aF7.0
aF10.0
aF10.0
aF10.0
aF10.0
aF10.0
aF10.0
aF10.0
aF10.0
aF0.0
aF10.0
aF10.0
aF10.0
aF8.0
aF10.0
aF10.0
aF10.0
aF10.0
aF10.0
aF10.0
aF8.0
aF6.0
aF9.0
aF10.0
aF10.0
aF10.0
aF10.0
aF10.0
aF10.0
aF10.0
aF10.0
aF10.0
aF10.0
aF8.0
aF10.0
aF9.0
aF10.0
aF10.0
aF9.0
aF10.0
aF6.0
aF10.0
aF10.0
aF10.0
aF10.0
aF10.0
aF9.0
aF10.0
aF10.0
aF10.0
aF10.0
aF10.0
aF10.0
aF10.0
aF10.0
aF10.0
aF10.0
aF9.0
aF10.0
aF9.0
aF10.0
aF10.0
aF10.0
aF10.0
aF10.0
aF4.0
aF10.0
aF10.0
aF10.0
aF10.0
aF9.0
aF10.0
aF10.0
aF10.0
aF10.0
aF10.0
aF10.0
aF10.0
aF7.0
aF10.0
aF10.0
aF10.0
aF10.0
aF8.0
aF10.0
aF10.0
aF10.0
aF10.0
aF8.0
aF10.0
aF10.0
aF8.0
aF10.0
aF10.0
aF7.0
aF10.0
aF10.0
aF10.0
aF10.0
aF10.0
aF10.0
aF10.0
aF10.0
aF10.0
aF10.0
aF10.0
aF10.0
aF10.0
aF10.0
aF10.0
aF10.0
aF10.0
aF10.0
aF10.0
aF10.0
aF10.0
aF9.0
aF7.0
aF7.0
aF-6.0
aF10.0
aF10.0
aF10.0
aF9.0
aF9.0
aF10.0
aF10.0
aF10.0
aF10.0
aF10.0
aF10.0
aF10.0
aF8.0
aF10.0
aF10.0
aF10.0
aF7.0
aF10.0
aF9.0
aF10.0
aF10.0
aF9.0
aF10.0
aF10.0
aF10.0
aF10.0
aF10.0
aF10.0
aF10.0
aF10.0
aF6.0
aF10.0
aF10.0
aF8.0
aF10.0
aF9.0
aF10.0
aF10.0
aF10.0
aF10.0
aF10.0
aF10.0
aF10.0
aF0.0
aF10.0
aF10.0
aF5.0
aF9.0
aF10.0
aF9.0
aF10.0
aF10.0
aF10.0
aF10.0
aF10.0
aF10.0
aF9.0
aF10.0
aF10.0
aF10.0
aF10.0
aF6.0
aF10.0
aF9.0
aF9.0
aF10.0
aF9.0
aF10.0
aF7.0
aF10.0
aF10.0
aF10.0
aF10.0
aF9.0
aF10.0
aF10.0
aF10.0
aF10.0
aF10.0
aF10.0
aF10.0
aF10.0
aF10.0
aF10.0
aF10.0
aF10.0
aF10.0
aF10.0
aF10.0
aF10.0
aF10.0
aF10.0
aF10.0
aF10.0
aF6.0
aF10.0
aF4.0
aF9.0
aF10.0
aF10.0
aF10.0
aF5.0
aF10.0
aF10.0
aF9.0
aF10.0
aF10.0
aF10.0
aF10.0
aF10.0
aF6.0
aF10.0
aF10.0
aF9.0
aF10.0
aF10.0
aF10.0
aF10.0
aF10.0
aF9.0
aF10.0
aF10.0
aF10.0
aF10.0
aF10.0
aF10.0
aF8.0
aF10.0
aF10.0
aF8.0
aF9.0
aF10.0
aF1.0
aF10.0
aF10.0
aF10.0
aF6.0
aF10.0
aF10.0
aF10.0
aF9.0
aF10.0
aF10.0
aF10.0
aF10.0
aF10.0
aF8.0
aF10.0
aF10.0
aF9.0
aF10.0
aF10.0
aF10.0
aF8.0
aF10.0
aF6.0
aF10.0
aF10.0
aF10.0
aF10.0
aF10.0
aF10.0
aF10.0
aF9.0
aF10.0
aF10.0
aF10.0
aF10.0
aF10.0
aF10.0
aF10.0
aF10.0
aF10.0
aF10.0
aF10.0
aF10.0
aF10.0
aF10.0
aF10.0
aF10.0
aF10.0
aF9.0
aF10.0
aF10.0
aF10.0
aF10.0
aF10.0
aF10.0
aF10.0
aF10.0
aF10.0
aF10.0
aF10.0
aF10.0
aF10.0
aF10.0
aF5.0
aF8.0
aF10.0
aF5.0
aF1.0
aF10.0
aF9.0
aF10.0
aF10.0
aF9.0
aF10.0
aF10.0
aF9.0
aF10.0
aF10.0
aF10.0
aF9.0
aF10.0
aF9.0
aF10.0
aF10.0
aF4.0
aF10.0
aF10.0
aF10.0
aF10.0
aF10.0
aF10.0
aF10.0
aF9.0
aF9.0
aF10.0
aF10.0
aF10.0
aF10.0
aF10.0
aF8.0
aF10.0
aF10.0
aF10.0
aF10.0
aF10.0
aF9.0
aF9.0
aF8.0
aF10.0
aF10.0
aF10.0
aF10.0
aF9.0
aF10.0
aF10.0
aF10.0
aF10.0
aF9.0
aF10.0
aF10.0
aF9.0
aF10.0
aF10.0
aF10.0
aF10.0
aF9.0
aF10.0
aF10.0
aF10.0
aF9.0
aF5.0
aF10.0
aF10.0
aF9.0
aF10.0
aF9.0
aF10.0
aF10.0
aF10.0
aF10.0
aF9.0
aF10.0
aF10.0
aF10.0
aF10.0
aF2.0
aF10.0
aF10.0
aF10.0
aF9.0
aF10.0
aF2.0
aF10.0
aF10.0
aF10.0
aF10.0
aF10.0
aF10.0
aF8.0
aF10.0
aF10.0
aF9.0
aF10.0
aF10.0
aF10.0
aF10.0
aF10.0
aF10.0
aF9.0
aF10.0
aF10.0
aF8.0
aF9.0
aF10.0
aF10.0
aF10.0
aF7.0
aF10.0
aF10.0
aF9.0
aF9.0
aF10.0
aF10.0
aF10.0
aF10.0
aF6.0
aF10.0
aF10.0
aF9.0
aF10.0
aF9.0
aF10.0
aF9.0
aF10.0
aF10.0
aF10.0
aF10.0
aF10.0
aF9.0
aF10.0
aF10.0
aF10.0
aF8.0
aF9.0
aF10.0
aF10.0
aF9.0
aF10.0
aF10.0
aF10.0
aF9.0
aF9.0
aF10.0
aF6.0
aF10.0
aF10.0
aF10.0
aF10.0
aF10.0
aF10.0
aF-1.0
aF9.0
aF10.0
aF10.0
aF9.0
aF10.0
aF10.0
aF9.0
aF10.0
aF10.0
aF10.0
aF10.0
aF10.0
aF10.0
aF10.0
aF10.0
aF10.0
aF10.0
aF10.0
aF10.0
aF10.0
aF10.0
aF10.0
aF-3.0
aF10.0
aF10.0
aF9.0
aF10.0
aF9.0
aF10.0
aF9.0
aF10.0
aF10.0
aF9.0
aF10.0
aF8.0
aF10.0
aF10.0
aF10.0
aF10.0
aF4.0
aF10.0
aF10.0
aF10.0
aF10.0
aF9.0
aF10.0
aF10.0
aF10.0
aF10.0
aF10.0
aF10.0
aF10.0
aF10.0
aF10.0
aF10.0
aF10.0
aF10.0
aF9.0
aF10.0
aF10.0
aF10.0
aF10.0
aF10.0
aF10.0
aF10.0
aF10.0
aF10.0
aF10.0
aF10.0
aF10.0
aF10.0
aF10.0
aF10.0
aF10.0
aF10.0
aF8.0
aF10.0
aF10.0
aF10.0
aF9.0
aF10.0
aF10.0
aF10.0
aF10.0
aF10.0
aF10.0
aF9.0
aF10.0
aF10.0
aF10.0
aF9.0
aF10.0
aF10.0
aF10.0
aF10.0
aF10.0
aF10.0
aF10.0
aF10.0
aF10.0
aF10.0
aF10.0
aF9.0
aF10.0
aF10.0
aF9.0
aF10.0
aF10.0
aF9.0
aF10.0
aF10.0
aF10.0
aF10.0
aF10.0
aF9.0
aF10.0
aF10.0
aF10.0
aF10.0
aF10.0
aF10.0
aF0.0
aF10.0
aF10.0
aF8.0
aF10.0
aF10.0
aF10.0
aF10.0
aF10.0
aF10.0
aF9.0
aF10.0
aF9.0
aF10.0
aF9.0
aF-1.0
aF10.0
aF10.0
aF10.0
aF10.0
aF7.0
aF10.0
aF10.0
aF10.0
aF10.0
aF10.0
aF10.0
aF9.0
aF10.0
aF10.0
aF9.0
aF10.0
aF9.0
aF10.0
aF3.0
aF10.0
aF10.0
aF10.0
aF10.0
aF10.0
aF10.0
aF10.0
aF10.0
aF10.0
aF10.0
aF10.0
aF10.0
aF10.0
aF10.0
aF10.0
aF6.0
aF10.0
aF9.0
aF10.0
aF10.0
aF10.0
aF9.0
aF9.0
aF10.0
aF10.0
aF10.0
aF10.0
aF10.0
aF10.0
aF10.0
aF10.0
aF10.0
aF9.0
aF10.0
aF10.0
aF10.0
aF10.0
aF10.0
aF10.0
aF5.0
aF10.0
aF10.0
aF10.0
aF10.0
aF8.0
aF10.0
aF10.0
aF10.0
aF10.0
aF10.0
aF6.0
aF10.0
aF10.0
aF10.0
aF9.0
aF10.0
aF9.0
aF10.0
aF10.0
aF10.0
aF10.0
aF6.0
aF10.0
aF10.0
aF5.0
aF10.0
aF10.0
aF10.0
aF10.0
aF10.0
aF10.0
aF10.0
aF10.0
aF10.0
aF10.0
aF5.0
aF10.0
aF10.0
aF10.0
aF10.0
aF9.0
aF10.0
aF10.0
aF10.0
aF10.0
aF8.0
aF10.0
aF9.0
aF8.0
aF10.0
aF10.0
aF10.0
aF10.0
aF9.0
aF10.0
aF8.0
aF10.0
aF10.0
aF10.0
aF9.0
aF9.0
aF10.0
aF10.0
aF10.0
aF8.0
aF10.0
aF10.0
aF10.0
aF10.0
aF10.0
aF9.0
aF10.0
aF9.0
aF9.0
aF9.0
aF8.0
aF10.0
aF10.0
aF10.0
aF8.0
aF10.0
aF10.0
aF9.0
aF10.0
aF10.0
aF10.0
aF10.0
aF7.0
aF6.0
aF10.0
aF10.0
aF10.0
aF10.0
aF9.0
aF10.0
aF10.0
aF9.0
aF10.0
aF8.0
aF10.0
aF10.0
aF10.0
aF10.0
aF8.0
aF8.0
aF10.0
aF10.0
aF10.0
aF10.0
aF10.0
aF10.0
aF10.0
aF10.0
aF10.0
aF10.0
aF10.0
aF7.0
aF9.0
aF10.0
aF10.0
aF10.0
aF9.0
aF10.0
aF10.0
aF10.0
aF10.0
aF10.0
aF10.0
aF9.0
aF10.0
aF10.0
aF10.0
aF9.0
aF10.0
aF10.0
aF10.0
aF10.0
aF10.0
aF10.0
aF9.0
aF10.0
aF10.0
aF10.0
aF10.0
aF10.0
aF10.0
aF7.0
aF10.0
aF10.0
aF10.0
aF6.0
aF10.0
aF10.0
aF10.0
aF10.0
aF10.0
aF10.0
aF8.0
aF10.0
aF1.0
aF10.0
aF10.0
aF7.0
aF10.0
aF10.0
aF10.0
aF10.0
aF10.0
aF10.0
aF10.0
aF8.0
aF10.0
aF10.0
aF10.0
aF10.0
aF10.0
aF10.0
aF10.0
aF9.0
aF10.0
aF10.0
aF10.0
aF8.0
aF10.0
aF9.0
aF10.0
aF10.0
aF10.0
aF10.0
aF10.0
aF10.0
aF10.0
aF8.0
aF10.0
aF10.0
aF10.0
aF10.0
aF10.0
aF8.0
aF7.0
aF10.0
aF10.0
aF10.0
aF10.0
aF10.0
aF10.0
aF10.0
aF7.0
aF10.0
aF10.0
aF10.0
aF10.0
aF10.0
aF10.0
aF7.0
aF9.0
aF10.0
aF10.0
aF9.0
aF10.0
aF10.0
aF10.0
aF9.0
aF10.0
aF10.0
aF10.0
aF10.0
aF10.0
aF10.0
aF10.0
aF10.0
aF10.0
aF8.0
aF10.0
aF10.0
aF9.0
aF10.0
aF10.0
aF8.0
aF10.0
aF10.0
aF10.0
aF9.0
aF10.0
aF9.0
aF-1.0
aF8.0
aF10.0
aF10.0
aF10.0
aF10.0
aF9.0
aF10.0
aF10.0
aF10.0
aF10.0
aF10.0
aF10.0
aF10.0
aF10.0
aF9.0
aF10.0
aF9.0
aF10.0
aF10.0
aF10.0
aF10.0
aF10.0
aF10.0
aF7.0
aF8.0
aF10.0
aF10.0
aF10.0
aF10.0
aF10.0
aF10.0
aF10.0
aF9.0
aF10.0
aF10.0
aF10.0
aF9.0
aF10.0
aF10.0
aF10.0
aF9.0
aF10.0
aF5.0
aF10.0
aF10.0
aF10.0
aF10.0
aF10.0
aF10.0
aF10.0
aF9.0
aF10.0
aF9.0
aF10.0
aF10.0
aF9.0
aF10.0
aF10.0
aF10.0
aF10.0
aF10.0
aF10.0
aF7.0
aF10.0
aF10.0
aF10.0
aF10.0
aF10.0
aF10.0
aF10.0
aF10.0
aF8.0
aF9.0
aF10.0
aF7.0
aF10.0
aF10.0
aF9.0
aF9.0
aF10.0
aF10.0
aF10.0
aF10.0
aF10.0
aF10.0
aF9.0
aF10.0
aF10.0
aF9.0
aF10.0
aF10.0
aF10.0
aF10.0
aF10.0
aF10.0
aF9.0
aF9.0
aF10.0
aF9.0
aF10.0
aF10.0
aF10.0
aF10.0
aF4.0
aF10.0
aF10.0
aF10.0
aF10.0
aF10.0
aF10.0
aF10.0
aF10.0
aF10.0
aF10.0
aF10.0
aF10.0
aF10.0
aF10.0
aF10.0
aF10.0
aF7.0
aF10.0
aF10.0
aF7.0
aF10.0
aF10.0
aF10.0
aF10.0
aF10.0
aF10.0
aF6.0
aF10.0
aF10.0
aF10.0
aF9.0
aF5.0
aF6.0
aF10.0
aF10.0
aF10.0
aF8.0
aF5.0
aF5.0
aF10.0
aF10.0
aF10.0
aF9.0
aF10.0
aF10.0
aF9.0
aF10.0
aF10.0
aF9.0
aF7.0
aF8.0
aF10.0
aF10.0
aF10.0
aF10.0
aF10.0
aF10.0
aF8.0
aF10.0
aF8.0
aF9.0
aF9.0
aF10.0
aF10.0
aF10.0
aF10.0
aF10.0
aF10.0
aF10.0
aF2.0
aF10.0
aF10.0
aF10.0
aF8.0
aF10.0
aF10.0
aF10.0
aF10.0
aF9.0
aF9.0
aF10.0
aF10.0
aF7.0
aF10.0
aF10.0
aF10.0
aF10.0
aF10.0
aF10.0
aF10.0
aF9.0
aF10.0
aF10.0
aF7.0
aF8.0
aF9.0
aF10.0
aF10.0
aF10.0
aF8.0
aF10.0
aF9.0
aF10.0
aF10.0
aF10.0
aF10.0
aF10.0
aF10.0
aF10.0
aF10.0
aF7.0
aF9.0
aF10.0
aF10.0
aF10.0
aF10.0
aF9.0
aF9.0
aF10.0
aF10.0
aF10.0
aF10.0
aF10.0
aF10.0
aF10.0
aF10.0
aF10.0
aF10.0
aF9.0
aF10.0
aF9.0
aF10.0
aF10.0
aF10.0
aF8.0
aF10.0
aF10.0
aF9.0
aF10.0
aF10.0
aF10.0
aF10.0
aF7.0
aF10.0
aF10.0
aF8.0
aF10.0
aF10.0
aF10.0
aF10.0
aF9.0
aF8.0
aF10.0
aF10.0
aF10.0
aF10.0
aF9.0
aF10.0
aF10.0
aF10.0
aF9.0
aF10.0
aF10.0
aF10.0
aF10.0
aF10.0
aF9.0
aF10.0
aF10.0
aF10.0
aF10.0
aF10.0
aF10.0
aF10.0
aF10.0
aF9.0
aF10.0
aF10.0
aF10.0
aF10.0
aF10.0
aF10.0
aF10.0
aF8.0
aF10.0
aF7.0
aF10.0
aF10.0
aF10.0
aF10.0
aF10.0
aF8.0
aF9.0
aF9.0
aF10.0
aF10.0
aF10.0
aF8.0
aF10.0
aF10.0
aF8.0
aF10.0
aF10.0
aF10.0
aF10.0
aF10.0
aF10.0
aF10.0
aF10.0
aF10.0
aF10.0
aF10.0
aF10.0
aF10.0
aF10.0
aF10.0
aF10.0
aF10.0
aF10.0
aF10.0
aF10.0
aF10.0
aF7.0
aF10.0
aF10.0
aF9.0
aF10.0
aF10.0
aF10.0
aF10.0
aF10.0
aF10.0
aF10.0
aF10.0
aF10.0
aF10.0
aF10.0
aF10.0
aF10.0
aF6.0
aF10.0
aF10.0
aF9.0
aF10.0
aF10.0
aF10.0
aF10.0
aF10.0
aF10.0
aF10.0
aF10.0
aF10.0
aF10.0
aF10.0
aF10.0
aF10.0
aF10.0
aF10.0
aF10.0
aF10.0
aF10.0
aF10.0
aF10.0
aF10.0
aF9.0
aF9.0
aF9.0
aF9.0
aF10.0
aF10.0
aF10.0
aF9.0
aF9.0
aF10.0
aF9.0
aF8.0
aF10.0
aF10.0
aF10.0
aF10.0
aF10.0
aF9.0
aF10.0
aF10.0
aF6.0
aF10.0
aF10.0
aF10.0
aF10.0
aF10.0
aF10.0
aF3.0
aF10.0
aF9.0
aF9.0
aF10.0
aF10.0
aF10.0
aF10.0
aF10.0
aF8.0
aF3.0
aF10.0
aF10.0
aF9.0
aF8.0
aF8.0
aF10.0
aF10.0
aF10.0
aF10.0
aF10.0
aF10.0
aF9.0
aF5.0
aF9.0
aF10.0
aF4.0
aF9.0
aF9.0
aF10.0
aF10.0
aF10.0
aF10.0
aF10.0
aF10.0
aF5.0
aF10.0
aF9.0
aF9.0
aF10.0
aF10.0
aF10.0
aF8.0
aF10.0
aF10.0
aF10.0
aF10.0
aF10.0
aF10.0
aF7.0
aF10.0
aF10.0
aF10.0
aF10.0
aF10.0
aF10.0
aF10.0
aF10.0
aF10.0
aF10.0
aF8.0
aF10.0
aF10.0
aF10.0
aF9.0
aF8.0
aF10.0
aF10.0
aF7.0
aF10.0
aF10.0
aF10.0
aF10.0
aF10.0
aF10.0
aF10.0
aF9.0
aF10.0
aF8.0
aF9.0
asS'steps'
p179
(lp180
I151
aI402
aI501
aI501
aI501
aI425
aI501
aI191
aI97
aI326
aI99
aI80
aI145
aI214
aI189
aI501
aI121
aI249
aI53
aI101
aI70
aI108
aI31
aI123
aI21
aI24
aI33
aI100
aI44
aI77
aI36
aI31
aI79
aI31
aI27
aI59
aI35
aI65
aI36
aI28
aI30
aI53
aI58
aI69
aI44
aI54
aI28
aI30
aI30
aI22
aI31
aI45
aI68
aI22
aI67
aI46
aI81
aI64
aI50
aI21
aI24
aI34
aI41
aI35
aI56
aI64
aI31
aI25
aI35
aI38
aI60
aI43
aI24
aI64
aI50
aI71
aI56
aI61
aI52
aI60
aI23
aI70
aI65
aI21
aI35
aI47
aI37
aI21
aI27
aI48
aI66
aI52
aI45
aI23
aI24
aI40
aI26
aI32
aI68
aI52
aI40
aI18
aI70
aI41
aI35
aI35
aI20
aI18
aI75
aI21
aI53
aI71
aI24
aI45
aI31
aI79
aI30
aI38
aI23
aI46
aI37
aI60
aI45
aI35
aI47
aI71
aI36
aI36
aI41
aI40
aI35
aI50
aI37
aI35
aI40
aI38
aI58
aI38
aI52
aI32
aI25
aI41
aI31
aI77
aI33
aI53
aI38
aI70
aI35
aI41
aI23
aI69
aI16
aI40
aI35
aI54
aI36
aI52
aI43
aI25
aI28
aI34
aI30
aI62
aI24
aI56
aI67
aI57
aI41
aI43
aI42
aI19
aI71
aI67
aI54
aI27
aI43
aI26
aI43
aI52
aI57
aI41
aI33
aI26
aI41
aI36
aI42
aI38
aI43
aI56
aI44
aI39
aI69
aI64
aI19
aI27
aI66
aI37
aI52
aI23
aI42
aI24
aI36
aI38
aI59
aI24
aI36
aI42
aI45
aI36
aI46
aI86
aI56
aI27
aI53
aI39
aI37
aI52
aI30
aI37
aI45
aI39
aI34
aI56
aI23
aI41
aI55
aI36
aI44
aI31
aI53
aI46
aI24
aI20
aI39
aI28
aI44
aI42
aI27
aI26
aI22
aI58
aI37
aI20
aI39
aI34
aI52
aI36
aI24
aI43
aI31
aI33
aI15
aI37
aI30
aI36
aI48
aI42
aI13
aI26
aI22
aI25
aI38
aI30
aI52
aI40
aI32
aI52
aI36
aI44
aI37
aI35
aI26
aI30
aI20
aI54
aI26
aI25
aI41
aI23
aI41
aI34
aI26
aI52
aI26
aI46
aI35
aI66
aI27
aI24
aI25
aI33
aI20
aI22
aI21
aI28
aI50
aI31
aI39
aI25
aI38
aI60
aI35
aI35
aI41
aI54
aI40
aI39
aI49
aI23
aI20
aI20
aI56
aI32
aI64
aI23
aI67
aI33
aI30
aI37
aI32
aI65
aI37
aI38
aI31
aI30
aI36
aI36
aI35
aI29
aI23
aI40
aI19
aI29
aI27
aI47
aI20
aI44
aI32
aI23
aI29
aI22
aI34
aI23
aI27
aI52
aI26
aI35
aI28
aI28
aI24
aI33
aI19
aI36
aI31
aI33
aI23
aI43
aI35
aI42
aI51
aI45
aI21
aI25
aI36
aI38
aI27
aI31
aI47
aI38
aI33
aI47
aI35
aI38
aI41
aI42
aI24
aI35
aI33
aI26
aI36
aI18
aI16
aI26
aI26
aI38
aI23
aI30
aI31
aI39
aI36
aI26
aI22
aI45
aI35
aI36
aI18
aI18
aI29
aI30
aI52
aI13
aI24
aI25
aI29
aI23
aI46
aI68
aI24
aI42
aI34
aI23
aI31
aI22
aI17
aI21
aI25
aI27
aI24
aI32
aI28
aI70
aI33
aI29
aI26
aI38
aI18
aI34
aI44
aI43
aI25
aI29
aI51
aI39
aI32
aI23
aI41
aI42
aI33
aI30
aI19
aI18
aI28
aI31
aI18
aI25
aI10
aI22
aI30
aI32
aI31
aI21
aI23
aI33
aI37
aI31
aI24
aI25
aI43
aI33
aI29
aI27
aI25
aI26
aI38
aI31
aI27
aI22
aI42
aI24
aI22
aI33
aI34
aI21
aI33
aI34
aI29
aI30
aI42
aI19
aI30
aI31
aI32
aI43
aI46
aI39
aI33
aI31
aI33
aI24
aI38
aI36
aI41
aI28
aI20
aI33
aI28
aI21
aI22
aI29
aI19
aI28
aI35
aI39
aI36
aI30
aI20
aI34
aI29
aI39
aI36
aI23
aI26
aI22
aI31
aI20
aI24
aI26
aI36
aI27
aI21
aI29
aI29
aI23
aI26
aI22
aI43
aI23
aI30
aI21
aI22
aI27
aI30
aI34
aI26
aI26
aI28
aI26
aI26
aI22
aI29
aI34
aI37
aI31
aI27
aI32
aI28
aI30
aI34
aI29
aI16
aI24
aI19
aI18
aI35
aI37
aI18
aI33
aI32
aI21
aI32
aI44
aI21
aI36
aI21
aI21
aI25
aI22
aI25
aI32
aI23
aI29
aI29
aI38
aI33
aI26
aI26
aI22
aI30
aI33
aI28
aI32
aI32
aI38
aI24
aI32
aI29
aI26
aI31
aI22
aI28
aI42
aI25
aI28
aI35
aI38
aI24
aI27
aI36
aI18
aI23
aI33
aI30
aI27
aI28
aI43
aI25
aI22
aI30
aI22
aI24
aI35
aI26
aI25
aI18
aI50
aI32
aI17
aI52
aI23
aI20
aI20
aI23
aI25
aI34
aI37
aI30
aI25
aI22
aI29
aI27
aI28
aI29
aI23
aI32
aI25
aI24
aI30
aI48
aI32
aI27
aI27
aI23
aI32
aI27
aI37
aI21
aI37
aI23
aI24
aI23
aI37
aI24
aI29
aI29
aI32
aI32
aI36
aI25
aI29
aI22
aI29
aI21
aI28
aI28
aI28
aI29
aI24
aI27
aI31
aI27
aI19
aI37
aI19
aI28
aI19
aI28
aI27
aI23
aI38
aI29
aI29
aI54
aI32
aI24
aI38
aI21
aI22
aI58
aI25
aI23
aI30
aI24
aI12
aI27
aI52
aI37
aI30
aI23
aI41
aI46
aI34
aI24
aI26
aI38
aI26
aI35
aI32
aI32
aI28
aI30
aI40
aI26
aI34
aI35
aI45
aI29
aI26
aI38
aI33
aI34
aI27
aI24
aI31
aI25
aI19
aI21
aI30
aI19
aI40
aI21
aI23
aI24
aI42
aI35
aI32
aI23
aI32
aI37
aI30
aI30
aI26
aI33
aI34
aI37
aI25
aI34
aI25
aI21
aI59
aI19
aI37
aI26
aI26
aI25
aI20
aI24
aI26
aI20
aI28
aI26
aI33
aI26
aI19
aI24
aI25
aI30
aI39
aI30
aI27
aI26
aI26
aI19
aI22
aI23
aI26
aI21
aI13
aI29
aI35
aI27
aI25
aI20
aI27
aI22
aI30
aI27
aI23
aI18
aI42
aI38
aI32
aI51
aI33
aI25
aI23
aI30
aI26
aI32
aI27
aI24
aI36
aI33
aI28
aI26
aI17
aI23
aI30
aI30
aI37
aI20
aI52
aI23
aI29
aI19
aI31
aI27
aI32
aI36
aI39
aI43
aI31
aI28
aI43
aI19
aI19
aI24
aI28
aI31
aI27
aI33
aI19
aI22
aI19
aI25
aI31
aI18
aI27
aI24
aI21
aI34
aI29
aI30
aI35
aI26
aI34
aI27
aI42
aI20
aI29
aI35
aI21
aI20
aI29
aI26
aI20
aI40
aI30
aI31
aI38
aI35
aI30
aI42
aI32
aI27
aI20
aI22
aI28
aI20
aI23
aI49
aI25
aI23
aI31
aI22
aI31
aI18
aI28
aI24
aI31
aI31
aI24
aI23
aI29
aI21
aI17
aI28
aI39
aI23
aI28
aI21
aI38
aI22
aI37
aI54
aI28
aI26
aI31
aI37
aI29
aI28
aI38
aI24
aI24
aI22
aI31
aI25
aI25
aI20
aI27
aI20
aI32
aI39
aI32
aI23
aI23
aI40
aI33
aI34
aI34
aI28
aI42
aI25
aI18
aI27
aI32
aI24
aI22
aI28
aI26
aI23
aI19
aI27
aI26
aI28
aI22
aI18
aI22
aI41
aI30
aI18
aI38
aI29
aI29
aI26
aI37
aI20
aI20
aI34
aI22
aI27
aI36
aI22
aI27
aI26
aI12
aI36
aI50
aI23
aI22
aI38
aI40
aI38
aI40
aI29
aI17
aI27
aI29
aI26
aI20
aI32
aI29
aI22
aI26
aI27
aI29
aI23
aI35
aI27
aI25
aI43
aI37
aI23
aI23
aI21
aI27
aI29
aI23
aI33
aI28
aI20
aI22
aI20
aI33
aI17
aI35
aI37
aI37
aI30
aI29
aI23
aI27
aI21
aI32
aI26
aI29
aI30
aI28
aI28
aI28
aI20
aI27
aI23
aI17
aI18
aI37
aI30
aI30
aI22
aI23
aI21
aI27
aI30
aI23
aI21
aI31
aI31
aI25
aI20
aI25
aI18
aI27
aI24
aI21
aI18
aI20
aI24
aI23
aI28
aI24
aI21
aI23
aI23
aI29
aI20
aI24
aI37
aI19
aI32
aI36
aI28
aI36
aI22
aI29
aI36
aI35
aI39
aI26
aI20
aI26
aI26
aI32
aI25
aI29
aI23
aI18
aI40
aI23
aI30
aI21
aI31
aI24
aI20
aI44
aI21
aI32
aI41
aI31
aI27
aI30
aI32
aI32
aI27
aI25
aI32
aI24
aI24
aI25
aI24
aI38
aI25
aI26
aI29
aI15
aI42
aI32
aI49
aI22
aI21
aI23
aI23
aI26
aI36
aI33
aI39
aI30
aI28
aI32
aI23
aI20
aI44
aI46
aI23
aI17
aI32
aI32
aI22
aI23
aI16
aI33
aI21
aI36
aI24
aI37
aI26
aI39
aI29
aI27
aI24
aI51
aI28
aI25
aI32
aI22
aI28
aI38
aI16
aI30
aI30
aI28
aI26
aI38
aI24
aI23
aI23
aI35
aI30
aI24
aI19
aI28
aI24
aI32
aI21
aI30
aI22
aI35
aI20
aI29
aI23
aI24
aI24
aI37
aI33
aI26
aI29
aI19
aI39
aI48
aI27
aI26
aI25
aI23
aI28
aI34
aI24
aI29
aI27
aI23
aI20
aI27
aI26
aI27
aI20
aI28
aI20
aI28
aI24
aI21
aI27
aI22
aI24
aI24
aI34
aI28
aI26
aI23
aI24
aI28
aI29
aI28
aI31
aI32
aI29
aI29
aI43
aI25
aI25
aI20
aI29
aI24
aI28
aI26
aI18
aI34
aI31
aI21
aI26
aI14
aI34
aI22
aI31
aI24
aI30
aI32
aI22
aI26
aI20
aI24
aI26
aI31
aI35
aI36
aI26
aI21
aI33
aI31
aI23
aI28
aI34
aI43
aI33
aI29
aI44
aI27
aI30
aI25
aI21
aI39
aI34
aI32
aI24
aI42
aI45
aI29
aI25
aI35
aI29
aI61
aI34
aI40
aI23
aI38
aI28
aI24
aI37
aI44
aI42
aI35
aI53
aI36
aI31
aI29
aI26
aI23
aI47
aI31
aI29
aI27
aI31
aI49
aI29
aI24
aI31
aI40
aI28
aI32
aI19
aI23
aI20
aI26
aI22
aI27
aI18
aI27
aI32
aI28
aI19
aI17
aI23
aI27
aI20
aI18
aI21
aI33
aI26
aI22
aI21
aI26
aI20
aI30
aI20
aI34
aI25
aI25
aI29
aI24
aI33
aI31
aI28
aI26
aI30
aI33
aI31
aI39
aI30
aI26
aI18
aI27
aI54
aI24
aI27
aI28
aI24
aI27
aI39
aI22
aI23
aI25
aI51
aI28
aI24
aI21
aI27
aI28
aI36
aI36
aI22
aI25
aI26
aI28
aI18
aI27
aI30
aI24
aI31
aI48
aI31
aI35
aI31
aI37
aI23
aI21
aI23
aI25
aI26
aI23
aI20
aI30
aI25
aI20
aI35
aI29
aI27
aI26
aI42
aI25
aI43
aI27
aI23
aI29
aI28
aI35
aI23
aI21
aI27
aI15
aI34
aI25
aI34
aI20
aI29
aI43
aI24
aI28
aI36
aI33
aI33
aI21
aI28
aI23
aI31
aI28
aI21
aI34
aI23
aI25
aI25
aI17
aI25
aI31
aI20
aI31
aI34
aI30
aI25
aI26
aI28
aI35
aI28
aI24
aI28
aI29
aI33
aI27
aI21
aI36
aI25
aI45
aI36
aI38
aI34
aI23
aI31
aI24
aI23
aI32
aI21
aI33
aI22
aI17
aI21
aI28
aI35
aI22
aI41
aI19
aI32
aI40
aI21
aI20
aI27
aI36
aI27
aI27
aI25
aI24
aI36
aI38
aI42
aI50
aI26
aI38
aI21
aI29
aI31
aI33
aI39
aI36
aI41
aI37
aI33
aI28
aI29
aI18
aI28
aI20
aI26
aI30
aI26
aI32
aI34
aI19
aI23
aI34
aI18
aI22
aI24
aI23
aI25
aI24
aI26
aI35
aI33
aI19
aI21
aI24
aI16
aI25
aI39
aI26
aI32
aI24
aI21
aI13
aI32
aI24
aI24
aI34
aI41
aI34
aI25
aI38
aI27
aI25
aI29
aI22
aI27
aI24
aI20
aI28
aI33
aI24
aI29
aI27
aI20
aI29
aI28
aI25
aI28
aI30
aI34
aI33
aI36
aI24
aI17
aI30
aI48
aI23
aI30
aI25
aI26
aI22
aI38
aI13
aI22
aI24
aI32
aI22
aI31
aI19
aI22
aI29
aI25
aI27
aI24
aI25
aI31
aI31
aI30
aI28
aI32
aI34
aI25
aI36
aI29
aI28
aI26
aI21
aI37
aI26
aI20
aI22
aI23
aI32
aI19
aI24
aI23
aI22
aI19
aI21
aI27
aI23
aI22
aI22
aI28
aI30
aI38
aI22
aI30
aI25
aI24
aI34
aI45
aI41
aI28
aI35
aI38
aI25
aI43
aI28
aI28
aI30
aI33
aI35
aI20
aI27
aI28
aI32
aI29
aI48
aI23
aI16
aI26
aI39
aI28
aI21
aI27
aI44
aI21
aI25
aI44
aI16
aI24
aI28
aI27
aI23
aI21
aI25
aI50
aI39
aI23
aI25
aI26
aI60
aI20
aI31
aI27
aI53
aI37
aI37
aI24
aI30
aI26
aI20
aI42
aI33
aI38
aI35
aI32
aI31
aI25
aI28
aI36
aI31
aI25
aI45
aI35
aI31
aI24
aI30
aI34
aI28
aI24
aI25
aI25
aI21
aI23
aI26
aI19
aI38
aI32
aI22
aI24
aI21
aI21
aI39
aI18
aI20
aI28
aI32
aI29
aI26
aI25
aI29
aI57
aI20
aI28
aI31
aI18
aI22
aI39
aI30
aI27
aI24
aI52
aI40
aI21
aI32
aI22
aI29
aI19
aI40
aI19
aI28
aI28
aI24
aI23
aI43
aI24
aI17
aI40
aI35
aI24
aI25
aI21
aI21
aI29
aI23
aI24
aI19
aI20
aI20
aI33
aI27
aI23
aI37
aI26
aI43
aI37
aI31
aI17
aI20
aI33
aI19
aI26
aI23
aI25
aI22
aI27
aI33
aI27
aI22
aI30
aI37
aI19
aI26
aI22
aI20
aI25
aI20
aI20
aI17
aI27
aI38
aI24
aI33
aI38
aI32
aI21
aI22
aI22
aI32
aI31
aI21
aI28
aI27
aI27
aI23
aI29
aI34
aI16
aI19
aI27
aI17
aI19
aI19
aI20
aI46
aI44
aI32
aI27
aI25
aI24
aI30
aI27
aI26
aI22
aI29
aI44
aI35
aI23
aI19
aI32
aI37
aI14
aI33
aI23
aI22
aI30
aI22
aI30
aI27
aI28
aI30
aI25
aI21
aI24
aI24
aI25
aI23
aI27
aI32
aI17
aI21
aI44
aI26
aI25
aI22
aI27
aI43
aI22
aI53
aI28
aI18
aI31
aI25
aI33
aI41
aI21
aI38
aI34
aI26
aI22
aI25
aI28
aI25
aI44
aI36
aI35
aI28
aI27
aI30
aI29
aI29
aI35
aI41
aI24
aI17
aI23
aI21
aI36
aI25
aI41
aI48
aI35
aI37
aI26
aI27
aI18
aI32
aI31
aI21
aI24
aI33
aI31
aI29
aI22
aI27
aI20
aI26
aI24
aI22
aI33
aI17
aI19
aI23
aI20
aI23
aI41
aI20
aI22
aI34
aI33
aI17
aI28
aI26
aI28
aI23
aI23
aI25
aI23
aI19
aI21
aI20
aI32
aI20
aI36
aI24
aI21
aI27
aI21
aI31
aI22
aI21
aI27
aI24
aI26
aI19
aI29
aI33
aI33
aI25
aI29
aI28
aI36
aI22
aI42
aI35
aI27
aI26
aI21
aI26
aI33
aI22
aI36
aI27
aI20
aI31
aI26
aI28
aI30
aI38
aI19
aI30
aI22
aI23
aI27
aI24
aI24
aI28
aI25
aI23
aI25
aI24
aI30
aI23
aI29
aI47
aI28
aI22
aI32
aI37
aI25
aI29
aI25
aI19
aI25
aI19
aI20
aI33
aI20
aI25
aI22
aI33
aI20
aI24
aI22
aI16
aI27
aI37
aI23
aI17
aI20
aI35
aI21
aI29
aI35
aI23
aI32
aI21
aI17
aI26
aI29
aI25
aI19
aI19
aI28
aI19
aI20
aI25
aI22
aI33
aI20
aI19
aI31
aI24
aI19
aI41
aI37
aI30
aI36
aI20
aI21
aI33
aI32
aI29
aI28
aI22
aI34
aI35
aI25
aI20
aI23
aI30
aI23
aI17
aI20
aI24
aI24
aI23
aI24
aI25
aI29
aI25
aI23
aI21
aI24
aI27
aI33
aI19
aI22
aI45
aI24
aI35
aI29
aI18
aI23
aI46
aI20
aI25
aI41
aI24
aI30
aI25
aI28
aI31
aI22
aI26
aI26
aI28
aI26
aI33
aI29
aI21
aI25
aI30
aI22
aI24
aI53
aI32
aI38
aI19
aI23
aI28
aI27
aI26
aI27
aI35
aI34
aI20
aI27
aI24
aI29
aI25
aI27
aI19
aI37
aI20
aI23
aI21
aI27
aI22
aI22
aI57
aI21
aI22
aI22
aI19
aI27
aI31
aI20
aI38
aI33
aI26
aI31
aI18
aI21
aI29
aI22
aI30
aI21
aI39
aI19
aI11
aI28
aI26
aI32
aI24
aI26
aI38
aI31
aI14
aI25
aI25
aI17
aI19
aI28
aI34
aI14
aI46
aI22
aI42
aI25
aI37
aI21
aI21
aI19
aI38
aI40
aI24
aI23
aI17
aI22
aI29
aI29
aI21
aI40
aI19
aI30
aI37
aI24
aI28
aI17
aI23
aI29
aI19
aI25
aI27
aI34
aI26
aI29
aI21
aI25
aI21
aI29
aI21
aI26
aI20
aI24
aI21
aI21
aI36
aI24
aI36
aI31
aI27
aI33
aI23
aI25
aI30
aI30
aI15
aI24
aI18
aI25
aI23
aI28
aI29
aI20
aI36
aI22
aI14
aI59
aI23
aI17
aI22
aI47
aI27
aI25
aI22
aI43
aI37
aI44
aI20
aI20
aI18
aI19
aI19
aI32
aI24
aI30
aI20
aI29
aI22
aI19
aI34
aI17
aI33
aI34
aI20
aI26
aI25
aI22
aI19
aI27
aI27
aI25
aI34
aI20
aI25
aI25
aI24
aI33
aI30
aI25
aI24
aI19
aI21
aI32
aI22
aI32
aI23
aI20
aI18
aI25
aI38
aI28
aI31
aI18
aI28
aI26
aI24
aI20
aI14
aI23
aI32
aI29
aI20
aI25
aI39
aI48
aI25
aI25
aI17
aI54
aI32
aI19
aI19
aI34
aI26
aI28
aI21
aI28
aI34
aI31
aI19
aI34
aI31
aI24
aI36
aI37
aI31
aI27
aI19
aI32
aI17
aI21
aI36
aI28
aI31
aI21
aI44
aI18
aI38
aI39
aI28
aI34
aI18
aI31
aI19
aI24
aI30
aI23
aI31
aI25
aI19
aI22
aI27
aI42
aI26
aI29
aI28
aI18
aI27
aI31
aI22
aI29
aI19
aI37
aI24
aI30
aI20
aI24
aI47
aI29
aI26
aI19
aI19
aI18
aI21
aI17
aI23
aI26
aI27
aI18
aI19
aI20
aI27
aI21
aI28
aI19
aI24
aI26
aI26
aI16
aI25
aI18
aI21
aI23
aI18
aI21
aI24
aI31
aI32
aI23
aI20
aI23
aI31
aI29
aI24
aI31
aI17
aI25
aI42
aI28
aI21
aI44
aI22
aI36
aI24
aI23
aI22
aI22
aI36
aI32
aI21
aI29
aI32
aI19
aI21
aI29
aI27
aI27
aI24
aI23
aI57
aI20
aI29
aI24
aI23
aI28
aI31
aI37
aI22
aI42
aI19
aI20
aI30
aI21
aI36
aI20
aI21
aI19
aI26
aI27
aI22
aI25
aI36
aI33
aI52
aI23
aI25
aI21
aI21
aI41
aI22
aI27
aI17
aI16
aI23
aI20
aI25
aI24
aI19
aI34
aI21
aI20
aI17
aI28
aI28
aI30
aI28
aI17
aI21
aI25
aI27
aI21
aI20
aI21
aI29
aI31
aI40
aI18
aI23
aI26
aI31
aI32
aI21
aI29
aI32
aI27
aI25
aI23
aI24
aI30
aI43
aI25
aI24
aI24
aI25
aI27
aI24
aI23
aI44
aI20
aI33
aI11
aI26
aI27
aI19
aI21
aI19
aI28
aI17
aI17
aI30
aI35
aI27
aI24
aI22
aI25
aI29
aI38
aI22
aI33
aI34
aI22
aI21
aI47
aI27
aI26
aI24
aI38
aI29
aI39
aI19
aI30
aI25
aI34
aI19
aI39
aI21
aI21
aI33
aI24
aI22
aI29
aI42
aI20
aI28
aI30
aI17
aI20
aI26
aI22
aI30
aI31
aI32
aI21
aI28
aI28
aI24
aI25
aI15
aI41
aI27
aI27
aI35
aI31
aI21
aI20
aI20
aI36
aI41
aI19
aI19
aI31
aI22
aI30
aI31
aI24
aI32
aI54
aI31
aI22
aI30
aI25
aI17
aI24
aI28
aI26
aI26
aI25
aI23
aI36
aI18
aI23
aI24
aI31
aI38
aI24
aI29
aI20
aI20
aI21
aI19
aI28
aI21
aI25
aI27
aI18
aI24
aI56
aI42
aI19
aI31
aI27
aI26
aI34
aI24
aI22
aI43
aI26
aI35
aI25
aI29
aI34
aI39
aI24
aI24
aI26
aI30
aI29
aI23
aI27
aI31
aI19
aI26
aI22
aI26
aI27
aI19
aI24
aI30
aI33
aI46
aI21
aI25
aI32
aI36
aI23
aI19
aI19
aI12
aI25
aI30
aI21
aI25
aI22
aI34
aI22
aI23
aI22
aI25
aI26
aI19
aI33
aI42
aI34
aI19
aI38
aI18
aI23
aI24
aI38
aI23
aI19
aI27
aI29
aI19
aI41
aI51
aI32
aI40
aI29
aI44
aI30
aI26
aI22
aI24
aI21
aI28
aI24
aI18
aI24
aI28
aI24
aI33
aI28
aI24
aI31
aI45
aI29
aI30
aI37
aI19
aI22
aI21
aI28
aI34
aI28
aI24
aI30
aI19
aI20
aI16
aI20
aI24
aI18
aI23
aI24
aI22
aI22
aI22
aI28
aI39
aI32
aI19
aI24
aI26
aI14
aI31
aI24
aI27
aI21
aI38
aI30
aI23
aI24
aI24
aI23
aI27
aI22
aI32
aI21
aI32
aI20
aI32
aI32
aI23
aI27
aI23
aI31
aI24
aI30
aI21
aI31
aI22
aI40
aI30
aI38
aI23
aI28
aI24
aI28
aI24
aI24
aI23
aI22
aI21
aI39
aI36
aI24
aI29
aI29
aI23
aI33
aI25
aI26
aI36
aI19
aI29
aI28
aI28
aI22
aI24
aI23
aI23
aI20
aI29
aI22
aI24
aI24
aI34
aI20
aI23
aI25
aI28
aI25
aI25
aI20
aI28
aI23
aI25
aI23
aI28
aI22
aI28
aI24
aI22
aI26
aI39
aI54
aI22
aI20
aI35
aI25
aI30
aI26
aI23
aI24
aI37
aI35
aI25
aI30
aI16
aI40
aI29
aI23
aI24
aI28
aI29
aI27
aI22
aI29
aI31
aI30
aI22
aI20
aI23
aI25
aI21
aI38
aI24
aI29
aI34
aI24
aI25
aI37
aI26
aI19
aI23
aI23
aI36
aI37
aI37
aI23
aI25
aI36
aI31
aI31
aI29
aI29
aI21
aI39
aI21
aI33
aI34
aI16
aI31
aI40
aI27
aI32
aI29
aI20
aI46
aI46
aI27
aI34
aI16
aI34
aI29
aI29
aI27
aI41
aI32
aI26
aI29
aI21
aI27
aI23
aI19
aI21
aI19
aI34
aI23
aI24
aI26
aI31
aI25
aI18
aI42
aI32
aI22
aI33
aI18
aI24
aI20
aI23
aI29
aI19
aI35
aI20
aI38
aI22
aI31
aI26
aI19
aI19
aI23
aI21
aI27
aI37
aI29
aI25
aI24
aI34
aI34
aI26
aI27
aI27
aI22
aI31
aI29
aI26
aI22
aI30
aI31
aI21
aI24
aI22
aI29
aI25
aI17
aI29
aI28
aI21
aI19
aI27
aI21
aI26
aI21
aI16
aI20
aI25
aI21
aI51
aI28
aI23
aI31
aI35
aI18
aI33
aI21
aI32
aI18
aI30
aI24
aI21
aI19
aI35
aI22
aI26
aI38
aI16
aI47
aI24
aI22
aI32
aI19
aI19
aI16
aI32
aI24
aI16
aI18
aI25
aI20
aI27
aI27
aI39
aI37
aI24
aI19
aI26
aI26
aI24
aI17
aI21
aI24
aI28
aI24
aI22
aI37
aI22
aI23
aI24
aI26
aI23
aI22
aI20
aI17
aI31
aI34
aI22
aI24
aI23
aI24
aI36
aI29
aI32
aI29
aI33
aI34
aI35
aI20
aI20
aI16
aI18
aI32
aI23
aI32
aI26
aI30
aI17
aI39
aI20
aI19
aI21
aI27
aI26
aI29
aI32
aI22
aI25
aI26
aI30
aI24
aI21
aI25
aI30
aI17
aI19
aI29
aI23
aI19
aI30
aI18
aI20
aI20
aI31
aI30
aI20
aI19
aI39
aI29
aI44
aI15
aI42
aI29
aI26
aI24
aI23
aI29
aI23
aI28
aI30
aI23
aI36
aI39
aI25
aI18
aI23
aI28
aI26
aI27
aI32
aI22
aI26
aI30
aI39
aI21
aI24
aI33
aI28
aI29
aI43
aI29
aI21
aI24
aI43
aI19
aI25
aI27
aI20
aI26
aI21
aI23
aI26
aI34
aI22
aI26
aI32
aI66
aI29
aI25
aI23
aI31
aI77
aI25
aI26
aI28
aI27
aI22
aI30
aI22
aI22
aI20
aI30
aI43
aI24
aI29
aI26
aI22
aI26
aI26
aI36
aI24
aI23
aI27
aI29
aI33
aI28
aI27
aI21
aI22
aI27
aI39
aI26
aI21
aI20
aI27
aI18
aI19
aI31
aI16
aI32
aI23
aI22
aI23
aI32
aI28
aI29
aI21
aI19
aI26
aI31
aI23
aI23
aI36
aI28
aI31
aI21
aI20
aI19
aI40
aI30
aI23
aI32
aI24
aI36
aI17
aI21
aI18
aI36
aI21
aI35
aI17
aI25
aI20
aI33
aI34
aI20
aI19
aI20
aI18
aI31
aI26
aI32
aI17
aI18
aI31
aI35
aI23
aI17
aI19
aI43
aI33
aI28
aI29
aI24
aI34
aI20
aI26
aI24
aI31
aI16
aI15
aI20
aI24
aI29
aI23
aI19
aI20
aI20
aI28
aI26
aI20
aI28
aI18
aI20
aI19
aI18
aI19
aI27
aI31
aI19
aI24
aI32
aI33
aI23
aI24
aI22
aI17
aI34
aI21
aI22
aI22
aI28
aI28
aI22
aI22
aI31
aI20
aI26
aI21
aI23
aI39
aI19
aI32
aI21
aI24
aI26
aI19
aI40
aI59
aI26
aI28
aI19
aI23
aI23
aI40
aI22
aI26
aI24
aI32
aI17
aI37
aI19
aI25
aI20
aI29
aI46
aI30
aI32
aI25
aI29
aI19
aI20
aI22
aI20
aI22
aI27
aI21
aI17
aI25
aI30
aI44
aI17
aI21
aI26
aI20
aI19
aI25
aI38
aI24
aI25
aI28
aI21
aI27
aI21
aI26
aI27
aI28
aI25
aI29
aI25
aI36
aI24
aI27
aI19
aI19
aI42
aI17
aI21
aI22
aI34
aI25
aI21
aI24
aI33
aI39
aI29
aI18
aI21
aI44
aI29
aI29
aI39
aI25
aI21
aI38
aI20
aI27
aI20
aI19
aI21
aI30
aI25
aI25
aI21
aI23
aI18
aI25
aI25
aI30
aI21
aI25
aI33
aI28
aI24
aI26
aI38
aI21
aI42
aI20
aI30
aI31
aI26
aI21
aI20
aI26
aI27
aI26
aI22
aI19
aI21
aI25
aI18
aI11
aI27
aI24
aI39
aI29
aI17
aI22
aI32
aI33
aI37
aI23
aI21
aI23
aI25
aI40
aI33
aI22
aI21
aI41
aI18
aI34
aI30
aI22
aI19
aI26
aI45
aI23
aI43
aI25
aI22
aI44
aI27
aI28
aI15
aI24
aI39
aI23
aI30
aI19
aI29
aI31
aI25
aI21
aI20
aI20
aI31
aI22
aI17
aI32
aI30
aI25
aI22
aI27
aI26
aI34
aI20
aI24
aI31
aI38
aI20
aI29
aI37
aI22
aI22
aI28
aI25
aI26
aI19
aI21
aI25
aI25
aI42
aI21
aI27
aI13
aI26
aI25
aI23
aI25
aI29
aI29
aI22
aI27
aI25
aI22
aI24
aI40
aI19
aI30
aI26
aI26
aI25
aI31
aI20
aI41
aI29
aI25
aI32
aI26
aI29
aI34
aI37
aI21
aI27
aI29
aI28
aI27
aI21
aI20
aI34
aI22
aI23
aI20
aI27
aI25
aI26
aI29
aI38
aI22
aI18
aI22
aI27
aI21
aI25
aI27
aI24
aI32
aI34
aI31
aI25
aI23
aI29
aI35
aI23
aI19
aI32
aI16
aI37
aI26
aI30
aI21
aI22
aI27
aI44
aI22
aI24
aI32
aI39
aI38
aI28
aI14
aI26
aI29
aI17
aI19
aI22
aI30
aI19
aI24
aI38
aI33
aI23
aI36
aI20
aI19
aI23
aI18
aI16
aI30
aI27
aI20
aI18
aI24
aI20
aI25
aI21
aI23
aI30
aI15
aI19
aI25
aI24
aI21
aI27
aI17
aI33
aI29
aI23
aI17
aI25
aI20
aI46
aI32
aI30
aI43
aI30
aI23
aI23
aI20
aI19
aI21
aI20
aI23
aI27
aI37
aI33
aI27
aI28
aI18
aI17
aI30
aI21
aI25
aI30
aI18
aI25
aI19
aI27
aI17
aI19
aI26
aI28
aI35
aI31
aI21
aI27
aI25
aI19
aI16
aI23
aI22
aI20
aI24
aI24
aI24
aI20
aI17
aI19
aI33
aI23
aI30
aI20
aI22
aI17
aI25
aI31
aI22
aI20
aI24
aI24
aI27
aI18
aI23
aI22
aI28
aI20
aI27
aI28
aI26
aI45
aI28
aI42
aI32
aI18
aI31
aI31
aI23
aI46
aI20
aI23
aI25
aI22
aI16
aI21
aI36
aI20
aI17
aI24
aI22
aI23
aI25
aI25
aI24
aI52
aI25
aI19
aI38
aI15
aI19
aI21
aI27
aI29
aI17
aI33
aI34
aI19
aI22
aI40
aI22
aI17
aI27
aI20
aI18
aI29
aI21
aI22
aI39
aI23
aI22
aI28
aI25
aI24
aI22
aI25
aI24
aI25
aI25
aI43
aI33
aI21
aI24
aI27
aI24
aI21
aI32
aI23
aI22
aI18
aI26
aI25
aI26
aI36
aI33
aI20
aI53
aI40
aI23
aI23
aI17
aI23
aI28
aI24
aI17
aI27
aI26
aI20
aI19
aI44
aI22
aI19
aI20
aI30
aI23
aI17
aI36
aI28
aI28
aI17
aI21
aI22
aI18
aI18
aI15
aI19
aI21
aI32
aI29
aI21
aI36
aI33
aI15
aI26
aI28
aI28
aI21
aI28
aI20
aI21
aI33
aI40
aI28
aI20
aI17
aI22
aI30
aI26
aI33
aI22
aI25
aI22
aI22
aI34
aI20
aI18
aI25
aI34
aI24
aI37
aI27
aI19
aI39
aI17
aI29
aI28
aI29
aI25
aI22
aI27
aI30
aI24
aI35
aI20
aI25
aI24
aI24
aI21
aI29
aI41
aI20
aI31
aI38
aI18
aI28
aI27
aI26
aI22
aI30
aI22
aI24
aI23
aI27
aI39
aI28
aI26
aI17
aI18
aI21
aI24
aI27
aI18
aI22
aI12
aI31
aI40
aI17
aI22
aI38
aI20
aI29
aI26
aI16
aI18
aI22
aI29
aI27
aI22
aI27
aI21
aI18
aI32
aI37
aI20
aI25
aI30
aI25
aI19
aI18
aI38
aI20
aI16
aI18
aI28
aI27
aI25
aI27
aI32
aI18
aI27
aI45
aI30
aI26
aI22
aI28
aI32
aI37
aI29
aI19
aI28
aI30
aI24
aI26
aI30
aI22
aI29
aI30
aI19
aI28
aI28
aI20
aI37
aI31
aI40
aI18
aI32
aI33
aI20
aI28
aI23
aI36
aI28
aI31
aI21
aI20
aI29
aI24
aI26
aI22
aI44
aI32
aI22
aI17
aI21
aI37
aI26
aI12
aI28
aI34
aI35
aI26
aI20
aI45
aI23
aI20
aI18
aI21
aI19
aI40
aI22
aI41
aI29
aI19
aI25
aI24
aI20
aI22
aI35
aI22
aI15
aI24
aI22
aI24
aI32
aI22
aI16
aI31
aI24
aI22
aI22
aI35
aI28
aI26
aI18
aI18
aI37
aI27
aI29
aI25
aI31
aI20
aI27
aI21
aI23
aI20
aI42
aI20
aI23
aI24
aI20
aI28
aI20
aI18
aI34
aI38
aI32
aI16
aI36
aI23
aI20
aI20
aI24
aI32
aI22
aI43
aI23
aI18
aI20
aI29
aI28
aI35
aI29
aI24
aI22
aI16
aI25
aI29
aI30
aI28
aI23
aI28
aI20
aI28
aI31
aI32
aI35
aI32
aI36
aI22
aI28
aI24
aI29
aI35
aI28
aI20
aI28
aI24
aI21
aI19
aI19
aI21
aI38
aI21
aI31
aI27
aI18
aI27
aI18
aI28
aI26
aI19
aI19
aI22
aI22
aI23
aI33
aI27
aI34
aI25
aI31
aI29
aI41
aI33
aI25
aI27
aI19
aI27
aI16
aI22
aI19
aI25
aI22
aI24
aI22
aI25
aI23
aI42
aI27
aI26
aI19
aI37
aI30
aI28
aI38
aI19
aI26
aI10
aI21
aI31
aI17
aI19
aI29
aI26
aI25
aI31
aI26
aI15
aI31
aI40
aI22
aI24
aI15
aI33
aI18
aI18
aI32
aI43
aI38
aI26
aI25
aI21
aI23
aI37
aI19
aI18
aI48
aI23
aI27
aI28
aI21
aI30
aI22
aI19
aI32
aI22
aI21
aI17
aI31
aI18
aI21
aI25
aI41
aI21
aI23
aI26
aI19
aI23
aI21
aI21
aI29
aI18
aI25
aI19
aI23
aI35
aI27
aI38
aI26
aI29
aI26
aI24
aI23
aI31
aI25
aI29
aI25
aI30
aI28
aI14
aI23
aI22
aI22
aI23
aI17
aI21
aI31
aI19
aI19
aI41
aI26
aI34
aI24
aI36
aI20
aI31
aI28
aI17
aI25
aI19
aI52
aI28
aI32
aI31
aI23
aI35
aI31
aI26
aI27
aI36
aI30
aI22
aI21
aI38
aI31
aI19
aI20
aI24
aI26
aI22
aI20
aI19
aI21
aI17
aI28
aI40
aI26
aI23
aI46
aI42
aI22
aI20
aI17
aI30
aI26
aI23
aI24
aI33
aI21
aI29
aI28
aI21
aI15
aI27
aI16
aI25
aI36
aI21
aI38
aI26
aI21
aI42
aI39
aI19
aI24
aI38
aI41
aI26
aI29
aI22
aI35
aI30
aI27
aI24
aI26
aI30
aI35
aI22
aI27
aI22
aI24
aI30
aI29
aI28
aI27
aI37
aI17
aI19
aI39
aI27
aI39
aI17
aI18
aI26
aI25
aI25
aI18
aI17
aI22
aI24
aI25
aI45
aI11
aI33
aI19
aI20
aI25
aI24
aI40
aI35
aI24
aI26
aI22
aI14
aI22
aI25
aI23
aI25
aI20
aI21
aI40
aI28
aI44
aI26
aI30
aI31
aI19
aI24
aI28
aI25
aI25
aI27
aI20
aI28
aI28
aI19
aI32
aI17
aI26
aI18
aI22
aI17
aI31
aI27
aI24
aI25
aI24
aI22
aI16
aI27
aI24
aI37
aI22
aI14
aI19
aI21
aI24
aI26
aI33
aI21
aI28
aI20
aI27
aI17
aI30
aI20
aI25
aI25
aI20
aI21
aI28
aI34
aI27
aI18
aI31
aI23
aI19
aI28
aI22
aI19
aI24
aI34
aI26
aI42
aI33
aI22
aI23
aI24
aI13
aI20
aI21
aI27
aI19
aI26
aI17
aI24
aI20
aI25
aI41
aI24
aI19
aI35
aI22
aI22
aI18
aI19
aI22
aI24
aI33
aI34
aI29
aI20
aI21
aI33
aI18
aI16
aI13
aI27
aI20
aI18
aI32
aI23
aI30
aI17
aI18
aI24
aI27
aI31
aI34
aI40
aI23
aI29
aI28
aI18
aI33
aI23
aI19
aI30
aI25
aI31
aI17
aI24
aI22
aI47
aI21
aI12
aI32
aI23
aI25
aI19
aI22
aI33
aI21
aI28
aI28
aI18
aI18
aI26
aI27
aI20
aI29
aI19
aI36
aI19
aI17
aI29
aI39
aI27
aI41
aI18
aI25
aI30
aI21
aI50
aI21
aI34
aI18
aI18
aI27
aI36
aI22
aI41
aI30
aI23
aI15
aI22
aI21
aI27
aI16
aI24
aI28
aI41
aI32
aI21
aI17
aI27
aI30
aI30
aI35
aI22
aI24
aI26
aI38
aI23
aI25
aI22
aI31
aI30
aI27
aI49
aI22
aI20
aI21
aI20
aI26
aI23
aI21
aI20
aI21
aI25
aI26
aI28
aI25
aI25
aI33
aI24
aI35
aI22
aI59
aI21
aI25
aI20
aI18
aI28
aI22
aI33
aI29
aI33
aI28
aI22
aI34
aI29
aI24
aI24
aI23
aI23
aI19
aI17
aI27
aI26
aI19
aI19
aI21
aI25
aI26
aI33
aI18
aI23
aI31
aI39
aI26
aI34
aI22
aI21
aI36
aI29
aI31
aI39
aI23
aI21
aI18
aI24
aI17
aI42
aI24
aI24
aI21
aI27
aI21
aI28
aI25
aI24
aI44
aI26
aI20
aI28
aI49
aI22
aI25
aI24
aI27
aI28
aI26
aI17
aI21
aI24
aI21
aI22
aI35
aI20
aI30
aI29
aI27
aI24
aI23
aI17
aI43
aI25
aI29
aI39
aI30
aI36
aI22
aI27
aI23
aI31
aI31
aI28
aI20
aI31
aI28
aI23
aI23
aI23
aI21
aI22
aI18
aI22
aI21
aI39
aI35
aI29
aI20
aI23
aI28
aI19
aI25
aI54
aI22
aI42
aI31
aI39
aI47
aI19
aI34
aI32
aI21
aI30
aI23
aI31
aI19
aI22
aI32
aI19
aI20
aI22
aI25
aI17
aI20
aI22
aI18
aI20
aI21
aI25
aI24
aI32
aI25
aI24
aI22
aI27
aI21
aI23
aI28
aI32
aI19
aI18
aI32
aI43
aI30
aI25
aI17
aI25
aI37
aI37
aI12
aI42
aI25
aI24
aI29
aI27
aI30
aI26
aI38
aI32
aI24
aI31
aI20
aI34
aI33
aI23
aI31
aI20
aI35
aI25
aI31
aI49
aI19
aI22
aI22
aI28
aI20
aI18
aI32
aI21
aI30
aI19
aI25
aI31
aI26
aI25
aI18
aI32
aI19
aI25
aI29
aI25
aI23
aI31
aI25
aI25
aI31
aI31
aI23
aI20
aI20
aI28
aI17
aI22
aI27
aI23
aI17
aI22
aI25
aI31
aI37
aI22
aI22
aI19
aI27
aI37
aI21
aI28
aI21
aI30
aI28
aI15
aI25
aI23
aI39
aI21
aI34
aI21
aI24
aI28
aI18
aI21
aI25
aI20
aI28
aI22
aI19
aI26
aI17
aI29
aI40
aI23
aI19
aI42
aI23
aI27
aI41
aI25
aI17
aI19
aI25
aI23
aI18
aI19
aI21
aI21
aI21
aI21
aI29
aI18
aI25
aI43
aI27
aI33
aI23
aI23
aI29
aI34
aI24
aI28
aI22
aI32
aI37
aI39
aI54
aI14
aI34
aI34
aI31
aI16
aI18
aI24
aI20
aI19
aI18
aI33
aI31
aI27
aI28
aI27
aI20
aI22
aI23
aI26
aI31
aI30
aI27
aI16
aI20
aI32
aI22
aI24
aI21
aI17
aI40
aI31
aI18
aI28
aI22
aI19
aI32
aI20
aI17
aI30
aI23
aI18
aI18
aI27
aI22
aI27
aI25
aI18
aI29
aI23
aI25
aI41
aI22
aI16
aI23
aI22
aI32
aI46
aI27
aI22
aI21
aI27
aI22
aI19
aI17
aI34
aI25
aI22
aI30
aI21
aI18
aI26
aI24
aI27
aI21
aI24
aI39
aI35
aI18
aI46
aI27
aI29
aI26
aI23
aI19
aI22
aI22
aI33
aI25
aI16
aI21
aI33
aI26
aI49
aI30
aI19
aI20
aI25
aI23
aI38
aI22
aI20
aI35
aI21
aI24
aI23
aI18
aI27
aI56
aI39
aI27
aI28
aI25
aI83
aI18
aI36
aI34
aI23
aI26
aI20
aI25
aI23
aI24
aI25
aI16
aI39
aI23
aI26
aI20
aI27
aI25
aI27
aI27
aI26
aI31
aI26
aI22
aI15
aI34
aI23
aI20
aI27
aI25
aI24
aI17
aI39
aI27
aI31
aI29
aI23
aI22
aI20
aI37
aI22
aI36
aI24
aI22
aI22
aI15
aI23
aI56
aI19
aI23
aI13
aI30
aI24
aI22
aI19
aI45
aI19
aI28
aI21
aI28
aI26
aI30
aI40
aI25
aI20
aI19
aI25
aI31
aI24
aI21
aI18
aI22
aI25
aI21
aI23
aI28
aI30
aI34
aI18
aI22
aI34
aI27
aI26
aI20
aI30
aI20
aI29
aI22
aI24
aI18
aI24
aI26
aI20
aI21
aI19
aI20
aI27
aI34
aI26
aI36
aI33
aI17
aI26
aI37
aI27
aI23
aI21
aI21
aI25
aI18
aI22
aI25
aI21
aI22
aI25
aI21
aI23
aI37
aI20
aI21
aI32
aI24
aI24
aI28
aI46
aI28
aI15
aI20
aI29
aI33
aI21
aI27
aI32
aI40
aI22
aI29
aI18
aI17
aI35
aI18
aI34
aI21
aI29
aI30
aI22
aI22
aI22
aI26
aI22
aI27
aI21
aI16
aI20
aI31
aI23
aI28
aI27
aI30
aI36
aI26
aI40
aI27
aI33
aI19
aI27
aI22
aI21
aI32
aI24
aI27
aI18
aI25
aI39
aI21
aI12
aI25
aI25
aI24
aI24
aI24
aI21
aI24
aI27
aI27
aI30
aI27
aI21
aI19
aI23
aI28
aI25
aI23
aI26
aI21
aI25
aI22
aI18
aI22
aI21
aI17
aI38
aI29
aI24
aI30
aI21
aI19
aI19
aI26
aI30
aI25
aI24
aI32
aI37
aI20
aI43
aI38
aI20
aI24
aI23
aI19
aI29
aI21
aI19
aI39
aI24
aI29
aI20
aI25
aI24
aI21
aI38
aI26
aI27
aI21
aI20
aI28
aI20
aI34
aI31
aI28
aI23
aI30
aI26
aI24
aI45
aI20
aI29
aI24
aI17
aI29
aI30
aI20
aI53
aI22
aI22
aI16
aI22
aI30
aI44
aI35
aI30
aI49
aI18
aI28
aI21
aI26
aI22
aI28
aI21
aI28
aI21
aI21
aI29
aI24
aI28
aI26
aI41
aI21
aI26
aI42
aI19
aI22
aI18
aI24
aI27
aI31
aI25
aI25
aI29
aI34
aI28
aI17
aI40
aI38
aI26
aI28
aI21
aI24
aI18
aI32
aI21
aI28
aI25
aI23
aI31
aI21
aI23
aI22
aI21
aI24
aI28
aI17
aI22
aI28
aI27
aI34
aI25
aI22
aI23
aI18
aI25
aI29
aI27
aI34
aI19
aI14
aI57
aI23
aI25
aI34
aI25
aI33
aI21
aI20
aI23
aI16
aI24
aI20
aI21
aI23
aI21
aI27
aI22
aI22
aI17
aI36
aI21
aI32
aI32
aI21
aI32
aI28
aI23
aI35
aI18
aI18
aI20
aI18
aI26
aI27
aI24
aI18
aI23
aI27
aI22
aI30
aI29
aI22
aI16
aI22
aI29
aI36
aI37
aI20
aI21
aI27
aI32
aI17
aI20
aI24
aI32
aI23
aI31
aI19
aI35
aI20
aI47
aI40
aI29
aI28
aI27
aI27
aI19
aI21
aI19
aI23
aI20
aI19
aI18
aI35
aI38
aI26
aI27
aI22
aI26
aI17
aI24
aI22
aI16
aI22
aI31
aI22
aI59
aI27
aI20
aI19
aI23
aI21
aI35
aI20
aI26
aI12
aI22
aI53
aI18
aI29
aI25
aI17
aI26
aI31
aI21
aI21
aI26
aI25
aI19
aI16
aI22
aI31
aI20
aI22
aI30
aI33
aI26
aI30
aI24
aI37
aI24
aI27
aI21
aI27
aI35
aI23
aI30
aI25
aI24
aI29
aI35
aI28
aI29
aI30
aI22
aI42
aI30
aI17
aI22
aI27
aI24
aI28
aI28
aI18
aI26
aI23
aI31
aI28
aI25
aI26
aI18
aI25
aI20
aI24
aI25
aI20
aI17
aI23
aI21
aI30
aI24
aI31
aI25
aI43
aI25
aI28
aI40
aI21
aI25
aI28
aI26
aI19
aI25
aI18
aI23
aI21
aI27
aI24
aI27
aI37
aI37
aI23
aI21
aI26
aI22
aI37
aI24
aI25
aI24
aI36
aI23
aI23
aI20
aI35
aI25
aI30
aI22
aI24
aI30
aI27
aI21
aI31
aI21
aI25
aI20
aI24
aI36
aI25
aI27
aI15
aI18
aI26
aI20
aI21
aI17
aI18
aI19
aI25
aI22
aI26
aI26
aI22
aI33
aI17
aI30
aI20
aI17
aI48
aI18
aI23
aI24
aI24
aI28
aI25
aI19
aI22
aI17
aI33
aI30
aI22
aI45
aI20
aI39
aI47
aI31
aI43
aI41
aI34
aI14
aI23
aI19
aI55
aI26
aI33
aI24
aI27
aI19
aI18
aI44
aI35
aI31
aI43
aI17
aI26
aI22
aI24
aI23
aI23
aI28
aI24
aI24
aI29
aI25
aI17
aI27
aI16
aI33
aI21
aI22
aI17
aI24
aI30
aI25
aI27
aI26
aI20
aI30
aI36
aI17
aI21
aI40
aI25
aI23
aI29
aI22
aI25
aI31
aI29
aI29
aI32
aI38
aI19
aI21
aI30
aI44
aI35
aI19
aI38
aI27
aI33
aI23
aI24
aI23
aI31
aI15
aI23
aI25
aI19
aI23
aI20
aI23
aI20
aI24
aI19
aI20
aI18
aI23
aI30
aI43
aI19
aI22
aI24
aI31
aI29
aI18
aI21
aI19
aI17
aI22
aI14
aI32
aI25
aI28
aI22
aI37
aI25
aI31
aI16
aI15
aI26
aI21
aI27
aI23
aI19
aI27
aI24
aI27
aI18
aI25
aI25
aI29
aI22
aI17
aI18
aI30
aI24
aI31
aI23
aI18
aI41
aI30
aI54
aI20
aI17
aI20
aI21
aI26
aI32
aI28
aI23
aI31
aI40
aI19
aI25
aI26
aI27
aI21
aI20
aI17
aI26
aI24
aI23
aI31
aI27
aI27
aI22
aI21
aI26
aI27
aI38
aI15
aI33
aI27
aI23
aI43
aI19
aI26
aI17
aI35
aI23
aI33
aI23
aI26
aI19
aI24
aI19
aI21
aI29
aI26
aI27
aI22
aI25
aI24
aI21
aI35
aI22
aI28
aI20
aI35
aI28
aI38
aI25
aI26
aI23
aI30
aI30
aI33
aI31
aI18
aI23
aI31
aI24
aI34
aI20
aI22
aI25
aI20
aI22
aI31
aI27
aI28
aI19
aI20
aI34
aI19
aI22
aI36
aI25
aI28
aI16
aI50
aI30
aI16
aI18
aI24
aI28
aI34
aI24
aI23
aI22
aI19
aI31
aI31
aI21
aI24
aI22
aI24
aI38
aI18
aI29
aI25
aI23
aI22
aI21
aI27
aI28
aI26
aI23
aI17
aI29
aI17
aI20
aI22
aI33
aI27
aI21
aI32
aI32
aI24
aI22
aI27
aI20
aI27
aI35
aI49
aI17
aI23
aI33
aI31
aI18
aI30
aI25
aI25
aI25
aI27
aI29
aI25
aI18
aI25
aI25
aI18
aI23
aI18
aI18
aI16
aI20
aI20
aI28
aI38
aI15
aI31
aI16
aI23
aI35
aI23
aI27
aI25
aI20
aI28
aI18
aI26
aI30
aI35
aI21
aI34
aI40
aI21
aI22
aI22
aI20
aI20
aI19
aI27
aI34
aI30
aI32
aI35
aI27
aI25
aI19
aI31
aI30
aI18
aI25
aI25
aI26
aI26
aI25
aI18
aI22
aI19
aI22
aI20
aI21
aI21
aI25
aI27
aI23
aI37
aI21
aI33
aI19
aI19
aI17
aI28
aI25
aI23
aI24
aI21
aI22
aI21
aI17
aI22
aI26
aI21
aI30
aI25
aI24
aI33
aI18
aI27
aI18
aI27
aI16
aI26
aI21
aI23
aI21
aI18
aI20
aI19
aI18
aI19
aI17
aI21
aI34
aI36
aI27
aI19
aI31
aI26
aI21
aI20
aI28
aI25
aI33
aI35
aI23
aI20
aI19
aI28
aI27
aI55
aI31
aI23
aI22
aI29
aI24
aI17
aI26
aI22
aI33
aI23
aI20
aI36
aI27
aI29
aI27
aI27
aI21
aI32
aI19
aI34
aI21
aI24
aI23
aI28
aI22
aI23
aI28
aI24
aI21
aI21
aI17
aI28
aI23
aI35
aI16
aI20
aI31
aI25
aI25
aI29
aI42
aI27
aI21
aI24
aI37
aI23
aI28
aI30
aI25
aI28
aI29
aI28
aI20
aI24
aI20
aI38
aI27
aI24
aI48
aI30
aI23
aI18
aI29
aI31
aI24
aI23
aI32
aI44
aI37
aI22
aI21
aI35
aI23
aI35
aI36
aI38
aI23
aI27
aI21
aI14
aI15
aI27
aI34
aI21
aI29
aI26
aI24
aI40
aI30
aI42
aI30
aI35
aI18
aI35
aI29
aI22
aI21
aI26
aI20
aI39
aI27
aI20
aI21
aI32
aI31
aI17
aI20
aI21
aI21
aI27
aI32
aI16
aI22
aI19
aI26
aI25
aI42
aI17
aI27
aI19
aI18
aI25
aI27
aI18
aI18
aI28
aI24
aI26
aI24
aI32
aI22
aI37
aI23
aI21
aI20
aI24
aI18
aI24
aI26
aI17
aI22
aI26
aI39
aI24
aI28
aI23
aI33
aI23
aI17
aI29
aI19
aI22
aI33
aI23
aI23
aI26
aI22
aI21
aI26
aI37
aI17
aI25
aI21
aI31
aI20
aI25
aI43
aI32
aI23
aI27
aI20
aI31
aI29
aI31
aI35
aI34
aI16
aI16
aI25
aI26
aI27
aI43
aI26
aI17
aI31
aI22
aI17
aI28
aI24
aI29
aI21
aI18
aI30
aI26
aI41
aI23
aI24
aI24
aI19
aI21
aI22
aI26
aI20
aI26
aI23
aI25
aI29
aI24
aI31
aI17
aI26
aI21
aI31
aI28
aI32
aI23
aI18
aI25
aI21
aI23
aI19
aI21
aI24
aI22
aI41
aI21
aI19
aI28
aI21
aI29
aI21
aI34
aI45
aI24
aI17
aI25
aI23
aI23
aI26
aI26
aI29
aI23
aI32
aI19
aI16
aI30
aI24
aI33
aI22
aI29
aI25
aI23
aI18
aI29
aI26
aI24
aI12
aI20
aI27
aI38
aI29
aI24
aI25
aI23
aI20
aI26
aI19
aI22
aI18
aI37
aI20
aI28
aI35
aI24
aI20
aI18
aI38
aI19
aI22
aI20
aI20
aI32
aI26
aI25
aI25
aI19
aI33
aI15
aI20
aI30
aI29
aI27
aI21
aI29
aI19
aI20
aI20
aI38
aI24
aI22
aI24
aI25
aI19
aI22
aI29
aI22
aI21
aI39
aI35
aI16
aI21
aI32
aI17
aI20
aI26
aI19
aI25
aI38
aI22
aI25
aI28
aI33
aI25
aI27
aI26
aI22
aI26
aI31
aI25
aI25
aI30
aI24
aI25
aI51
aI30
aI19
aI19
aI39
aI24
aI40
aI28
aI21
aI21
aI25
aI19
aI27
aI22
aI25
aI21
aI20
aI21
aI46
aI27
aI24
aI22
aI24
aI20
aI32
aI23
aI24
aI26
aI22
aI25
aI17
aI17
aI28
aI20
aI38
aI20
aI28
aI16
aI19
aI20
aI27
aI22
aI22
aI30
aI22
aI28
aI18
aI21
aI30
aI22
aI20
aI17
aI27
aI21
aI23
aI18
aI34
aI19
aI26
aI36
aI24
aI19
aI22
aI26
aI17
aI17
aI21
aI27
aI22
aI32
aI22
aI19
aI20
aI25
aI24
aI30
aI25
aI27
aI26
aI30
aI19
aI25
aI43
aI22
aI17
aI29
aI22
aI26
aI30
aI22
aI40
aI27
aI19
aI20
aI16
aI30
aI26
aI37
aI17
aI34
aI29
aI26
aI30
aI24
aI25
aI22
aI24
aI21
aI19
aI22
aI30
aI35
aI24
aI19
aI26
aI21
aI23
aI25
aI28
aI28
aI23
aI31
aI27
aI20
aI17
aI19
aI20
aI32
aI30
aI29
aI28
aI25
aI32
aI15
aI29
aI23
aI28
aI24
aI33
aI20
aI26
aI17
aI27
aI17
aI23
aI20
aI24
aI27
aI28
aI25
aI28
aI28
aI39
aI25
aI33
aI24
aI28
aI17
aI17
aI27
aI20
aI24
aI25
aI26
aI23
aI35
aI30
aI29
aI25
aI42
aI22
aI19
aI19
aI20
aI42
aI33
aI23
aI28
aI19
aI27
aI20
aI38
aI22
aI24
aI37
aI23
aI50
aI29
aI20
aI28
aI32
aI18
aI28
aI42
aI29
aI29
aI23
aI30
aI25
aI55
aI47
aI37
aI24
aI16
aI31
aI25
aI20
aI38
aI29
aI24
aI28
aI31
aI27
aI19
aI41
aI22
aI21
aI17
aI52
aI29
aI28
aI20
aI22
aI18
aI19
aI26
aI21
aI41
aI22
aI36
aI22
aI36
aI26
aI27
aI38
aI20
aI27
aI24
aI21
aI27
aI33
aI19
aI26
aI30
aI26
aI34
aI18
aI30
aI25
aI25
aI24
aI25
aI25
aI14
aI18
aI34
aI21
aI30
aI23
aI23
aI34
aI27
aI25
aI19
aI25
aI17
aI27
aI30
aI38
aI25
aI21
aI18
aI22
aI21
aI41
aI43
aI20
aI29
aI25
aI21
aI27
aI50
aI19
aI26
aI22
aI23
aI35
aI25
aI24
aI33
aI28
aI26
aI18
aI27
aI27
aI24
aI20
aI28
aI33
aI24
aI25
aI20
aI23
aI22
aI27
aI23
aI25
aI20
aI26
aI43
aI22
aI31
aI27
aI29
aI18
aI22
aI22
aI18
aI21
aI25
aI35
aI25
aI19
aI28
aI25
aI24
aI27
aI19
aI28
aI23
aI26
aI15
aI24
aI14
aI30
aI15
aI20
aI19
aI21
aI28
aI19
aI15
aI21
aI34
aI19
aI20
aI36
aI20
aI42
aI25
aI19
aI28
aI25
aI20
aI20
aI25
aI26
aI20
aI21
aI38
aI20
aI24
aI32
aI31
aI26
aI35
aI25
aI18
aI21
aI25
aI26
aI26
aI20
aI37
aI24
aI26
aI56
aI24
aI26
aI19
aI27
aI25
aI35
aI30
aI27
aI18
aI22
aI17
aI29
aI32
aI19
aI28
aI18
aI22
aI24
aI24
aI17
aI18
aI28
aI32
aI26
aI32
aI30
aI32
aI16
aI20
aI26
aI35
aI28
aI23
aI36
aI22
aI17
aI25
aI28
aI22
aI29
aI21
aI27
aI17
aI42
aI25
aI26
aI18
aI23
aI31
aI27
aI35
aI29
aI23
aI42
aI31
aI33
aI23
aI31
aI20
aI29
aI24
aI30
aI36
aI23
aI21
aI36
aI23
aI32
aI38
aI23
aI41
aI36
aI37
aI32
aI33
aI30
aI24
aI47
aI20
aI20
aI23
aI24
aI20
aI19
aI25
aI37
aI18
aI23
aI20
aI30
aI19
aI47
aI25
aI27
aI19
aI35
aI29
aI26
aI25
aI24
aI26
aI22
aI31
aI24
aI33
aI20
aI22
aI27
aI29
aI19
aI24
aI41
aI25
aI26
aI20
aI22
aI32
aI23
aI17
aI19
aI20
aI24
aI32
aI19
aI26
aI37
aI30
aI18
aI41
aI21
aI28
aI27
aI24
aI21
aI29
aI17
aI19
aI22
aI19
aI18
aI29
aI28
aI41
aI35
aI33
aI24
aI27
aI17
aI19
aI24
aI30
aI23
aI24
aI16
aI18
aI22
aI25
aI28
aI20
aI25
aI25
aI15
aI19
aI18
aI30
aI20
aI25
aI25
aI28
aI26
aI28
aI32
aI23
aI21
aI15
aI21
aI26
aI33
aI29
aI23
aI27
aI21
aI33
aI23
aI38
aI30
aI26
aI22
aI25
aI18
aI26
aI26
aI21
aI21
aI24
aI20
aI24
aI16
aI33
aI55
aI23
aI15
aI40
aI18
aI25
aI28
aI22
aI29
aI16
aI43
aI35
aI39
aI27
aI21
aI24
aI22
aI26
aI30
aI24
aI22
aI22
aI24
aI21
aI21
aI20
aI24
aI46
aI26
aI42
aI21
aI21
aI24
aI21
aI24
aI35
aI19
aI21
aI25
aI22
aI25
aI30
aI23
aI19
aI25
aI22
aI35
aI13
aI29
aI21
aI28
aI20
aI20
aI21
aI25
aI26
aI21
aI21
aI14
aI42
aI28
aI24
aI25
aI31
aI17
aI25
aI23
aI33
aI30
aI22
aI25
aI19
aI25
aI22
aI22
aI21
aI27
aI31
aI23
aI21
aI22
aI13
aI18
aI27
aI16
aI15
aI25
aI28
aI28
aI26
aI25
aI28
aI18
aI20
aI22
aI26
aI22
aI17
aI25
aI23
aI28
aI25
aI27
aI28
aI15
aI27
aI21
aI30
aI28
aI20
aI25
aI24
aI21
aI22
aI24
aI21
aI26
aI16
aI25
aI24
aI27
aI23
aI30
aI33
aI21
aI15
aI34
aI26
aI20
aI30
aI18
aI26
aI25
aI29
aI21
aI24
aI25
aI35
aI22
aI20
aI18
aI24
aI20
aI18
aI27
aI32
aI26
aI19
aI32
aI26
aI18
aI14
aI19
aI19
aI30
aI19
aI21
aI18
aI23
aI28
aI21
aI22
aI27
aI17
aI16
aI31
aI29
aI29
aI21
aI31
aI31
aI38
aI35
aI27
aI22
aI20
aI31
aI36
aI29
aI23
aI20
aI26
aI20
aI52
aI20
aI30
aI24
aI21
aI25
aI30
aI25
aI34
aI31
aI23
aI18
aI42
aI23
aI20
aI26
aI26
aI20
aI18
aI24
aI38
aI30
aI20
aI22
aI26
aI18
aI24
aI23
aI27
aI17
aI26
aI15
aI16
aI18
aI19
aI18
aI25
aI28
aI25
aI37
aI22
aI34
aI18
aI18
aI22
aI20
aI28
aI44
aI18
aI17
aI19
aI22
aI28
aI18
aI25
aI19
aI29
aI28
aI27
aI40
aI24
aI30
aI22
aI30
aI23
aI19
aI20
aI32
aI17
aI41
aI21
aI21
aI27
aI21
aI19
aI16
aI38
aI27
aI32
aI23
aI23
aI25
aI31
aI37
aI24
aI22
aI19
aI21
aI21
aI24
aI14
aI19
aI27
aI52
aI27
aI15
aI19
aI19
aI28
aI19
aI20
aI20
aI34
aI32
aI24
aI22
aI22
aI16
aI32
aI31
aI19
aI23
aI18
aI23
aI18
aI42
aI21
aI36
aI33
aI23
aI23
aI33
aI26
aI33
aI34
aI19
aI28
aI19
aI29
aI33
aI23
aI21
aI23
aI19
aI32
aI25
aI21
aI25
aI18
aI18
aI46
aI27
aI21
aI28
aI24
aI26
aI36
aI33
aI27
aI16
aI26
aI27
aI15
aI20
aI24
aI18
aI20
aI23
aI21
aI22
aI24
aI22
aI31
aI26
aI29
aI26
aI19
aI25
aI43
aI22
aI23
aI25
aI25
aI18
aI18
aI23
aI22
aI22
aI23
aI25
aI23
aI23
aI21
aI28
aI20
aI14
aI19
aI19
aI45
aI24
aI15
aI21
aI26
aI17
aI21
aI17
aI20
aI37
aI19
aI16
aI19
aI18
aI32
aI27
aI22
aI19
aI21
aI29
aI33
aI28
aI26
aI16
aI24
aI21
aI41
aI23
aI22
aI19
aI24
aI20
aI19
aI23
aI29
aI20
aI31
aI25
aI16
aI29
aI32
aI36
aI22
aI21
aI16
aI19
aI30
aI24
aI36
aI18
aI29
aI18
aI32
aI27
aI18
aI24
aI25
aI20
aI22
aI20
aI26
aI18
aI23
aI18
aI25
aI33
aI23
aI27
aI22
aI18
aI23
aI24
aI29
aI29
aI26
aI19
aI27
aI21
aI22
aI14
aI21
aI34
aI43
aI34
aI18
aI21
aI37
aI21
aI26
aI39
aI27
aI32
aI21
aI19
aI25
aI30
aI17
aI47
aI17
aI18
aI26
aI30
aI27
aI22
aI25
aI29
aI27
aI24
aI18
aI21
aI26
aI30
aI23
aI32
aI32
aI20
aI15
aI20
aI29
aI15
aI30
aI27
aI19
aI24
aI24
aI24
aI21
aI24
aI23
aI35
aI27
aI23
aI21
aI26
aI20
aI27
aI24
aI33
aI21
aI16
aI23
aI32
aI24
aI26
aI22
aI17
aI25
aI25
aI32
aI19
aI18
aI41
aI24
aI17
aI21
aI22
aI26
aI19
aI19
aI22
aI26
aI22
aI22
aI20
aI35
aI22
aI44
aI17
aI18
aI24
aI29
aI23
aI17
aI56
aI21
aI27
aI19
aI22
aI19
aI24
aI24
aI32
aI27
aI34
aI28
aI24
aI26
aI24
aI22
aI20
aI37
aI19
aI31
aI17
aI36
aI22
aI27
aI18
aI20
aI21
aI25
aI17
aI35
aI23
aI15
aI35
aI33
aI25
aI18
aI21
aI26
aI21
aI27
aI27
aI18
aI32
aI22
aI22
aI31
aI22
aI18
aI25
aI48
aI28
aI35
aI18
aI23
aI19
aI17
aI23
aI18
aI21
aI19
aI23
aI40
aI22
aI33
aI40
aI19
aI32
aI24
aI25
aI26
aI19
aI32
aI21
aI22
aI21
aI26
aI22
aI24
aI21
aI36
aI41
aI23
aI22
aI22
aI29
aI20
aI31
aI52
aI31
aI21
aI31
aI28
aI20
aI21
aI16
aI25
aI15
aI19
aI19
aI33
aI32
aI45
aI22
aI21
aI20
aI30
aI20
aI17
aI40
aI23
aI33
aI19
aI25
aI27
aI20
aI27
aI39
aI30
aI25
aI24
aI17
aI24
aI23
aI17
aI28
aI28
aI26
aI33
aI18
aI19
aI20
aI26
aI24
aI23
aI15
aI35
aI27
aI25
aI23
aI23
aI18
aI38
aI23
aI27
aI18
aI29
aI24
aI28
aI35
aI21
aI24
aI32
aI25
aI25
aI24
aI42
aI28
aI24
aI19
aI26
aI23
aI36
aI19
aI50
aI20
aI24
aI19
aI27
aI30
aI35
aI23
aI25
aI16
aI24
aI37
aI32
aI18
aI22
aI26
aI19
aI18
aI25
aI24
aI19
aI19
aI30
aI24
aI25
aI26
aI27
aI33
aI22
aI21
aI17
aI25
aI22
aI19
aI16
aI19
aI20
aI21
aI38
aI23
aI23
aI23
aI20
aI18
aI22
aI33
aI19
aI23
aI28
aI26
aI22
aI31
aI32
aI29
aI31
aI29
aI22
aI24
aI28
aI39
aI29
aI32
aI34
aI22
aI30
aI20
aI24
aI24
aI21
aI23
aI27
aI28
aI33
aI28
aI22
aI26
aI23
aI43
aI48
aI21
aI26
aI22
aI28
aI27
aI17
aI33
aI19
aI24
aI37
aI23
aI24
aI19
aI24
aI25
aI31
aI28
aI27
aI21
aI22
aI31
aI17
aI41
aI21
aI22
aI17
aI17
aI20
aI24
aI26
aI21
aI26
aI47
aI32
aI20
aI19
aI21
aI28
aI19
aI22
aI28
aI15
aI20
aI26
aI32
aI36
aI35
aI20
aI38
aI24
aI39
aI37
aI29
aI26
aI21
aI32
aI27
aI31
aI23
aI25
aI21
aI20
aI19
aI21
aI24
aI29
aI22
aI27
aI33
aI24
aI28
aI19
aI20
aI23
aI29
aI34
aI18
aI19
aI25
aI22
aI30
aI25
aI30
aI19
aI26
aI22
aI19
aI21
aI22
aI26
aI28
aI28
aI46
aI39
aI24
aI19
aI30
aI34
aI22
aI24
aI28
aI31
aI21
aI20
aI28
aI20
aI21
aI30
aI30
aI18
aI24
aI23
aI23
aI29
aI18
aI20
aI36
aI18
aI21
aI23
aI16
aI15
aI24
aI21
aI29
aI24
aI28
aI20
aI27
aI28
aI30
aI15
aI24
aI18
aI29
aI18
aI22
aI22
aI16
aI20
aI30
aI33
aI20
aI37
aI31
aI22
aI24
aI16
aI36
aI34
aI15
aI31
aI15
aI23
aI21
aI28
aI19
aI21
aI17
aI20
aI24
aI24
aI24
aI20
aI25
aI17
aI16
aI24
aI23
aI26
aI24
aI32
aI17
aI33
aI20
aI27
aI17
aI30
aI20
aI22
aI28
aI38
aI20
aI30
aI17
aI18
aI24
aI23
aI19
aI21
aI29
aI25
aI20
aI23
aI29
aI19
aI20
aI28
aI27
aI18
aI19
aI21
aI35
aI21
aI33
aI30
aI29
aI21
aI48
aI15
aI31
aI25
aI21
aI25
aI20
aI34
aI20
aI34
aI23
aI32
aI23
aI17
aI39
aI21
aI24
aI28
aI22
aI22
aI23
aI25
aI18
aI18
aI36
aI17
aI30
aI26
aI23
aI21
aI26
aI25
aI17
aI25
aI28
aI27
aI21
aI20
aI36
aI19
aI25
aI22
aI25
aI28
aI21
aI20
aI30
aI24
aI23
aI21
aI25
aI22
aI21
aI34
aI27
aI28
aI26
aI34
aI23
aI20
aI19
aI20
aI24
aI21
aI34
aI27
aI38
aI35
aI21
aI17
aI27
aI25
aI40
aI19
aI23
aI30
aI27
aI30
aI21
aI24
aI33
aI20
aI21
aI20
aI24
aI22
aI42
aI26
aI21
aI30
aI25
aI27
aI21
aI18
aI24
aI22
aI19
aI20
aI26
aI28
aI23
aI20
aI17
aI39
aI27
aI28
aI28
aI18
aI31
aI22
aI24
aI25
aI23
aI18
aI26
aI19
aI28
aI18
aI17
aI28
aI32
aI27
aI17
aI22
aI25
aI16
aI31
aI22
aI15
aI36
aI28
aI20
aI19
aI41
aI26
aI27
aI17
aI26
aI19
aI17
aI24
aI47
aI23
aI25
aI28
aI17
aI20
aI30
aI21
aI22
aI23
aI19
aI24
aI24
aI35
aI18
aI20
aI33
aI21
aI27
aI28
aI36
aI21
aI22
aI18
aI21
aI23
aI33
aI22
aI29
aI40
aI24
aI17
aI23
aI20
aI17
aI30
aI20
aI22
aI27
aI29
aI37
aI18
aI26
aI26
aI29
aI28
aI21
aI32
aI34
aI25
aI22
aI18
aI22
aI26
aI32
aI25
aI21
aI26
aI20
aI31
aI29
aI16
aI19
aI32
aI27
aI25
aI17
aI23
aI33
aI25
aI19
aI18
aI16
aI22
aI21
aI22
aI25
aI24
aI26
aI39
aI21
aI42
aI21
aI19
aI16
aI21
aI16
aI31
aI25
aI23
aI21
aI29
aI19
aI17
aI19
aI25
aI22
aI39
aI24
aI45
aI30
aI28
aI20
aI19
aI23
aI28
aI17
aI26
aI23
aI30
aI20
aI22
aI25
aI30
aI20
aI18
aI22
aI23
aI26
aI27
aI27
aI41
aI36
aI29
aI24
aI45
aI22
aI24
aI24
aI16
aI24
aI30
aI31
aI24
aI20
aI22
aI19
aI26
aI28
aI19
aI43
aI14
aI22
aI19
aI21
aI25
aI17
aI27
aI18
aI22
aI28
aI20
aI28
aI17
aI19
aI23
aI31
aI25
aI23
aI21
aI15
aI21
aI21
aI27
aI18
aI33
aI23
aI24
aI33
aI31
aI22
aI55
aI28
aI24
aI20
aI19
aI23
aI32
aI32
aI23
aI17
aI35
aI22
aI18
aI36
aI34
aI17
aI17
aI20
aI19
aI26
aI28
aI36
aI28
aI27
aI17
aI27
aI27
aI23
aI30
aI17
aI44
aI36
aI26
aI21
aI20
aI24
aI33
aI22
aI41
aI28
aI20
aI20
aI29
aI40
aI22
aI20
aI24
aI19
aI23
aI16
aI22
aI21
aI26
aI38
aI27
aI31
aI31
aI20
aI20
aI22
aI21
aI25
aI29
aI38
aI18
aI35
aI19
aI26
aI21
aI20
aI29
aI23
aI24
aI27
aI20
aI16
aI26
aI18
aI31
aI18
aI21
aI22
aI22
aI21
aI23
aI24
aI27
aI38
aI33
aI23
aI27
aI33
aI20
aI21
aI26
aI18
aI21
aI23
aI35
aI35
aI26
aI18
aI21
aI42
aI26
aI24
aI17
aI25
aI13
aI22
aI24
aI18
aI18
aI30
aI18
aI17
aI23
aI28
aI20
aI38
aI17
aI32
aI24
aI18
aI26
aI26
aI25
aI30
aI25
aI28
aI23
aI20
aI19
aI23
aI43
aI19
aI27
aI21
aI20
aI22
aI27
aI24
aI21
aI25
aI30
aI30
aI25
aI29
aI21
aI38
aI15
aI25
aI24
aI23
aI31
aI23
aI20
aI16
aI25
aI20
aI30
aI28
aI22
aI31
aI22
aI28
aI20
aI19
aI34
aI21
aI26
aI42
aI22
aI34
aI25
aI20
aI22
aI17
aI23
aI33
aI18
aI33
aI22
aI30
aI16
aI22
aI24
aI23
aI23
aI19
aI22
aI29
aI29
aI36
aI40
aI22
aI22
aI20
aI35
aI22
aI20
aI19
aI30
aI25
aI37
aI22
aI25
aI23
aI20
aI25
aI50
aI20
aI30
aI38
aI22
aI24
aI30
aI22
aI18
aI27
aI22
aI21
aI20
aI34
aI24
aI19
aI27
aI35
aI27
aI28
aI22
aI24
aI23
aI19
aI18
aI17
aI18
aI42
aI20
aI18
aI21
aI26
aI17
aI27
aI18
aI25
aI21
aI24
aI24
aI26
aI26
aI20
aI22
aI17
aI23
aI29
aI29
aI23
aI30
aI21
aI22
aI23
aI29
aI17
aI21
aI28
aI17
aI24
aI33
aI17
aI18
aI42
aI25
aI25
aI21
aI50
aI36
aI27
aI19
aI16
aI38
aI26
aI45
aI25
aI22
aI20
aI25
aI49
aI21
aI23
aI28
aI29
aI27
aI16
aI22
aI47
aI23
aI31
aI60
aI24
aI30
aI22
aI31
aI14
aI17
aI27
aI21
aI22
aI28
aI19
aI29
aI23
aI21
aI15
aI23
aI27
aI29
aI21
aI28
aI47
aI38
aI19
aI42
aI28
aI24
aI33
aI22
aI20
aI22
aI19
aI26
aI27
aI25
aI20
aI26
aI19
aI30
aI30
aI24
aI25
aI34
aI22
aI19
aI18
aI30
aI24
aI19
aI21
aI21
aI15
aI27
aI17
aI18
aI17
aI23
aI29
aI22
aI42
aI40
aI24
aI29
aI19
aI25
aI39
aI24
aI23
aI22
aI25
aI39
aI27
aI20
aI27
aI26
aI21
aI30
aI16
aI20
aI32
aI22
aI24
aI34
aI25
aI18
aI31
aI25
aI19
aI23
aI30
aI49
aI37
aI22
aI16
aI26
aI20
aI19
aI18
aI24
aI20
aI22
aI39
aI35
aI28
aI29
aI28
aI19
aI24
aI26
aI22
aI17
aI32
aI23
aI16
aI20
aI25
aI23
aI22
aI20
aI18
aI15
aI29
aI30
aI24
aI27
aI18
aI27
aI30
aI22
aI38
aI24
aI41
aI42
aI34
aI35
aI22
aI23
aI23
aI15
aI24
aI22
aI21
aI19
aI25
aI29
aI26
aI27
aI16
aI22
aI37
aI21
aI29
aI28
aI22
aI37
aI29
aI20
aI25
aI28
aI19
aI31
aI37
aI30
aI27
aI31
aI30
aI30
aI19
aI23
aI32
aI24
aI19
aI26
aI34
aI22
aI28
aI25
aI26
aI18
aI22
aI34
aI25
aI29
aI19
aI33
aI17
aI24
aI23
aI30
aI23
aI27
aI26
aI22
aI26
aI23
aI22
aI22
aI18
aI22
aI35
aI19
aI26
aI19
aI17
aI28
aI24
aI17
aI34
aI21
aI34
aI16
aI22
aI19
aI23
aI32
aI25
aI29
aI31
aI17
aI21
aI22
aI29
aI21
aI22
aI30
aI32
aI23
aI27
aI20
aI27
aI33
aI24
aI42
aI25
aI31
aI26
aI24
aI27
aI16
aI18
aI24
aI21
aI17
aI55
aI20
aI19
aI20
aI21
aI33
aI22
aI20
aI19
aI44
aI22
aI25
aI54
aI26
aI21
aI16
aI22
aI21
aI16
aI23
aI31
aI19
aI26
aI16
aI29
aI24
aI27
aI36
aI20
aI28
aI32
aI26
aI21
aI40
aI27
aI25
aI27
aI20
aI24
aI45
aI34
aI15
aI21
aI27
aI32
aI18
aI19
aI21
aI19
aI25
aI30
aI17
aI25
aI22
aI19
aI30
aI26
aI39
aI20
aI19
aI29
aI13
aI19
aI24
aI25
aI29
aI26
aI38
aI24
aI23
aI39
aI23
aI25
aI24
aI22
aI32
aI26
aI36
aI31
aI15
aI16
aI16
aI18
aI30
aI29
aI20
aI32
aI27
aI26
aI33
aI29
aI21
aI26
aI36
aI29
aI19
aI42
aI23
aI24
aI23
aI27
aI21
aI24
aI35
aI28
aI24
aI18
aI34
aI33
aI22
aI23
aI22
aI35
aI20
aI24
aI24
aI18
aI30
aI33
aI30
aI34
aI19
aI22
aI50
aI20
aI32
aI28
aI24
aI22
aI21
aI31
aI23
aI19
aI28
aI25
aI24
aI27
aI28
aI22
aI29
aI21
aI22
aI19
aI55
aI32
aI18
aI27
aI24
aI29
aI37
aI15
aI28
aI31
aI15
aI24
aI25
aI20
aI23
aI21
aI23
aI26
aI26
aI40
aI25
aI22
aI37
aI15
aI29
aI20
aI23
aI29
aI29
aI28
aI27
aI26
aI21
aI21
aI35
aI27
aI33
aI23
aI25
aI24
aI28
aI22
aI22
aI20
aI29
aI24
aI22
aI24
aI21
aI28
aI19
aI24
aI26
aI17
aI33
aI35
aI24
aI27
aI19
aI20
aI32
aI39
aI24
aI16
aI23
aI23
aI33
aI27
aI39
aI23
aI19
aI37
aI25
aI28
aI35
aI15
aI21
aI21
aI27
aI20
aI20
aI28
aI32
aI26
aI39
aI21
aI22
aI24
aI20
aI24
aI24
aI34
aI22
aI35
aI30
aI36
aI35
aI18
aI16
aI29
aI25
aI20
aI24
aI23
aI27
aI26
aI35
aI43
aI18
aI20
aI26
aI25
aI24
aI21
aI25
aI31
aI27
aI27
aI18
aI23
aI33
aI22
aI18
aI18
aI21
aI18
aI27
aI29
aI33
aI29
aI24
aI18
aI21
aI15
aI23
aI19
aI23
aI31
aI31
aI28
aI18
aI24
aI25
aI43
aI25
aI20
aI21
aI17
aI39
aI31
aI47
aI22
aI23
aI42
aI22
aI16
aI28
aI28
aI24
aI24
aI23
aI27
aI21
aI18
aI28
aI27
aI22
aI27
aI21
aI18
aI22
aI23
aI24
aI26
aI30
aI22
aI18
aI26
aI21
aI23
aI34
aI21
aI37
aI36
aI29
aI20
aI21
aI22
aI26
aI17
aI19
aI20
aI30
aI26
aI19
aI18
aI12
aI19
aI27
aI26
aI19
aI26
aI20
aI26
aI40
aI33
aI25
aI17
aI37
aI17
aI26
aI23
aI20
aI31
aI24
aI15
aI25
aI19
aI21
aI25
aI19
aI18
aI26
aI28
aI23
aI30
aI20
aI27
aI23
aI28
aI20
aI20
aI21
aI17
aI19
aI19
aI22
aI20
aI18
aI27
aI19
aI25
aI43
aI27
aI17
aI22
aI17
aI28
aI28
aI23
aI26
aI22
aI21
aI18
aI20
aI23
aI20
aI25
aI30
aI30
aI29
aI42
aI30
aI33
aI19
aI19
aI23
aI25
aI23
aI23
aI20
aI24
aI37
aI21
aI25
aI25
aI20
aI18
aI17
aI19
aI24
aI32
aI24
aI23
aI15
aI18
aI20
aI28
aI28
aI31
aI32
aI22
aI23
aI22
aI19
aI28
aI32
aI28
aI38
aI23
aI30
aI18
aI24
aI20
aI20
aI18
aI43
aI40
aI17
aI22
aI17
aI17
aI24
aI18
aI30
aI20
aI26
aI25
aI32
aI31
aI14
aI23
aI32
aI22
aI21
aI20
aI26
aI20
aI39
aI24
aI20
aI28
aI24
aI23
aI21
aI26
aI23
aI26
aI25
aI32
aI24
aI21
aI12
aI20
aI23
aI25
aI23
aI26
aI17
aI21
aI27
aI40
aI32
aI21
aI21
aI22
aI23
aI19
aI30
aI29
aI28
aI21
aI37
aI18
aI25
aI30
aI21
aI22
aI24
aI39
aI25
aI22
aI40
aI12
aI22
aI27
aI20
aI31
aI26
aI17
aI19
aI21
aI24
aI21
aI16
aI23
aI26
aI37
aI23
aI28
aI23
aI19
aI23
aI26
aI18
aI22
aI26
aI28
aI29
aI36
aI34
aI24
aI22
aI30
aI34
aI20
aI21
aI40
aI36
aI14
aI32
aI17
aI19
aI28
aI31
aI18
aI23
aI46
aI20
aI24
aI35
aI24
aI30
aI24
aI31
aI18
aI20
aI21
aI25
aI34
aI24
aI29
aI21
aI44
aI23
aI21
aI29
aI21
aI23
aI22
aI11
aI23
aI23
aI22
aI23
aI30
aI21
aI29
aI24
aI34
aI22
aI30
aI32
aI32
aI16
aI23
aI24
aI28
aI32
aI28
aI21
aI30
aI23
aI24
aI18
aI26
aI26
aI19
aI22
aI31
aI18
aI20
aI23
aI24
aI27
aI15
aI28
aI28
aI26
aI25
aI32
aI24
aI20
aI21
aI16
aI22
aI17
aI20
aI29
aI23
aI16
aI27
aI35
aI26
aI24
aI30
aI26
aI20
aI21
aI32
aI20
aI30
aI25
aI20
aI27
aI19
aI21
aI35
aI26
aI23
aI26
aI36
aI21
aI24
aI22
aI27
aI25
aI19
aI28
aI19
aI24
aI18
aI17
aI22
aI29
aI17
aI35
aI24
aI31
aI23
aI30
aI47
aI23
aI19
aI27
aI23
aI37
aI46
aI18
aI22
aI18
aI20
aI34
aI19
aI22
aI24
aI18
aI18
aI23
aI23
aI33
aI20
aI26
aI25
aI15
aI35
aI28
aI22
aI21
aI27
aI29
aI40
aI22
aI28
aI15
aI17
aI15
aI30
aI21
aI25
aI17
aI26
aI22
aI39
aI22
aI28
aI38
aI19
aI17
aI19
aI50
aI23
aI25
aI27
aI34
aI25
aI19
aI21
aI23
aI34
aI21
aI24
aI34
aI33
aI20
aI28
aI30
aI17
aI24
aI16
aI21
aI18
aI28
aI32
aI20
aI28
aI29
aI34
aI19
aI20
aI31
aI19
aI21
aI36
aI30
aI24
aI22
aI22
aI28
aI22
aI24
aI28
aI26
aI21
aI34
aI25
aI19
aI15
aI22
aI21
aI18
aI22
aI18
aI37
aI21
aI17
aI17
aI19
aI11
aI41
aI33
aI30
aI22
aI20
aI19
aI32
aI20
aI21
aI18
aI22
aI21
aI29
aI25
aI20
aI40
aI39
aI35
aI20
aI22
aI34
aI18
aI29
aI15
aI33
aI22
aI23
aI19
aI19
aI26
aI16
aI23
aI24
aI33
aI19
aI35
aI23
aI18
aI18
aI33
aI26
aI23
aI18
aI30
aI18
aI30
aI20
aI28
aI27
aI20
aI39
aI19
aI22
aI26
aI22
aI30
aI26
aI33
aI23
aI20
aI28
aI17
aI27
aI38
aI16
aI21
aI35
aI22
aI41
aI20
aI21
aI25
aI29
aI33
aI32
aI16
aI26
aI22
aI18
aI19
aI29
aI19
aI19
aI18
aI18
aI19
aI27
aI24
aI14
aI32
aI26
aI28
aI32
aI21
aI25
aI23
aI23
aI18
aI17
aI28
aI27
aI27
aI26
aI24
aI17
aI26
aI18
aI26
aI33
aI24
aI25
aI26
aI23
aI22
aI21
aI19
aI34
aI24
aI22
aI20
aI26
aI27
aI26
aI19
aI20
aI26
aI23
aI25
aI27
aI32
aI23
aI20
aI27
aI33
aI20
aI20
aI23
aI16
aI20
aI18
aI30
aI24
aI19
aI21
aI23
aI33
aI25
aI19
aI26
aI19
aI32
aI22
aI31
aI29
aI19
aI26
aI24
aI29
aI25
aI26
aI23
aI22
aI22
aI25
aI24
aI18
aI27
aI22
aI14
aI35
aI32
aI21
aI24
aI27
aI24
aI28
aI21
aI29
aI22
aI33
aI15
aI26
aI19
aI26
aI19
aI28
aI26
aI20
aI33
aI33
aI30
aI24
aI22
aI17
aI25
aI26
aI34
aI23
aI25
aI29
aI26
aI26
aI19
aI20
aI21
aI24
aI26
aI22
aI25
aI21
aI43
aI17
aI21
aI37
aI37
aI26
aI30
aI28
aI30
aI17
aI32
aI18
aI26
aI20
aI24
aI20
aI24
aI17
aI24
aI25
aI30
aI28
aI48
aI52
aI17
aI26
aI21
aI26
aI26
aI23
aI27
aI27
aI30
aI24
aI20
aI24
aI21
aI36
aI25
aI29
aI23
aI18
aI22
aI21
aI26
aI29
aI18
aI29
aI31
aI29
aI17
aI22
aI21
aI20
aI30
aI31
aI33
aI27
aI41
aI39
aI24
aI24
aI29
aI24
aI20
aI24
aI23
aI23
aI19
aI26
aI19
aI24
aI25
aI34
aI23
aI19
aI20
aI25
aI50
aI22
aI19
aI19
aI17
aI25
aI30
aI44
aI26
aI19
aI28
aI26
aI33
aI24
aI21
aI20
aI18
aI30
aI19
aI46
aI25
aI22
aI24
aI22
aI27
aI16
aI20
aI23
aI25
aI29
aI20
aI33
aI26
aI20
aI17
aI38
aI26
aI27
aI24
aI24
aI26
aI17
aI22
aI18
aI17
aI20
aI24
aI25
aI20
aI16
aI27
aI26
aI20
aI26
aI39
aI23
aI30
aI16
aI33
aI24
aI18
aI22
aI31
aI24
aI31
aI17
aI18
aI24
aI23
aI22
aI22
aI21
aI21
aI21
aI32
aI28
aI23
aI27
aI25
aI17
aI24
aI24
aI35
aI26
aI20
aI42
aI31
aI30
aI13
aI26
aI19
aI19
aI20
aI23
aI18
aI25
aI55
aI33
aI26
aI24
aI26
aI20
aI26
aI25
aI24
aI25
aI16
aI18
aI35
aI37
aI23
aI19
aI22
aI26
aI22
aI24
aI23
aI18
aI17
aI29
aI33
aI32
aI33
aI29
aI23
aI28
aI26
aI17
aI20
aI23
aI26
aI25
aI33
aI21
aI22
aI24
aI18
aI25
aI29
aI19
aI22
aI19
aI25
aI27
aI24
aI28
aI25
aI23
aI30
aI24
aI31
aI20
aI18
aI20
aI35
aI22
aI23
aI18
aI20
aI16
aI30
aI23
aI28
aI19
aI18
aI20
aI26
aI19
aI20
aI22
aI25
aI29
aI25
aI18
aI28
aI22
aI31
aI29
aI24
aI31
aI22
aI22
aI24
aI20
aI23
aI23
aI19
aI31
aI22
aI22
aI27
aI18
aI21
aI32
aI21
aI27
aI25
aI27
aI27
aI22
aI22
aI21
aI25
aI36
aI18
aI42
aI18
aI29
aI27
aI27
aI24
aI22
aI36
aI15
aI26
aI20
aI27
aI44
aI19
aI15
aI20
aI18
aI17
aI28
aI35
aI23
aI33
aI20
aI31
aI25
aI25
aI16
aI28
aI25
aI23
aI22
aI19
aI34
aI28
aI17
aI27
aI26
aI26
aI16
aI22
aI35
aI29
aI27
aI24
aI19
aI20
aI28
aI17
aI21
aI25
aI26
aI19
aI19
aI16
aI34
aI35
aI26
aI26
aI21
aI25
aI21
aI26
aI19
aI20
aI25
aI20
aI38
aI19
aI15
aI44
aI21
aI16
aI20
aI21
aI28
aI25
aI32
aI25
aI19
aI20
aI20
aI29
aI19
aI23
aI14
aI15
aI29
aI17
aI25
aI24
aI28
aI32
aI22
aI33
aI24
aI34
aI19
aI24
aI33
aI20
aI31
aI17
aI19
aI23
aI30
aI22
aI34
aI26
aI47
aI25
aI26
aI24
aI31
aI31
aI30
aI18
aI26
aI17
aI16
aI21
aI30
aI21
aI24
aI33
aI34
aI22
aI43
aI48
aI27
aI28
aI27
aI20
aI39
aI28
aI18
aI19
aI27
aI38
aI35
aI17
aI21
aI23
aI27
aI20
aI22
aI29
aI39
aI29
aI22
aI19
aI24
aI25
aI21
aI19
aI26
aI17
aI19
aI25
aI27
aI23
aI39
aI41
aI36
aI25
aI29
aI34
aI30
aI23
aI22
aI24
aI30
aI29
aI58
aI32
aI16
aI39
aI19
aI29
aI35
aI17
aI26
aI28
aI28
aI22
aI26
aI20
aI29
aI23
aI25
aI22
aI29
aI25
aI18
aI21
aI20
aI31
aI16
aI24
aI19
aI19
aI27
aI28
aI31
asS'settings'
p181
(dp182
S'environment'
p183
(dp184
S'enable_wind'
p185
I01
sS'terminal_states'
p186
(dp187
(I2
I9
tp188
I10
ssS'enable_stochastic_actions'
p189
I01
ssS'experiment'
p190
(dp191
S'instances'
p192
I1
sS'episodes'
p193
I10000
sS'epsilon_decr'
p194
F0.20000000000000001
sS'epsilon_high'
p195
F0.80000000000000004
sS'epsilon_low'
p196
F0.10000000000000001
sS'results_dir'
p197
S'results'
p198
ssS'agent'
p199
(dp200
S'epsilon'
p201
F0.10000000000000001
sS'alpha'
p202
F0.10000000000000001
sss.