(dp0
S'policy'
p1
(lp2
(lp3
(S'E'
p4
tp5
a(S'S'
p6
tp7
a(S'N'
p8
tp9
a(g6
tp10
a(g6
tp11
a(g4
tp12
a(g4
tp13
a(g4
tp14
a(g4
tp15
a(g4
tp16
a(g4
tp17
a(S'W'
p18
tp19
aa(lp20
(g6
tp21
a(g4
tp22
a(g4
tp23
a(g4
tp24
a(g4
tp25
a(g4
tp26
a(g4
tp27
a(g8
tp28
a(g4
tp29
a(g8
tp30
a(g8
tp31
a(g8
tp32
aa(lp33
(g4
tp34
a(g8
tp35
a(g8
tp36
a(g8
tp37
a(g8
tp38
a(g8
tp39
a(g8
tp40
a(g8
tp41
a(g8
tp42
a(g4
tp43
a(g4
tp44
a(g8
tp45
aa(lp46
(g8
tp47
a(g8
tp48
a(g8
tp49
a(g8
tp50
a(g8
tp51
a(g8
tp52
a(g8
tp53
a(g4
tp54
a(g4
tp55
a(g4
tp56
a(g8
tp57
a(g8
tp58
aa(lp59
(g8
tp60
a(g8
tp61
a(g8
tp62
a(g8
tp63
a(g8
tp64
a(g8
tp65
a(g8
tp66
a(g4
tp67
a(g8
tp68
a(g8
tp69
a(g8
tp70
a(g8
tp71
aa(lp72
(g8
tp73
a(g18
tp74
a(g8
tp75
a(g8
tp76
a(g8
tp77
a(g4
tp78
a(g6
tp79
a(g4
tp80
a(g4
tp81
a(g4
tp82
a(g8
tp83
a(g8
tp84
aa(lp85
(g8
tp86
a(g6
tp87
a(g18
tp88
a(g18
tp89
a(g6
tp90
a(g4
tp91
a(g4
tp92
a(g6
tp93
a(g4
tp94
a(g4
tp95
a(g8
tp96
a(g8
tp97
aa(lp98
(g6
tp99
a(g6
tp100
a(g6
tp101
a(g18
tp102
a(g6
tp103
a(g6
tp104
a(g4
tp105
a(g4
tp106
a(g6
tp107
a(g8
tp108
a(g8
tp109
a(g8
tp110
aa(lp111
(g4
tp112
a(g6
tp113
a(g6
tp114
a(g6
tp115
a(g6
tp116
a(g6
tp117
a(g6
tp118
a(g6
tp119
a(g4
tp120
a(g8
tp121
a(g8
tp122
a(g8
tp123
aa(lp124
(g4
tp125
a(g4
tp126
a(g6
tp127
a(g6
tp128
a(g4
tp129
a(g4
tp130
a(g4
tp131
a(g4
tp132
a(g8
tp133
a(g8
tp134
a(g8
tp135
a(g8
tp136
aa(lp137
(g4
tp138
a(g4
tp139
a(g4
tp140
a(g4
tp141
a(g4
tp142
a(g4
tp143
a(g4
tp144
a(g8
tp145
a(g8
tp146
a(g4
tp147
a(g8
tp148
a(g8
tp149
aa(lp150
(g8
tp151
a(g8
tp152
a(g8
tp153
a(g8
tp154
a(g8
tp155
a(g8
tp156
a(g8
tp157
a(g8
tp158
a(g8
tp159
a(g8
tp160
a(g8
tp161
a(g8
tp162
aasS'world'
p163
(lp164
(lp165
I0
aI0
aI0
aI0
aI0
aI0
aI0
aI0
aI0
aI0
aI0
aI10
aa(lp166
I0
aI0
aI0
aI0
aI0
aI0
aI0
aI0
aI0
aI0
aI0
aI0
aa(lp167
I0
aI0
aI0
aI-1
aI-1
aI-1
aI-1
aI-1
aI-1
aI0
aI0
aI0
aa(lp168
I0
aI0
aI0
aI-1
aI-2
aI-2
aI-2
aI-2
aI-1
aI0
aI0
aI0
aa(lp169
I0
aI0
aI0
aI-1
aI-2
aI-3
aI-3
aI-2
aI-1
aI0
aI0
aI0
aa(lp170
I0
aI0
aI0
aI-1
aI-2
aI-3
aI-2
aI-2
aI-1
aI0
aI0
aI0
aa(lp171
I0
aI0
aI0
aI-1
aI-2
aI-3
aI-2
aI-1
aI0
aI0
aI0
aI0
aa(lp172
I0
aI0
aI0
aI-1
aI-2
aI-2
aI-2
aI-1
aI0
aI0
aI0
aI0
aa(lp173
I0
aI0
aI0
aI-1
aI-1
aI-1
aI-1
aI-1
aI0
aI0
aI0
aI0
aa(lp174
I0
aI0
aI0
aI0
aI0
aI0
aI0
aI0
aI0
aI0
aI0
aI0
aa(lp175
I0
aI0
aI0
aI0
aI0
aI0
aI0
aI0
aI0
aI0
aI0
aI0
aa(lp176
I0
aI0
aI0
aI0
aI0
aI0
aI0
aI0
aI0
aI0
aI0
aI0
aasS'returns'
p177
(lp178
F-10.0
aF-4.0
aF-17.0
aF0.0
aF-13.0
aF-19.0
aF-1.0
aF0.0
aF-1.0
aF0.0
aF-5.0
aF10.0
aF10.0
aF-1.0
aF-1.0
aF4.0
aF3.0
aF-9.0
aF10.0
aF10.0
aF10.0
aF-3.0
aF10.0
aF4.0
aF9.0
aF-5.0
aF-17.0
aF0.0
aF7.0
aF8.0
aF10.0
aF5.0
aF10.0
aF10.0
aF3.0
aF2.0
aF5.0
aF10.0
aF10.0
aF2.0
aF10.0
aF10.0
aF7.0
aF-6.0
aF8.0
aF-8.0
aF9.0
aF9.0
aF10.0
aF9.0
aF1.0
aF10.0
aF10.0
aF10.0
aF-9.0
aF9.0
aF-20.0
aF10.0
aF10.0
aF10.0
aF10.0
aF8.0
aF6.0
aF10.0
aF9.0
aF10.0
aF10.0
aF10.0
aF10.0
aF5.0
aF10.0
aF9.0
aF7.0
aF7.0
aF10.0
aF2.0
aF10.0
aF10.0
aF10.0
aF10.0
aF10.0
aF-5.0
aF10.0
aF-1.0
aF3.0
aF5.0
aF10.0
aF10.0
aF0.0
aF9.0
aF5.0
aF8.0
aF6.0
aF10.0
aF-3.0
aF10.0
aF1.0
aF8.0
aF5.0
aF3.0
aF9.0
aF10.0
aF9.0
aF10.0
aF4.0
aF10.0
aF-2.0
aF9.0
aF1.0
aF2.0
aF10.0
aF9.0
aF10.0
aF8.0
aF-1.0
aF-26.0
aF0.0
aF10.0
aF2.0
aF9.0
aF-1.0
aF-5.0
aF10.0
aF1.0
aF6.0
aF-8.0
aF-12.0
aF5.0
aF8.0
aF-3.0
aF9.0
aF8.0
aF10.0
aF10.0
aF4.0
aF8.0
aF10.0
aF10.0
aF10.0
aF10.0
aF8.0
aF10.0
aF10.0
aF-6.0
aF10.0
aF3.0
aF10.0
aF10.0
aF10.0
aF10.0
aF10.0
aF1.0
aF8.0
aF9.0
aF10.0
aF8.0
aF-15.0
aF-6.0
aF10.0
aF3.0
aF4.0
aF10.0
aF10.0
aF-3.0
aF3.0
aF10.0
aF9.0
aF10.0
aF9.0
aF10.0
aF10.0
aF4.0
aF10.0
aF9.0
aF8.0
aF10.0
aF10.0
aF10.0
aF9.0
aF-4.0
aF1.0
aF7.0
aF9.0
aF10.0
aF0.0
aF10.0
aF10.0
aF9.0
aF10.0
aF10.0
aF8.0
aF10.0
aF8.0
aF10.0
aF10.0
aF10.0
aF10.0
aF5.0
aF10.0
aF10.0
aF10.0
aF10.0
aF9.0
aF8.0
aF10.0
aF10.0
aF10.0
aF1.0
aF5.0
aF-8.0
aF10.0
aF7.0
aF10.0
aF10.0
aF9.0
aF-7.0
aF9.0
aF9.0
aF10.0
aF10.0
aF4.0
aF-3.0
aF7.0
aF6.0
aF10.0
aF0.0
aF10.0
aF10.0
aF-2.0
aF10.0
aF-7.0
aF9.0
aF10.0
aF0.0
aF4.0
aF10.0
aF10.0
aF-1.0
aF4.0
aF1.0
aF10.0
aF10.0
aF8.0
aF8.0
aF10.0
aF10.0
aF10.0
aF10.0
aF0.0
aF10.0
aF10.0
aF10.0
aF8.0
aF10.0
aF2.0
aF10.0
aF8.0
aF-4.0
aF10.0
aF10.0
aF10.0
aF10.0
aF10.0
aF10.0
aF8.0
aF10.0
aF10.0
aF-15.0
aF10.0
aF9.0
aF10.0
aF10.0
aF4.0
aF10.0
aF10.0
aF10.0
aF10.0
aF6.0
aF9.0
aF1.0
aF10.0
aF10.0
aF10.0
aF10.0
aF-2.0
aF2.0
aF10.0
aF10.0
aF10.0
aF0.0
aF10.0
aF8.0
aF10.0
aF10.0
aF10.0
aF10.0
aF10.0
aF10.0
aF10.0
aF10.0
aF10.0
aF-3.0
aF9.0
aF10.0
aF10.0
aF10.0
aF10.0
aF8.0
aF10.0
aF10.0
aF10.0
aF10.0
aF7.0
aF10.0
aF8.0
aF1.0
aF8.0
aF10.0
aF10.0
aF10.0
aF10.0
aF-5.0
aF-1.0
aF10.0
aF10.0
aF10.0
aF9.0
aF7.0
aF10.0
aF10.0
aF10.0
aF5.0
aF10.0
aF10.0
aF5.0
aF10.0
aF1.0
aF9.0
aF10.0
aF-12.0
aF10.0
aF10.0
aF-2.0
aF-8.0
aF10.0
aF10.0
aF-7.0
aF10.0
aF10.0
aF10.0
aF10.0
aF10.0
aF-2.0
aF6.0
aF1.0
aF-7.0
aF7.0
aF10.0
aF5.0
aF10.0
aF10.0
aF3.0
aF10.0
aF10.0
aF10.0
aF9.0
aF9.0
aF10.0
aF3.0
aF10.0
aF9.0
aF-4.0
aF10.0
aF-5.0
aF10.0
aF10.0
aF2.0
aF10.0
aF10.0
aF0.0
aF10.0
aF10.0
aF7.0
aF10.0
aF8.0
aF10.0
aF10.0
aF10.0
aF10.0
aF10.0
aF10.0
aF10.0
aF10.0
aF10.0
aF10.0
aF5.0
aF9.0
aF10.0
aF7.0
aF-2.0
aF0.0
aF0.0
aF10.0
aF10.0
aF10.0
aF7.0
aF10.0
aF3.0
aF0.0
aF10.0
aF8.0
aF3.0
aF10.0
aF-6.0
aF9.0
aF7.0
aF10.0
aF10.0
aF6.0
aF10.0
aF-6.0
aF10.0
aF2.0
aF10.0
aF10.0
aF10.0
aF10.0
aF10.0
aF-1.0
aF5.0
aF10.0
aF10.0
aF10.0
aF1.0
aF10.0
aF7.0
aF10.0
aF10.0
aF10.0
aF10.0
aF9.0
aF10.0
aF10.0
aF8.0
aF10.0
aF9.0
aF10.0
aF10.0
aF9.0
aF10.0
aF10.0
aF9.0
aF10.0
aF10.0
aF10.0
aF10.0
aF10.0
aF10.0
aF10.0
aF9.0
aF10.0
aF10.0
aF8.0
aF4.0
aF10.0
aF7.0
aF9.0
aF10.0
aF10.0
aF10.0
aF10.0
aF10.0
aF10.0
aF10.0
aF10.0
aF9.0
aF0.0
aF5.0
aF10.0
aF10.0
aF10.0
aF9.0
aF10.0
aF10.0
aF9.0
aF1.0
aF10.0
aF0.0
aF10.0
aF0.0
aF10.0
aF4.0
aF10.0
aF10.0
aF10.0
aF8.0
aF10.0
aF10.0
aF10.0
aF10.0
aF10.0
aF10.0
aF10.0
aF10.0
aF9.0
aF10.0
aF10.0
aF10.0
aF10.0
aF10.0
aF10.0
aF10.0
aF3.0
aF10.0
aF10.0
aF10.0
aF10.0
aF10.0
aF2.0
aF10.0
aF10.0
aF8.0
aF10.0
aF10.0
aF10.0
aF10.0
aF10.0
aF10.0
aF10.0
aF10.0
aF10.0
aF10.0
aF10.0
aF-3.0
aF10.0
aF9.0
aF10.0
aF10.0
aF10.0
aF10.0
aF10.0
aF10.0
aF10.0
aF10.0
aF10.0
aF10.0
aF8.0
aF10.0
aF10.0
aF7.0
aF10.0
aF3.0
aF9.0
aF10.0
aF10.0
aF6.0
aF10.0
aF10.0
aF10.0
aF10.0
aF8.0
aF10.0
aF10.0
aF9.0
aF10.0
aF10.0
aF8.0
aF10.0
aF5.0
aF9.0
aF10.0
aF10.0
aF10.0
aF9.0
aF10.0
aF10.0
aF10.0
aF10.0
aF10.0
aF10.0
aF10.0
aF10.0
aF9.0
aF4.0
aF10.0
aF10.0
aF10.0
aF10.0
aF8.0
aF10.0
aF10.0
aF10.0
aF6.0
aF10.0
aF10.0
aF10.0
aF10.0
aF10.0
aF7.0
aF6.0
aF10.0
aF10.0
aF10.0
aF10.0
aF10.0
aF10.0
aF10.0
aF9.0
aF10.0
aF10.0
aF10.0
aF9.0
aF10.0
aF10.0
aF10.0
aF10.0
aF8.0
aF9.0
aF9.0
aF10.0
aF10.0
aF10.0
aF10.0
aF10.0
aF10.0
aF10.0
aF10.0
aF10.0
aF10.0
aF10.0
aF10.0
aF10.0
aF10.0
aF10.0
aF10.0
aF10.0
aF10.0
aF10.0
aF10.0
aF7.0
aF10.0
aF10.0
aF10.0
aF10.0
aF10.0
aF9.0
aF10.0
aF10.0
aF9.0
aF1.0
aF10.0
aF9.0
aF10.0
aF10.0
aF9.0
aF10.0
aF10.0
aF10.0
aF10.0
aF10.0
aF10.0
aF10.0
aF10.0
aF10.0
aF10.0
aF10.0
aF10.0
aF10.0
aF10.0
aF10.0
aF9.0
aF10.0
aF10.0
aF10.0
aF0.0
aF10.0
aF10.0
aF10.0
aF10.0
aF10.0
aF10.0
aF10.0
aF9.0
aF10.0
aF10.0
aF9.0
aF10.0
aF10.0
aF10.0
aF10.0
aF8.0
aF10.0
aF10.0
aF10.0
aF10.0
aF10.0
aF10.0
aF10.0
aF10.0
aF10.0
aF10.0
aF10.0
aF9.0
aF10.0
aF10.0
aF10.0
aF10.0
aF9.0
aF9.0
aF10.0
aF10.0
aF10.0
aF10.0
aF10.0
aF10.0
aF10.0
aF10.0
aF9.0
aF10.0
aF10.0
aF10.0
aF5.0
aF10.0
aF10.0
aF10.0
aF10.0
aF10.0
aF10.0
aF10.0
aF9.0
aF10.0
aF9.0
aF10.0
aF10.0
aF10.0
aF10.0
aF10.0
aF10.0
aF10.0
aF7.0
aF10.0
aF10.0
aF10.0
aF10.0
aF8.0
aF10.0
aF10.0
aF10.0
aF10.0
aF10.0
aF10.0
aF8.0
aF8.0
aF10.0
aF10.0
aF10.0
aF10.0
aF10.0
aF10.0
aF10.0
aF10.0
aF9.0
aF10.0
aF9.0
aF10.0
aF9.0
aF10.0
aF10.0
aF10.0
aF10.0
aF10.0
aF10.0
aF9.0
aF10.0
aF10.0
aF3.0
aF10.0
aF10.0
aF10.0
aF10.0
aF10.0
aF10.0
aF10.0
aF10.0
aF9.0
aF10.0
aF7.0
aF10.0
aF9.0
aF10.0
aF9.0
aF10.0
aF10.0
aF10.0
aF10.0
aF10.0
aF9.0
aF10.0
aF10.0
aF10.0
aF10.0
aF10.0
aF10.0
aF10.0
aF10.0
aF10.0
aF10.0
aF10.0
aF10.0
aF5.0
aF10.0
aF10.0
aF10.0
aF10.0
aF10.0
aF8.0
aF10.0
aF10.0
aF9.0
aF9.0
aF9.0
aF9.0
aF10.0
aF-5.0
aF9.0
aF8.0
aF10.0
aF-3.0
aF10.0
aF10.0
aF10.0
aF10.0
aF10.0
aF8.0
aF8.0
aF10.0
aF10.0
aF9.0
aF10.0
aF10.0
aF9.0
aF10.0
aF10.0
aF10.0
aF10.0
aF10.0
aF-2.0
aF9.0
aF10.0
aF10.0
aF10.0
aF10.0
aF9.0
aF6.0
aF10.0
aF10.0
aF10.0
aF10.0
aF9.0
aF10.0
aF10.0
aF10.0
aF10.0
aF10.0
aF8.0
aF10.0
aF10.0
aF9.0
aF9.0
aF10.0
aF10.0
aF8.0
aF10.0
aF9.0
aF10.0
aF10.0
aF10.0
aF10.0
aF10.0
aF9.0
aF10.0
aF10.0
aF10.0
aF10.0
aF10.0
aF8.0
aF10.0
aF10.0
aF10.0
aF10.0
aF10.0
aF8.0
aF10.0
aF9.0
aF10.0
aF10.0
aF10.0
aF10.0
aF10.0
aF9.0
aF10.0
aF2.0
aF10.0
aF10.0
aF6.0
aF10.0
aF10.0
aF10.0
aF8.0
aF10.0
aF-5.0
aF10.0
aF10.0
aF10.0
aF5.0
aF10.0
aF10.0
aF10.0
aF10.0
aF10.0
aF10.0
aF9.0
aF10.0
aF10.0
aF10.0
aF9.0
aF10.0
aF9.0
aF8.0
aF10.0
aF10.0
aF10.0
aF10.0
aF10.0
aF8.0
aF10.0
aF10.0
aF10.0
aF10.0
aF10.0
aF10.0
aF10.0
aF10.0
aF10.0
aF10.0
aF9.0
aF10.0
aF10.0
aF9.0
aF10.0
aF9.0
aF10.0
aF10.0
aF10.0
aF10.0
aF10.0
aF10.0
aF10.0
aF3.0
aF10.0
aF-4.0
aF8.0
aF8.0
aF9.0
aF10.0
aF10.0
aF9.0
aF10.0
aF10.0
aF10.0
aF9.0
aF10.0
aF10.0
aF10.0
aF10.0
aF10.0
aF10.0
aF8.0
aF10.0
aF10.0
aF10.0
aF10.0
aF10.0
aF8.0
aF10.0
aF-7.0
aF10.0
aF10.0
aF10.0
aF10.0
aF10.0
aF8.0
aF10.0
aF10.0
aF10.0
aF10.0
aF9.0
aF10.0
aF-3.0
aF6.0
aF10.0
aF9.0
aF10.0
aF8.0
aF10.0
aF10.0
aF10.0
aF9.0
aF10.0
aF10.0
aF10.0
aF10.0
aF10.0
aF10.0
aF9.0
aF4.0
aF10.0
aF10.0
aF10.0
aF10.0
aF10.0
aF10.0
aF10.0
aF10.0
aF10.0
aF10.0
aF10.0
aF10.0
aF5.0
aF10.0
aF10.0
aF10.0
aF10.0
aF10.0
aF10.0
aF10.0
aF10.0
aF10.0
aF9.0
aF7.0
aF10.0
aF10.0
aF10.0
aF10.0
aF10.0
aF10.0
aF10.0
aF10.0
aF10.0
aF10.0
aF10.0
aF10.0
aF10.0
aF10.0
aF10.0
aF10.0
aF9.0
aF9.0
aF10.0
aF10.0
aF10.0
aF7.0
aF10.0
aF10.0
aF10.0
aF9.0
aF9.0
aF10.0
aF9.0
aF10.0
aF10.0
aF10.0
aF10.0
aF10.0
aF10.0
aF8.0
aF10.0
aF10.0
aF10.0
aF10.0
aF10.0
aF6.0
aF10.0
aF4.0
aF9.0
aF10.0
aF10.0
aF10.0
aF10.0
aF10.0
aF10.0
aF9.0
aF9.0
aF10.0
aF10.0
aF10.0
aF10.0
aF10.0
aF10.0
aF10.0
aF10.0
aF10.0
aF10.0
aF10.0
aF9.0
aF10.0
aF10.0
aF2.0
aF10.0
aF10.0
aF10.0
aF6.0
aF1.0
aF10.0
aF10.0
aF10.0
aF10.0
aF10.0
aF10.0
aF10.0
aF6.0
aF10.0
aF10.0
aF10.0
aF10.0
aF10.0
aF9.0
aF10.0
aF10.0
aF10.0
aF10.0
aF8.0
aF10.0
aF10.0
aF6.0
aF10.0
aF10.0
aF1.0
aF10.0
aF9.0
aF6.0
aF10.0
aF6.0
aF10.0
aF10.0
aF10.0
aF10.0
aF7.0
aF10.0
aF9.0
aF10.0
aF10.0
aF10.0
aF10.0
aF10.0
aF10.0
aF10.0
aF10.0
aF8.0
aF9.0
aF10.0
aF10.0
aF10.0
aF10.0
aF10.0
aF8.0
aF10.0
aF10.0
aF10.0
aF10.0
aF10.0
aF10.0
aF10.0
aF10.0
aF10.0
aF10.0
aF10.0
aF10.0
aF10.0
aF9.0
aF9.0
aF9.0
aF10.0
aF10.0
aF10.0
aF8.0
aF10.0
aF10.0
aF10.0
aF8.0
aF10.0
aF10.0
aF10.0
aF10.0
aF10.0
aF10.0
aF10.0
aF7.0
aF10.0
aF10.0
aF10.0
aF10.0
aF10.0
aF10.0
aF10.0
aF10.0
aF9.0
aF9.0
aF10.0
aF10.0
aF10.0
aF10.0
aF10.0
aF9.0
aF10.0
aF10.0
aF10.0
aF10.0
aF10.0
aF10.0
aF10.0
aF10.0
aF4.0
aF10.0
aF10.0
aF9.0
aF10.0
aF10.0
aF9.0
aF10.0
aF10.0
aF10.0
aF10.0
aF10.0
aF9.0
aF10.0
aF10.0
aF10.0
aF10.0
aF10.0
aF10.0
aF10.0
aF10.0
aF10.0
aF10.0
aF9.0
aF10.0
aF10.0
aF10.0
aF10.0
aF10.0
aF10.0
aF10.0
aF10.0
aF10.0
aF10.0
aF10.0
aF10.0
aF10.0
aF10.0
aF10.0
aF10.0
aF7.0
aF8.0
aF10.0
aF10.0
aF10.0
aF10.0
aF10.0
aF8.0
aF10.0
aF10.0
aF10.0
aF9.0
aF10.0
aF10.0
aF10.0
aF10.0
aF6.0
aF10.0
aF9.0
aF10.0
aF9.0
aF10.0
aF8.0
aF10.0
aF10.0
aF9.0
aF10.0
aF10.0
aF10.0
aF10.0
aF10.0
aF10.0
aF10.0
aF9.0
aF10.0
aF10.0
aF10.0
aF10.0
aF10.0
aF10.0
aF9.0
aF10.0
aF10.0
aF9.0
aF10.0
aF8.0
aF10.0
aF10.0
aF10.0
aF10.0
aF10.0
aF10.0
aF10.0
aF10.0
aF8.0
aF10.0
aF10.0
aF10.0
aF9.0
aF10.0
aF9.0
aF10.0
aF10.0
aF9.0
aF10.0
aF9.0
aF10.0
aF7.0
aF10.0
aF10.0
aF7.0
aF10.0
aF10.0
aF10.0
aF10.0
aF10.0
aF10.0
aF9.0
aF10.0
aF10.0
aF10.0
aF9.0
aF10.0
aF10.0
aF10.0
aF10.0
aF10.0
aF10.0
aF10.0
aF10.0
aF10.0
aF10.0
aF10.0
aF10.0
aF7.0
aF8.0
aF10.0
aF8.0
aF10.0
aF9.0
aF10.0
aF10.0
aF10.0
aF10.0
aF10.0
aF10.0
aF7.0
aF10.0
aF7.0
aF10.0
aF10.0
aF10.0
aF10.0
aF10.0
aF10.0
aF10.0
aF10.0
aF10.0
aF10.0
aF10.0
aF10.0
aF10.0
aF10.0
aF10.0
aF10.0
aF10.0
aF10.0
aF10.0
aF10.0
aF10.0
aF10.0
aF10.0
aF10.0
aF10.0
aF9.0
aF10.0
aF9.0
aF8.0
aF8.0
aF10.0
aF9.0
aF10.0
aF10.0
aF-2.0
aF10.0
aF8.0
aF10.0
aF10.0
aF9.0
aF9.0
aF10.0
aF10.0
aF10.0
aF10.0
aF10.0
aF9.0
aF10.0
aF8.0
aF10.0
aF5.0
aF10.0
aF6.0
aF10.0
aF4.0
aF9.0
aF10.0
aF10.0
aF10.0
aF7.0
aF9.0
aF10.0
aF10.0
aF10.0
aF10.0
aF10.0
aF10.0
aF10.0
aF10.0
aF10.0
aF10.0
aF10.0
aF10.0
aF10.0
aF10.0
aF10.0
aF10.0
aF10.0
aF10.0
aF10.0
aF10.0
aF10.0
aF10.0
aF6.0
aF10.0
aF10.0
aF10.0
aF10.0
aF10.0
aF10.0
aF10.0
aF10.0
aF10.0
aF10.0
aF10.0
aF10.0
aF10.0
aF10.0
aF10.0
aF10.0
aF10.0
aF8.0
aF10.0
aF10.0
aF8.0
aF9.0
aF10.0
aF10.0
aF10.0
aF10.0
aF10.0
aF9.0
aF10.0
aF10.0
aF10.0
aF10.0
aF10.0
aF10.0
aF10.0
aF10.0
aF10.0
aF6.0
aF10.0
aF10.0
aF10.0
aF10.0
aF10.0
aF10.0
aF10.0
aF5.0
aF6.0
aF10.0
aF10.0
aF10.0
aF10.0
aF10.0
aF7.0
aF6.0
aF10.0
aF10.0
aF10.0
aF10.0
aF10.0
aF10.0
aF10.0
aF10.0
aF10.0
aF6.0
aF9.0
aF10.0
aF10.0
aF10.0
aF10.0
aF10.0
aF10.0
aF9.0
aF10.0
aF10.0
aF10.0
aF10.0
aF10.0
aF10.0
aF9.0
aF10.0
aF10.0
aF10.0
aF10.0
aF9.0
aF10.0
aF9.0
aF10.0
aF10.0
aF10.0
aF10.0
aF10.0
aF10.0
aF10.0
aF10.0
aF10.0
aF10.0
aF3.0
aF10.0
aF3.0
aF10.0
aF7.0
aF10.0
aF10.0
aF10.0
aF10.0
aF10.0
aF10.0
aF10.0
aF10.0
aF10.0
aF10.0
aF10.0
aF10.0
aF10.0
aF10.0
aF10.0
aF10.0
aF10.0
aF10.0
aF10.0
aF10.0
aF9.0
aF10.0
aF8.0
aF10.0
aF10.0
aF10.0
aF9.0
aF10.0
aF10.0
aF9.0
aF10.0
aF10.0
aF10.0
aF10.0
aF10.0
aF10.0
aF10.0
aF10.0
aF10.0
aF10.0
aF9.0
aF10.0
aF10.0
aF10.0
aF10.0
aF10.0
aF10.0
aF6.0
aF10.0
aF10.0
aF10.0
aF10.0
aF10.0
aF10.0
aF10.0
aF10.0
aF10.0
aF10.0
aF10.0
aF9.0
aF10.0
aF10.0
aF10.0
aF10.0
aF-8.0
aF10.0
aF10.0
aF10.0
aF10.0
aF0.0
aF10.0
aF10.0
aF10.0
aF10.0
aF10.0
aF10.0
aF10.0
aF9.0
aF10.0
aF10.0
aF10.0
aF10.0
aF10.0
aF6.0
aF10.0
aF10.0
aF10.0
aF10.0
aF8.0
aF10.0
aF10.0
aF8.0
aF10.0
aF10.0
aF10.0
aF10.0
aF10.0
aF10.0
aF10.0
aF10.0
aF10.0
aF10.0
aF7.0
aF-2.0
aF10.0
aF10.0
aF10.0
aF10.0
aF10.0
aF6.0
aF10.0
aF10.0
aF10.0
aF5.0
aF10.0
aF10.0
aF10.0
aF9.0
aF10.0
aF10.0
aF9.0
aF10.0
aF10.0
aF9.0
aF10.0
aF10.0
aF9.0
aF9.0
aF9.0
aF10.0
aF8.0
aF10.0
aF10.0
aF10.0
aF10.0
aF10.0
aF10.0
aF10.0
aF10.0
aF10.0
aF10.0
aF10.0
aF10.0
aF9.0
aF10.0
aF10.0
aF10.0
aF10.0
aF10.0
aF10.0
aF10.0
aF10.0
aF10.0
aF10.0
aF10.0
aF10.0
aF6.0
aF10.0
aF3.0
aF10.0
aF10.0
aF10.0
aF10.0
aF10.0
aF10.0
aF10.0
aF10.0
aF10.0
aF10.0
aF8.0
aF10.0
aF10.0
aF10.0
aF10.0
aF10.0
aF9.0
aF9.0
aF9.0
aF10.0
aF10.0
aF8.0
aF10.0
aF10.0
aF10.0
aF10.0
aF10.0
aF10.0
aF10.0
aF10.0
aF10.0
aF10.0
aF10.0
aF10.0
aF10.0
aF10.0
aF9.0
aF10.0
aF10.0
aF10.0
aF10.0
aF10.0
aF10.0
aF10.0
aF9.0
aF10.0
aF10.0
aF10.0
aF10.0
aF10.0
aF10.0
aF10.0
aF10.0
aF10.0
aF10.0
aF10.0
aF10.0
aF10.0
aF9.0
aF10.0
aF10.0
aF10.0
aF10.0
aF10.0
aF10.0
aF10.0
aF10.0
aF8.0
aF8.0
aF10.0
aF10.0
aF10.0
aF10.0
aF10.0
aF9.0
aF7.0
aF10.0
aF10.0
aF10.0
aF10.0
aF10.0
aF10.0
aF10.0
aF10.0
aF9.0
aF10.0
aF9.0
aF10.0
aF10.0
aF10.0
aF10.0
aF10.0
aF10.0
aF10.0
aF10.0
aF9.0
aF6.0
aF9.0
aF10.0
aF10.0
aF10.0
aF10.0
aF10.0
aF10.0
aF10.0
aF10.0
aF10.0
aF10.0
aF10.0
aF7.0
aF10.0
aF9.0
aF7.0
aF8.0
aF10.0
aF10.0
aF8.0
aF10.0
aF10.0
aF10.0
aF10.0
aF10.0
aF10.0
aF10.0
aF10.0
aF10.0
aF10.0
aF10.0
aF10.0
aF10.0
aF10.0
aF9.0
aF10.0
aF10.0
aF10.0
aF8.0
aF10.0
aF10.0
aF10.0
aF10.0
aF10.0
aF10.0
aF10.0
aF10.0
aF10.0
aF10.0
aF9.0
aF9.0
aF10.0
aF10.0
aF10.0
aF10.0
aF7.0
aF10.0
aF10.0
aF9.0
aF9.0
aF8.0
aF10.0
aF10.0
aF10.0
aF9.0
aF10.0
aF10.0
aF6.0
aF10.0
aF9.0
aF10.0
aF10.0
aF9.0
aF10.0
aF10.0
aF7.0
aF10.0
aF10.0
aF10.0
aF10.0
aF10.0
aF10.0
aF10.0
aF10.0
aF10.0
aF10.0
aF10.0
aF10.0
aF10.0
aF0.0
aF9.0
aF10.0
aF10.0
aF10.0
aF10.0
aF10.0
aF8.0
aF10.0
aF10.0
aF10.0
aF10.0
aF8.0
aF10.0
aF10.0
aF10.0
aF10.0
aF10.0
aF9.0
aF10.0
aF10.0
aF10.0
aF10.0
aF10.0
aF7.0
aF10.0
aF10.0
aF10.0
aF10.0
aF3.0
aF9.0
aF9.0
aF10.0
aF10.0
aF10.0
aF10.0
aF10.0
aF10.0
aF10.0
aF10.0
aF10.0
aF9.0
aF10.0
aF10.0
aF10.0
aF9.0
aF10.0
aF10.0
aF10.0
aF10.0
aF10.0
aF10.0
aF10.0
aF8.0
aF10.0
aF9.0
aF10.0
aF10.0
aF10.0
aF10.0
aF10.0
aF10.0
aF10.0
aF10.0
aF10.0
aF4.0
aF10.0
aF10.0
aF10.0
aF10.0
aF10.0
aF10.0
aF10.0
aF10.0
aF9.0
aF9.0
aF10.0
aF10.0
aF10.0
aF10.0
aF10.0
aF10.0
aF10.0
aF9.0
aF10.0
aF7.0
aF10.0
aF10.0
aF10.0
aF10.0
aF10.0
aF10.0
aF10.0
aF10.0
aF10.0
aF9.0
aF10.0
aF10.0
aF10.0
aF10.0
aF7.0
aF10.0
aF10.0
aF10.0
aF8.0
aF6.0
aF10.0
aF10.0
aF10.0
aF10.0
aF10.0
aF10.0
aF10.0
aF5.0
aF10.0
aF7.0
aF10.0
aF10.0
aF10.0
aF10.0
aF9.0
aF10.0
aF10.0
aF10.0
aF10.0
aF8.0
aF10.0
aF10.0
aF10.0
aF10.0
aF10.0
aF10.0
aF10.0
aF10.0
aF10.0
aF10.0
aF10.0
aF10.0
aF8.0
aF9.0
aF10.0
aF6.0
aF10.0
aF10.0
aF9.0
aF10.0
aF10.0
aF10.0
aF10.0
aF10.0
aF9.0
aF10.0
aF10.0
aF10.0
aF10.0
aF10.0
aF10.0
aF10.0
aF10.0
aF10.0
aF10.0
aF10.0
aF8.0
aF10.0
aF10.0
aF10.0
aF7.0
aF10.0
aF10.0
aF9.0
aF9.0
aF10.0
aF10.0
aF10.0
aF10.0
aF10.0
aF10.0
aF10.0
aF10.0
aF10.0
aF10.0
aF10.0
aF10.0
aF10.0
aF10.0
aF8.0
aF10.0
aF10.0
aF10.0
aF10.0
aF10.0
aF10.0
aF9.0
aF7.0
aF10.0
aF10.0
aF7.0
aF9.0
aF7.0
aF6.0
aF10.0
aF10.0
aF10.0
aF10.0
aF9.0
aF10.0
aF10.0
aF10.0
aF10.0
aF10.0
aF10.0
aF9.0
aF10.0
aF10.0
aF9.0
aF10.0
aF10.0
aF10.0
aF10.0
aF9.0
aF9.0
aF9.0
aF10.0
aF10.0
aF10.0
aF10.0
aF10.0
aF10.0
aF10.0
aF10.0
aF10.0
aF10.0
aF10.0
aF10.0
aF10.0
aF9.0
aF10.0
aF10.0
aF10.0
aF10.0
aF10.0
aF10.0
aF10.0
aF10.0
aF9.0
aF9.0
aF10.0
aF10.0
aF9.0
aF10.0
aF10.0
aF10.0
aF10.0
aF10.0
aF10.0
aF10.0
aF10.0
aF10.0
aF10.0
aF10.0
aF10.0
aF10.0
aF9.0
aF10.0
aF10.0
aF10.0
aF10.0
aF10.0
aF10.0
aF9.0
aF10.0
aF10.0
aF10.0
aF10.0
aF10.0
aF10.0
aF9.0
aF10.0
aF10.0
aF10.0
aF10.0
aF10.0
aF10.0
aF10.0
aF10.0
aF10.0
aF10.0
aF1.0
aF8.0
aF9.0
aF10.0
aF10.0
aF10.0
aF10.0
aF10.0
aF9.0
aF10.0
aF10.0
aF10.0
aF6.0
aF10.0
aF10.0
aF10.0
aF10.0
aF10.0
aF10.0
aF10.0
aF10.0
aF10.0
aF10.0
aF10.0
aF10.0
aF10.0
aF10.0
aF10.0
aF10.0
aF10.0
aF10.0
aF10.0
aF10.0
aF10.0
aF10.0
aF9.0
aF10.0
aF10.0
aF10.0
aF10.0
aF10.0
aF10.0
aF10.0
aF10.0
aF10.0
aF9.0
aF9.0
aF7.0
aF10.0
aF10.0
aF10.0
aF10.0
aF10.0
aF10.0
aF10.0
aF9.0
aF10.0
aF10.0
aF10.0
aF10.0
aF10.0
aF9.0
aF10.0
aF10.0
aF10.0
aF10.0
aF10.0
aF10.0
aF10.0
aF10.0
aF10.0
aF10.0
aF10.0
aF10.0
aF10.0
aF10.0
aF10.0
aF10.0
aF10.0
aF10.0
aF10.0
aF10.0
aF10.0
aF10.0
aF10.0
aF10.0
aF8.0
aF10.0
aF10.0
aF10.0
aF10.0
aF9.0
aF9.0
aF10.0
aF10.0
aF10.0
aF10.0
aF10.0
aF10.0
aF10.0
aF10.0
aF10.0
aF10.0
aF9.0
aF3.0
aF10.0
aF10.0
aF10.0
aF10.0
aF10.0
aF5.0
aF10.0
aF10.0
aF10.0
aF10.0
aF10.0
aF10.0
aF10.0
aF10.0
aF10.0
aF10.0
aF10.0
aF10.0
aF8.0
aF10.0
aF10.0
aF10.0
aF10.0
aF10.0
aF10.0
aF10.0
aF8.0
aF10.0
aF10.0
aF10.0
aF10.0
aF10.0
aF10.0
aF10.0
aF6.0
aF10.0
aF8.0
aF10.0
aF10.0
aF8.0
aF9.0
aF10.0
aF10.0
aF10.0
aF10.0
aF10.0
aF10.0
aF9.0
aF10.0
aF10.0
aF10.0
aF10.0
aF10.0
aF10.0
aF10.0
aF10.0
aF10.0
aF10.0
aF7.0
aF10.0
aF10.0
aF10.0
aF10.0
aF10.0
aF10.0
aF10.0
aF9.0
aF10.0
aF10.0
aF6.0
aF10.0
aF10.0
aF10.0
aF10.0
aF9.0
aF10.0
aF10.0
aF10.0
aF10.0
aF10.0
aF10.0
aF10.0
aF10.0
aF10.0
aF7.0
aF10.0
aF10.0
aF10.0
aF7.0
aF10.0
aF10.0
aF10.0
aF9.0
aF6.0
aF9.0
aF10.0
aF10.0
aF10.0
aF10.0
aF10.0
aF10.0
aF10.0
aF10.0
aF10.0
aF10.0
aF10.0
aF10.0
aF10.0
aF10.0
aF10.0
aF10.0
aF10.0
aF9.0
aF10.0
aF10.0
aF3.0
aF9.0
aF2.0
aF9.0
aF10.0
aF10.0
aF10.0
aF9.0
aF10.0
aF10.0
aF10.0
aF10.0
aF10.0
aF10.0
aF10.0
aF10.0
aF10.0
aF10.0
aF10.0
aF10.0
aF10.0
aF10.0
aF10.0
aF7.0
aF10.0
aF10.0
aF10.0
aF10.0
aF10.0
aF10.0
aF10.0
aF10.0
aF10.0
aF10.0
aF10.0
aF10.0
aF10.0
aF10.0
aF9.0
aF10.0
aF10.0
aF10.0
aF10.0
aF10.0
aF10.0
aF10.0
aF10.0
aF10.0
aF10.0
aF10.0
aF10.0
aF-10.0
aF10.0
aF10.0
aF10.0
aF10.0
aF10.0
aF10.0
aF10.0
aF7.0
aF10.0
aF10.0
aF9.0
aF10.0
aF10.0
aF10.0
aF10.0
aF10.0
aF10.0
aF8.0
aF10.0
aF10.0
aF7.0
aF10.0
aF9.0
aF10.0
aF10.0
aF10.0
aF10.0
aF10.0
aF10.0
aF10.0
aF10.0
aF10.0
aF10.0
aF9.0
aF10.0
aF10.0
aF10.0
aF5.0
aF7.0
aF10.0
aF6.0
aF10.0
aF10.0
aF10.0
aF10.0
aF9.0
aF9.0
aF10.0
aF10.0
aF9.0
aF10.0
aF10.0
aF10.0
aF10.0
aF9.0
aF10.0
aF10.0
aF8.0
aF9.0
aF10.0
aF10.0
aF10.0
aF10.0
aF9.0
aF7.0
aF10.0
aF9.0
aF8.0
aF10.0
aF10.0
aF10.0
aF10.0
aF0.0
aF9.0
aF9.0
aF10.0
aF10.0
aF10.0
aF10.0
aF10.0
aF10.0
aF10.0
aF10.0
aF6.0
aF10.0
aF-12.0
aF9.0
aF10.0
aF9.0
aF10.0
aF10.0
aF9.0
aF10.0
aF10.0
aF9.0
aF10.0
aF10.0
aF10.0
aF10.0
aF10.0
aF9.0
aF8.0
aF9.0
aF10.0
aF10.0
aF10.0
aF10.0
aF10.0
aF10.0
aF10.0
aF10.0
aF9.0
aF10.0
aF10.0
aF9.0
aF9.0
aF10.0
aF9.0
aF10.0
aF10.0
aF10.0
aF10.0
aF10.0
aF10.0
aF10.0
aF10.0
aF10.0
aF10.0
aF4.0
aF10.0
aF10.0
aF10.0
aF10.0
aF10.0
aF10.0
aF10.0
aF10.0
aF10.0
aF10.0
aF10.0
aF10.0
aF10.0
aF8.0
aF9.0
aF10.0
aF10.0
aF10.0
aF10.0
aF10.0
aF10.0
aF9.0
aF-4.0
aF10.0
aF9.0
aF10.0
aF10.0
aF10.0
aF10.0
aF9.0
aF10.0
aF10.0
aF10.0
aF10.0
aF10.0
aF10.0
aF10.0
aF10.0
aF10.0
aF9.0
aF9.0
aF10.0
aF10.0
aF10.0
aF10.0
aF10.0
aF10.0
aF9.0
aF10.0
aF10.0
aF10.0
aF10.0
aF10.0
aF10.0
aF10.0
aF9.0
aF10.0
aF10.0
aF9.0
aF10.0
aF10.0
aF10.0
aF-4.0
aF10.0
aF10.0
aF10.0
aF10.0
aF9.0
aF10.0
aF10.0
aF10.0
aF10.0
aF8.0
aF10.0
aF10.0
aF9.0
aF10.0
aF6.0
aF10.0
aF10.0
aF10.0
aF10.0
aF10.0
aF10.0
aF10.0
aF10.0
aF10.0
aF10.0
aF10.0
aF10.0
aF9.0
aF10.0
aF10.0
aF10.0
aF10.0
aF10.0
aF10.0
aF0.0
aF10.0
aF9.0
aF10.0
aF9.0
aF10.0
aF10.0
aF10.0
aF10.0
aF10.0
aF10.0
aF10.0
aF10.0
aF10.0
aF10.0
aF8.0
aF9.0
aF10.0
aF10.0
aF10.0
aF10.0
aF8.0
aF-3.0
aF10.0
aF10.0
aF10.0
aF10.0
aF10.0
aF10.0
aF10.0
aF7.0
aF7.0
aF10.0
aF9.0
aF6.0
aF10.0
aF8.0
aF10.0
aF10.0
aF10.0
aF0.0
aF10.0
aF10.0
aF10.0
aF10.0
aF10.0
aF10.0
aF10.0
aF10.0
aF9.0
aF10.0
aF10.0
aF10.0
aF10.0
aF10.0
aF9.0
aF10.0
aF6.0
aF10.0
aF10.0
aF10.0
aF10.0
aF10.0
aF9.0
aF8.0
aF10.0
aF10.0
aF10.0
aF9.0
aF10.0
aF10.0
aF9.0
aF10.0
aF4.0
aF9.0
aF10.0
aF10.0
aF10.0
aF10.0
aF10.0
aF9.0
aF10.0
aF10.0
aF10.0
aF10.0
aF10.0
aF10.0
aF10.0
aF10.0
aF10.0
aF10.0
aF10.0
aF7.0
aF10.0
aF9.0
aF10.0
aF10.0
aF10.0
aF10.0
aF10.0
aF10.0
aF9.0
aF10.0
aF10.0
aF10.0
aF10.0
aF9.0
aF10.0
aF9.0
aF10.0
aF10.0
aF10.0
aF9.0
aF10.0
aF10.0
aF10.0
aF10.0
aF8.0
aF10.0
aF8.0
aF10.0
aF9.0
aF10.0
aF10.0
aF10.0
aF10.0
aF10.0
aF10.0
aF10.0
aF10.0
aF9.0
aF10.0
aF-1.0
aF10.0
aF8.0
aF10.0
aF10.0
aF9.0
aF10.0
aF10.0
aF10.0
aF10.0
aF10.0
aF10.0
aF10.0
aF9.0
aF10.0
aF10.0
aF10.0
aF10.0
aF10.0
aF7.0
aF7.0
aF10.0
aF10.0
aF10.0
aF8.0
aF10.0
aF10.0
aF10.0
aF10.0
aF10.0
aF10.0
aF10.0
aF10.0
aF10.0
aF10.0
aF10.0
aF10.0
aF10.0
aF10.0
aF10.0
aF10.0
aF8.0
aF10.0
aF10.0
aF9.0
aF10.0
aF10.0
aF10.0
aF10.0
aF10.0
aF10.0
aF10.0
aF9.0
aF6.0
aF10.0
aF10.0
aF10.0
aF10.0
aF10.0
aF3.0
aF10.0
aF10.0
aF10.0
aF10.0
aF10.0
aF10.0
aF9.0
aF10.0
aF10.0
aF5.0
aF10.0
aF10.0
aF10.0
aF10.0
aF8.0
aF10.0
aF10.0
aF10.0
aF10.0
aF10.0
aF10.0
aF10.0
aF10.0
aF10.0
aF10.0
aF9.0
aF10.0
aF10.0
aF10.0
aF7.0
aF10.0
aF10.0
aF10.0
aF8.0
aF10.0
aF10.0
aF10.0
aF10.0
aF10.0
aF10.0
aF10.0
aF5.0
aF10.0
aF10.0
aF10.0
aF10.0
aF10.0
aF10.0
aF10.0
aF10.0
aF5.0
aF6.0
aF10.0
aF10.0
aF10.0
aF10.0
aF10.0
aF10.0
aF9.0
aF10.0
aF10.0
aF10.0
aF5.0
aF10.0
aF10.0
aF10.0
aF8.0
aF10.0
aF10.0
aF10.0
aF10.0
aF10.0
aF10.0
aF10.0
aF9.0
aF10.0
aF-1.0
aF8.0
aF10.0
aF10.0
aF10.0
aF10.0
aF10.0
aF10.0
aF10.0
aF10.0
aF10.0
aF10.0
aF8.0
aF10.0
aF6.0
aF10.0
aF10.0
aF10.0
aF9.0
aF9.0
aF10.0
aF10.0
aF10.0
aF10.0
aF10.0
aF10.0
aF7.0
aF3.0
aF8.0
aF9.0
aF10.0
aF10.0
aF10.0
aF10.0
aF7.0
aF9.0
aF10.0
aF10.0
aF7.0
aF9.0
aF10.0
aF10.0
aF9.0
aF3.0
aF10.0
aF10.0
aF10.0
aF9.0
aF8.0
aF10.0
aF6.0
aF10.0
aF8.0
aF10.0
aF10.0
aF10.0
aF9.0
aF10.0
aF10.0
aF10.0
aF10.0
aF10.0
aF10.0
aF10.0
aF10.0
aF5.0
aF9.0
aF10.0
aF9.0
aF10.0
aF10.0
aF8.0
aF10.0
aF10.0
aF10.0
aF10.0
aF10.0
aF10.0
aF10.0
aF10.0
aF10.0
aF10.0
aF9.0
aF10.0
aF10.0
aF9.0
aF6.0
aF10.0
aF8.0
aF10.0
aF10.0
aF4.0
aF10.0
aF10.0
aF10.0
aF10.0
aF10.0
aF10.0
aF10.0
aF6.0
aF10.0
aF10.0
aF1.0
aF10.0
aF10.0
aF10.0
aF10.0
aF4.0
aF9.0
aF10.0
aF10.0
aF10.0
aF10.0
aF10.0
aF10.0
aF10.0
aF10.0
aF10.0
aF10.0
aF10.0
aF10.0
aF10.0
aF10.0
aF10.0
aF9.0
aF9.0
aF10.0
aF10.0
aF10.0
aF10.0
aF10.0
aF10.0
aF10.0
aF0.0
aF10.0
aF10.0
aF10.0
aF10.0
aF5.0
aF10.0
aF9.0
aF10.0
aF10.0
aF10.0
aF10.0
aF10.0
aF10.0
aF10.0
aF10.0
aF10.0
aF10.0
aF5.0
aF10.0
aF10.0
aF9.0
aF10.0
aF10.0
aF10.0
aF10.0
aF10.0
aF10.0
aF10.0
aF10.0
aF10.0
aF10.0
aF10.0
aF10.0
aF10.0
aF7.0
aF10.0
aF10.0
aF10.0
aF10.0
aF9.0
aF1.0
aF10.0
aF10.0
aF10.0
aF9.0
aF10.0
aF10.0
aF10.0
aF10.0
aF10.0
aF10.0
aF10.0
aF8.0
aF10.0
aF9.0
aF10.0
aF10.0
aF10.0
aF10.0
aF10.0
aF10.0
aF5.0
aF10.0
aF10.0
aF10.0
aF10.0
aF10.0
aF10.0
aF10.0
aF10.0
aF4.0
aF10.0
aF10.0
aF10.0
aF10.0
aF10.0
aF10.0
aF10.0
aF10.0
aF9.0
aF10.0
aF10.0
aF10.0
aF10.0
aF10.0
aF10.0
aF5.0
aF9.0
aF10.0
aF9.0
aF10.0
aF10.0
aF9.0
aF10.0
aF10.0
aF10.0
aF5.0
aF10.0
aF10.0
aF10.0
aF10.0
aF10.0
aF10.0
aF10.0
aF10.0
aF9.0
aF10.0
aF10.0
aF4.0
aF10.0
aF10.0
aF2.0
aF10.0
aF10.0
aF9.0
aF5.0
aF10.0
aF10.0
aF9.0
aF10.0
aF6.0
aF9.0
aF9.0
aF10.0
aF10.0
aF10.0
aF10.0
aF8.0
aF2.0
aF8.0
aF10.0
aF10.0
aF9.0
aF10.0
aF10.0
aF10.0
aF10.0
aF10.0
aF10.0
aF10.0
aF10.0
aF9.0
aF10.0
aF10.0
aF10.0
aF10.0
aF10.0
aF10.0
aF10.0
aF9.0
aF10.0
aF10.0
aF10.0
aF10.0
aF10.0
aF10.0
aF10.0
aF10.0
aF10.0
aF9.0
aF10.0
aF9.0
aF10.0
aF10.0
aF10.0
aF10.0
aF4.0
aF10.0
aF0.0
aF10.0
aF0.0
aF10.0
aF7.0
aF9.0
aF10.0
aF10.0
aF10.0
aF10.0
aF10.0
aF10.0
aF1.0
aF10.0
aF9.0
aF3.0
aF10.0
aF5.0
aF9.0
aF10.0
aF10.0
aF10.0
aF10.0
aF9.0
aF10.0
aF10.0
aF10.0
aF9.0
aF8.0
aF10.0
aF6.0
aF10.0
aF10.0
aF10.0
aF10.0
aF8.0
aF9.0
aF9.0
aF10.0
aF10.0
aF10.0
aF10.0
aF10.0
aF7.0
aF10.0
aF8.0
aF7.0
aF10.0
aF10.0
aF10.0
aF10.0
aF10.0
aF10.0
aF10.0
aF10.0
aF8.0
aF10.0
aF10.0
aF8.0
aF10.0
aF10.0
aF10.0
aF10.0
aF10.0
aF8.0
aF10.0
aF10.0
aF10.0
aF10.0
aF10.0
aF10.0
aF10.0
aF7.0
aF10.0
aF10.0
aF10.0
aF10.0
aF10.0
aF10.0
aF10.0
aF10.0
aF10.0
aF10.0
aF10.0
aF10.0
aF10.0
aF10.0
aF8.0
aF10.0
aF10.0
aF10.0
aF10.0
aF10.0
aF10.0
aF10.0
aF10.0
aF5.0
aF10.0
aF9.0
aF10.0
aF10.0
aF10.0
aF7.0
aF9.0
aF10.0
aF10.0
aF10.0
aF10.0
aF5.0
aF10.0
aF4.0
aF10.0
aF10.0
aF9.0
aF10.0
aF10.0
aF7.0
aF10.0
aF10.0
aF10.0
aF10.0
aF10.0
aF10.0
aF6.0
aF8.0
aF8.0
aF9.0
aF10.0
aF7.0
aF7.0
aF10.0
aF10.0
aF10.0
aF10.0
aF6.0
aF10.0
aF10.0
aF10.0
aF10.0
aF5.0
aF10.0
aF5.0
aF10.0
aF10.0
aF7.0
aF10.0
aF10.0
aF10.0
aF10.0
aF10.0
aF9.0
aF10.0
aF10.0
aF3.0
aF10.0
aF10.0
aF10.0
aF10.0
aF10.0
aF10.0
aF8.0
aF10.0
aF10.0
aF10.0
aF10.0
aF10.0
aF10.0
aF10.0
aF10.0
aF10.0
aF10.0
aF10.0
aF10.0
aF10.0
aF10.0
aF4.0
aF10.0
aF10.0
aF10.0
aF10.0
aF9.0
aF10.0
aF10.0
aF5.0
aF10.0
aF10.0
aF9.0
aF10.0
aF10.0
aF9.0
aF10.0
aF10.0
aF9.0
aF10.0
aF10.0
aF10.0
aF10.0
aF10.0
aF10.0
aF10.0
aF10.0
aF10.0
aF9.0
aF10.0
aF8.0
aF10.0
aF10.0
aF10.0
aF10.0
aF6.0
aF9.0
aF10.0
aF10.0
aF10.0
aF10.0
aF10.0
aF10.0
aF9.0
aF10.0
aF10.0
aF8.0
aF10.0
aF10.0
aF10.0
aF8.0
aF-1.0
aF10.0
aF9.0
aF10.0
aF10.0
aF10.0
aF10.0
aF10.0
aF10.0
aF4.0
aF10.0
aF10.0
aF10.0
aF10.0
aF10.0
aF10.0
aF10.0
aF4.0
aF10.0
aF10.0
aF5.0
aF10.0
aF9.0
aF10.0
aF10.0
aF10.0
aF9.0
aF8.0
aF10.0
aF4.0
aF10.0
aF10.0
aF10.0
aF1.0
aF8.0
aF10.0
aF8.0
aF10.0
aF8.0
aF10.0
aF10.0
aF7.0
aF10.0
aF10.0
aF10.0
aF10.0
aF10.0
aF9.0
aF10.0
aF10.0
aF10.0
aF4.0
aF9.0
aF10.0
aF10.0
aF10.0
aF10.0
aF10.0
aF10.0
aF10.0
aF10.0
aF10.0
aF10.0
aF3.0
aF10.0
aF10.0
aF9.0
aF10.0
aF10.0
aF10.0
aF0.0
aF10.0
aF9.0
aF10.0
aF10.0
aF10.0
aF8.0
aF10.0
aF10.0
aF10.0
aF10.0
aF10.0
aF10.0
aF10.0
aF10.0
aF10.0
aF10.0
aF10.0
aF10.0
aF10.0
aF10.0
aF4.0
aF10.0
aF10.0
aF9.0
aF10.0
aF10.0
aF10.0
aF10.0
aF10.0
aF9.0
aF10.0
aF10.0
aF9.0
aF10.0
aF10.0
aF10.0
aF10.0
aF10.0
aF4.0
aF10.0
aF10.0
aF10.0
aF4.0
aF10.0
aF10.0
aF10.0
aF10.0
aF10.0
aF10.0
aF10.0
aF9.0
aF8.0
aF10.0
aF10.0
aF10.0
aF10.0
aF10.0
aF10.0
aF10.0
aF9.0
aF10.0
aF9.0
aF10.0
aF4.0
aF8.0
aF10.0
aF10.0
aF10.0
aF10.0
aF10.0
aF10.0
aF10.0
aF10.0
aF10.0
aF8.0
aF9.0
aF10.0
aF10.0
aF10.0
aF9.0
aF10.0
aF10.0
aF10.0
aF10.0
aF10.0
aF10.0
aF9.0
aF10.0
aF9.0
aF10.0
aF10.0
aF10.0
aF10.0
aF10.0
aF8.0
aF10.0
aF10.0
aF10.0
aF10.0
aF10.0
aF10.0
aF10.0
aF10.0
aF10.0
aF7.0
aF10.0
aF9.0
aF10.0
aF8.0
aF9.0
aF10.0
aF10.0
aF10.0
aF10.0
aF10.0
aF10.0
aF10.0
aF10.0
aF8.0
aF10.0
aF10.0
aF10.0
aF10.0
aF10.0
aF10.0
aF9.0
aF10.0
aF10.0
aF7.0
aF10.0
aF8.0
aF10.0
aF10.0
aF10.0
aF10.0
aF10.0
aF9.0
aF10.0
aF10.0
aF10.0
aF10.0
aF10.0
aF9.0
aF10.0
aF6.0
aF10.0
aF10.0
aF9.0
aF10.0
aF10.0
aF10.0
aF10.0
aF10.0
aF10.0
aF10.0
aF10.0
aF10.0
aF9.0
aF10.0
aF10.0
aF10.0
aF10.0
aF10.0
aF10.0
aF4.0
aF10.0
aF10.0
aF10.0
aF10.0
aF10.0
aF10.0
aF10.0
aF10.0
aF10.0
aF10.0
aF9.0
aF10.0
aF10.0
aF10.0
aF10.0
aF10.0
aF10.0
aF9.0
aF10.0
aF10.0
aF10.0
aF10.0
aF10.0
aF10.0
aF5.0
aF10.0
aF10.0
aF10.0
aF10.0
aF10.0
aF10.0
aF4.0
aF10.0
aF9.0
aF10.0
aF6.0
aF9.0
aF10.0
aF10.0
aF10.0
aF10.0
aF10.0
aF10.0
aF8.0
aF10.0
aF10.0
aF10.0
aF10.0
aF10.0
aF10.0
aF9.0
aF10.0
aF10.0
aF1.0
aF10.0
aF10.0
aF10.0
aF10.0
aF10.0
aF10.0
aF10.0
aF10.0
aF10.0
aF10.0
aF10.0
aF10.0
aF10.0
aF9.0
aF10.0
aF10.0
aF6.0
aF10.0
aF10.0
aF10.0
aF10.0
aF4.0
aF10.0
aF10.0
aF10.0
aF9.0
aF10.0
aF10.0
aF8.0
aF9.0
aF10.0
aF8.0
aF9.0
aF10.0
aF10.0
aF10.0
aF10.0
aF10.0
aF10.0
aF10.0
aF6.0
aF10.0
aF10.0
aF8.0
aF10.0
aF10.0
aF10.0
aF10.0
aF10.0
aF10.0
aF10.0
aF10.0
aF9.0
aF10.0
aF10.0
aF10.0
aF10.0
aF10.0
aF7.0
aF10.0
aF10.0
aF10.0
aF9.0
aF10.0
aF10.0
aF10.0
aF10.0
aF10.0
aF9.0
aF9.0
aF10.0
aF10.0
aF10.0
aF3.0
aF10.0
aF10.0
aF10.0
aF7.0
aF-3.0
aF10.0
aF10.0
aF10.0
aF10.0
aF10.0
aF10.0
aF10.0
aF9.0
aF8.0
aF10.0
aF10.0
aF10.0
aF8.0
aF10.0
aF9.0
aF9.0
aF10.0
aF9.0
aF10.0
aF7.0
aF10.0
aF10.0
aF9.0
aF10.0
aF10.0
aF9.0
aF3.0
aF10.0
aF10.0
aF10.0
aF9.0
aF10.0
aF10.0
aF10.0
aF8.0
aF10.0
aF10.0
aF9.0
aF10.0
aF-17.0
aF7.0
aF4.0
aF10.0
aF10.0
aF8.0
aF10.0
aF10.0
aF9.0
aF10.0
aF10.0
aF10.0
aF10.0
aF-1.0
aF10.0
aF5.0
aF10.0
aF10.0
aF10.0
aF10.0
aF10.0
aF10.0
aF8.0
aF10.0
aF10.0
aF10.0
aF10.0
aF10.0
aF10.0
aF7.0
aF7.0
aF7.0
aF10.0
aF10.0
aF8.0
aF10.0
aF7.0
aF10.0
aF10.0
aF9.0
aF10.0
aF10.0
aF10.0
aF10.0
aF10.0
aF10.0
aF10.0
aF10.0
aF6.0
aF10.0
aF10.0
aF9.0
aF10.0
aF8.0
aF10.0
aF10.0
aF10.0
aF10.0
aF10.0
aF10.0
aF10.0
aF5.0
aF10.0
aF3.0
aF10.0
aF10.0
aF10.0
aF10.0
aF10.0
aF10.0
aF10.0
aF10.0
aF10.0
aF10.0
aF10.0
aF10.0
aF10.0
aF10.0
aF7.0
aF8.0
aF10.0
aF10.0
aF10.0
aF10.0
aF10.0
aF10.0
aF9.0
aF9.0
aF10.0
aF10.0
aF10.0
aF10.0
aF10.0
aF10.0
aF10.0
aF10.0
aF8.0
aF3.0
aF10.0
aF9.0
aF10.0
aF10.0
aF10.0
aF10.0
aF9.0
aF4.0
aF10.0
aF10.0
aF10.0
aF7.0
aF8.0
aF10.0
aF10.0
aF10.0
aF10.0
aF7.0
aF10.0
aF9.0
aF10.0
aF9.0
aF10.0
aF6.0
aF10.0
aF10.0
aF10.0
aF9.0
aF10.0
aF10.0
aF10.0
aF10.0
aF9.0
aF4.0
aF10.0
aF7.0
aF10.0
aF10.0
aF10.0
aF10.0
aF10.0
aF10.0
aF10.0
aF10.0
aF10.0
aF10.0
aF10.0
aF10.0
aF10.0
aF10.0
aF10.0
aF10.0
aF10.0
aF9.0
aF10.0
aF10.0
aF9.0
aF10.0
aF4.0
aF10.0
aF3.0
aF5.0
aF10.0
aF10.0
aF10.0
aF7.0
aF5.0
aF10.0
aF10.0
aF10.0
aF10.0
aF10.0
aF10.0
aF9.0
aF10.0
aF6.0
aF10.0
aF10.0
aF6.0
aF10.0
aF10.0
aF10.0
aF10.0
aF10.0
aF7.0
aF10.0
aF9.0
aF10.0
aF9.0
aF10.0
aF10.0
aF10.0
aF8.0
aF10.0
aF4.0
aF10.0
aF10.0
aF10.0
aF10.0
aF10.0
aF10.0
aF10.0
aF10.0
aF10.0
aF10.0
aF10.0
aF10.0
aF10.0
aF10.0
aF10.0
aF10.0
aF10.0
aF10.0
aF10.0
aF10.0
aF10.0
aF8.0
aF9.0
aF10.0
aF10.0
aF10.0
aF10.0
aF10.0
aF10.0
aF9.0
aF10.0
aF9.0
aF10.0
aF10.0
aF10.0
aF10.0
aF10.0
aF10.0
aF10.0
aF4.0
aF10.0
aF10.0
aF10.0
aF10.0
aF10.0
aF10.0
aF10.0
aF8.0
aF10.0
aF10.0
aF10.0
aF10.0
aF9.0
aF5.0
aF10.0
aF8.0
aF10.0
aF8.0
aF10.0
aF10.0
aF10.0
aF9.0
aF10.0
aF7.0
aF9.0
aF10.0
aF10.0
aF10.0
aF10.0
aF10.0
aF10.0
aF10.0
aF10.0
aF10.0
aF10.0
aF10.0
aF7.0
aF10.0
aF10.0
aF10.0
aF10.0
aF10.0
aF10.0
aF10.0
aF8.0
aF8.0
aF6.0
aF10.0
aF5.0
aF10.0
aF9.0
aF8.0
aF8.0
aF9.0
aF10.0
aF9.0
aF10.0
aF10.0
aF10.0
aF10.0
aF10.0
aF10.0
aF10.0
aF10.0
aF10.0
aF10.0
aF10.0
aF10.0
aF10.0
aF3.0
aF7.0
aF9.0
aF10.0
aF10.0
aF10.0
aF10.0
aF10.0
aF10.0
aF10.0
aF10.0
aF10.0
aF10.0
aF10.0
aF10.0
aF4.0
aF10.0
aF10.0
aF10.0
aF10.0
aF10.0
aF10.0
aF8.0
aF9.0
aF10.0
aF10.0
aF10.0
aF10.0
aF10.0
aF10.0
aF10.0
aF10.0
aF10.0
aF10.0
aF10.0
aF10.0
aF10.0
aF10.0
aF10.0
aF8.0
aF10.0
aF10.0
aF7.0
aF10.0
aF7.0
aF10.0
aF10.0
aF10.0
aF10.0
aF6.0
aF10.0
aF10.0
aF10.0
aF10.0
aF10.0
aF8.0
aF10.0
aF10.0
aF10.0
aF10.0
aF9.0
aF10.0
aF10.0
aF10.0
aF10.0
aF10.0
aF10.0
aF10.0
aF9.0
aF9.0
aF10.0
aF10.0
aF3.0
aF10.0
aF9.0
aF9.0
aF10.0
aF10.0
aF10.0
aF10.0
aF10.0
aF10.0
aF10.0
aF10.0
aF8.0
aF10.0
aF10.0
aF10.0
aF10.0
aF10.0
aF5.0
aF10.0
aF10.0
aF10.0
aF10.0
aF10.0
aF10.0
aF10.0
aF10.0
aF10.0
aF10.0
aF10.0
aF9.0
aF10.0
aF9.0
aF6.0
aF10.0
aF10.0
aF9.0
aF10.0
aF10.0
aF10.0
aF10.0
aF10.0
aF10.0
aF10.0
aF10.0
aF10.0
aF10.0
aF10.0
aF10.0
aF3.0
aF10.0
aF10.0
aF10.0
aF10.0
aF10.0
aF10.0
aF10.0
aF8.0
aF1.0
aF10.0
aF10.0
aF10.0
aF10.0
aF10.0
aF10.0
aF10.0
aF10.0
aF10.0
aF10.0
aF10.0
aF10.0
aF10.0
aF10.0
aF10.0
aF10.0
aF9.0
aF10.0
aF10.0
aF10.0
aF10.0
aF10.0
aF10.0
aF10.0
aF10.0
aF10.0
aF10.0
aF10.0
aF10.0
aF10.0
aF10.0
aF10.0
aF10.0
aF6.0
aF10.0
aF8.0
aF-4.0
aF10.0
aF6.0
aF10.0
aF7.0
aF10.0
aF9.0
aF10.0
aF10.0
aF8.0
aF9.0
aF10.0
aF10.0
aF9.0
aF10.0
aF8.0
aF10.0
aF9.0
aF9.0
aF10.0
aF10.0
aF10.0
aF8.0
aF10.0
aF10.0
aF10.0
aF10.0
aF9.0
aF9.0
aF8.0
aF10.0
aF10.0
aF10.0
aF10.0
aF10.0
aF10.0
aF7.0
aF9.0
aF10.0
aF10.0
aF10.0
aF10.0
aF5.0
aF0.0
aF10.0
aF10.0
aF10.0
aF10.0
aF10.0
aF10.0
aF10.0
aF10.0
aF10.0
aF10.0
aF10.0
aF10.0
aF10.0
aF10.0
aF10.0
aF10.0
aF10.0
aF10.0
aF10.0
aF10.0
aF9.0
aF10.0
aF10.0
aF10.0
aF10.0
aF10.0
aF10.0
aF10.0
aF10.0
aF8.0
aF10.0
aF9.0
aF9.0
aF9.0
aF9.0
aF10.0
aF10.0
aF10.0
aF10.0
aF7.0
aF10.0
aF10.0
aF10.0
aF10.0
aF10.0
aF10.0
aF10.0
aF10.0
aF10.0
aF10.0
aF10.0
aF10.0
aF10.0
aF10.0
aF9.0
aF10.0
aF10.0
aF10.0
aF10.0
aF10.0
aF10.0
aF10.0
aF9.0
aF10.0
aF10.0
aF10.0
aF10.0
aF10.0
aF10.0
aF9.0
aF10.0
aF10.0
aF10.0
aF7.0
aF10.0
aF10.0
aF10.0
aF10.0
aF10.0
aF10.0
aF9.0
aF10.0
aF8.0
aF10.0
aF10.0
aF10.0
aF10.0
aF10.0
aF10.0
aF10.0
aF10.0
aF5.0
aF10.0
aF10.0
aF10.0
aF8.0
aF10.0
aF10.0
aF10.0
aF10.0
aF10.0
aF9.0
aF10.0
aF10.0
aF10.0
aF10.0
aF7.0
aF10.0
aF10.0
aF10.0
aF10.0
aF10.0
aF10.0
aF10.0
aF10.0
aF10.0
aF10.0
aF9.0
aF10.0
aF10.0
aF10.0
aF10.0
aF10.0
aF10.0
aF10.0
aF8.0
aF10.0
aF10.0
aF10.0
aF10.0
aF10.0
aF5.0
aF2.0
aF9.0
aF6.0
aF10.0
aF10.0
aF10.0
aF10.0
aF10.0
aF10.0
aF9.0
aF10.0
aF10.0
aF10.0
aF10.0
aF7.0
aF10.0
aF10.0
aF10.0
aF10.0
aF10.0
aF10.0
aF7.0
aF10.0
aF10.0
aF10.0
aF10.0
aF10.0
aF10.0
aF10.0
aF10.0
aF10.0
aF10.0
aF10.0
aF10.0
aF10.0
aF10.0
aF10.0
aF10.0
aF10.0
aF10.0
aF10.0
aF10.0
aF10.0
aF9.0
aF10.0
aF10.0
aF10.0
aF10.0
aF10.0
aF7.0
aF10.0
aF10.0
aF10.0
aF10.0
aF9.0
aF-8.0
aF10.0
aF8.0
aF10.0
aF10.0
aF10.0
aF10.0
aF10.0
aF10.0
aF10.0
aF10.0
aF10.0
aF10.0
aF10.0
aF10.0
aF10.0
aF10.0
aF9.0
aF10.0
aF9.0
aF10.0
aF8.0
aF9.0
aF10.0
aF10.0
aF10.0
aF10.0
aF10.0
aF9.0
aF7.0
aF8.0
aF10.0
aF10.0
aF10.0
aF10.0
aF10.0
aF10.0
aF10.0
aF9.0
aF10.0
aF10.0
aF10.0
aF10.0
aF10.0
aF10.0
aF7.0
aF8.0
aF10.0
aF10.0
aF10.0
aF10.0
aF10.0
aF10.0
aF10.0
aF10.0
aF8.0
aF10.0
aF10.0
aF7.0
aF10.0
aF10.0
aF10.0
aF10.0
aF10.0
aF10.0
aF10.0
aF10.0
aF10.0
aF10.0
aF10.0
aF10.0
aF10.0
aF10.0
aF10.0
aF10.0
aF10.0
aF10.0
aF10.0
aF10.0
aF10.0
aF10.0
aF10.0
aF10.0
aF10.0
aF9.0
aF10.0
aF10.0
aF8.0
aF9.0
aF9.0
aF10.0
aF9.0
aF10.0
aF10.0
aF10.0
aF10.0
aF9.0
aF10.0
aF10.0
aF10.0
aF10.0
aF10.0
aF10.0
aF10.0
aF10.0
aF9.0
aF10.0
aF10.0
aF10.0
aF10.0
aF10.0
aF10.0
aF10.0
aF9.0
aF9.0
aF10.0
aF10.0
aF10.0
aF10.0
aF9.0
aF10.0
aF10.0
aF10.0
aF7.0
aF8.0
aF10.0
aF10.0
aF9.0
aF10.0
aF10.0
aF10.0
aF10.0
aF10.0
aF10.0
aF10.0
aF10.0
aF10.0
aF9.0
aF10.0
aF10.0
aF4.0
aF9.0
aF10.0
aF10.0
aF7.0
aF10.0
aF10.0
aF10.0
aF9.0
aF10.0
aF10.0
aF10.0
aF10.0
aF10.0
aF10.0
aF9.0
aF10.0
aF10.0
aF10.0
aF8.0
aF10.0
aF9.0
aF10.0
aF10.0
aF10.0
aF10.0
aF9.0
aF10.0
aF10.0
aF10.0
aF10.0
aF10.0
aF9.0
aF10.0
aF10.0
aF10.0
aF10.0
aF9.0
aF6.0
aF10.0
aF10.0
aF10.0
aF10.0
aF10.0
aF10.0
aF10.0
aF9.0
aF10.0
aF10.0
aF10.0
aF10.0
aF10.0
aF10.0
aF10.0
aF10.0
aF10.0
aF10.0
aF10.0
aF9.0
aF10.0
aF9.0
aF10.0
aF10.0
aF10.0
aF6.0
aF9.0
aF10.0
aF10.0
aF10.0
aF10.0
aF10.0
aF10.0
aF10.0
aF9.0
aF4.0
aF10.0
aF10.0
aF9.0
aF10.0
aF10.0
aF9.0
aF10.0
aF8.0
aF10.0
aF10.0
aF10.0
aF10.0
aF9.0
aF10.0
aF10.0
aF10.0
aF4.0
aF10.0
aF10.0
aF10.0
aF10.0
aF10.0
aF7.0
aF10.0
aF10.0
aF10.0
aF9.0
aF8.0
aF10.0
aF10.0
aF10.0
aF10.0
aF10.0
aF10.0
aF8.0
aF10.0
aF10.0
aF10.0
aF10.0
aF4.0
aF10.0
aF9.0
aF10.0
aF7.0
aF9.0
aF10.0
aF10.0
aF10.0
aF9.0
aF6.0
aF10.0
aF10.0
aF10.0
aF10.0
aF10.0
aF10.0
aF10.0
aF10.0
aF10.0
aF9.0
aF10.0
aF10.0
aF9.0
aF10.0
aF10.0
aF10.0
aF10.0
aF10.0
aF10.0
aF10.0
aF10.0
aF10.0
aF10.0
aF10.0
aF10.0
aF10.0
aF10.0
aF10.0
aF10.0
aF8.0
aF8.0
aF10.0
aF10.0
aF9.0
aF10.0
aF10.0
aF10.0
aF5.0
aF10.0
aF10.0
aF10.0
aF10.0
aF10.0
aF10.0
aF3.0
aF10.0
aF8.0
aF10.0
aF10.0
aF10.0
aF8.0
aF10.0
aF10.0
aF10.0
aF10.0
aF9.0
aF10.0
aF10.0
aF10.0
aF5.0
aF10.0
aF9.0
aF10.0
aF10.0
aF10.0
aF10.0
aF10.0
aF5.0
aF10.0
aF10.0
aF10.0
aF5.0
aF10.0
aF10.0
aF9.0
aF10.0
aF10.0
aF8.0
aF10.0
aF10.0
aF10.0
aF9.0
aF9.0
aF9.0
aF9.0
aF10.0
aF10.0
aF10.0
aF4.0
aF10.0
aF10.0
aF10.0
aF9.0
aF10.0
aF10.0
aF10.0
aF10.0
aF9.0
aF9.0
aF10.0
aF9.0
aF10.0
aF10.0
aF-9.0
aF10.0
aF9.0
aF7.0
aF10.0
aF10.0
aF10.0
aF10.0
aF10.0
aF10.0
aF10.0
aF10.0
aF10.0
aF9.0
aF10.0
aF10.0
aF10.0
aF10.0
aF10.0
aF10.0
aF9.0
aF10.0
aF10.0
aF10.0
aF10.0
aF10.0
aF-3.0
aF10.0
aF10.0
aF10.0
aF9.0
aF10.0
aF9.0
aF10.0
aF10.0
aF9.0
aF10.0
aF10.0
aF6.0
aF7.0
aF10.0
aF10.0
aF10.0
aF10.0
aF10.0
aF10.0
aF10.0
aF10.0
aF10.0
aF10.0
aF9.0
aF8.0
aF10.0
aF10.0
aF10.0
aF10.0
aF10.0
aF6.0
aF5.0
aF10.0
aF9.0
aF5.0
aF10.0
aF10.0
aF7.0
aF9.0
aF10.0
aF10.0
aF10.0
aF9.0
aF9.0
aF10.0
aF10.0
aF10.0
aF10.0
aF9.0
aF10.0
aF9.0
aF10.0
aF10.0
aF10.0
aF10.0
aF10.0
aF7.0
aF9.0
aF10.0
aF10.0
aF9.0
aF10.0
aF10.0
aF10.0
aF10.0
aF10.0
aF10.0
aF6.0
aF10.0
aF9.0
aF10.0
aF10.0
aF10.0
aF10.0
aF10.0
aF5.0
aF10.0
aF10.0
aF10.0
aF9.0
aF8.0
aF10.0
aF10.0
aF10.0
aF10.0
aF10.0
aF10.0
aF10.0
aF10.0
aF10.0
aF10.0
aF10.0
aF10.0
aF9.0
aF9.0
aF10.0
aF10.0
aF10.0
aF10.0
aF10.0
aF10.0
aF10.0
aF10.0
aF10.0
aF10.0
aF4.0
aF10.0
aF4.0
aF10.0
aF10.0
aF10.0
aF10.0
aF10.0
aF10.0
aF10.0
aF10.0
aF9.0
aF10.0
aF2.0
aF10.0
aF10.0
aF10.0
aF10.0
aF10.0
aF6.0
aF10.0
aF10.0
aF9.0
aF8.0
aF10.0
aF10.0
aF10.0
aF10.0
aF10.0
aF10.0
aF10.0
aF10.0
aF10.0
aF8.0
aF8.0
aF8.0
aF10.0
aF2.0
aF10.0
aF10.0
aF10.0
aF9.0
aF10.0
aF9.0
aF10.0
aF10.0
aF10.0
aF10.0
aF10.0
aF10.0
aF10.0
aF10.0
aF9.0
aF10.0
aF10.0
aF10.0
aF10.0
aF6.0
aF10.0
aF10.0
aF10.0
aF2.0
aF5.0
aF10.0
aF1.0
aF10.0
aF10.0
aF9.0
aF10.0
aF5.0
aF10.0
aF10.0
aF10.0
aF8.0
aF10.0
aF10.0
aF10.0
aF10.0
aF8.0
aF-2.0
aF10.0
aF10.0
aF10.0
aF9.0
aF10.0
aF10.0
aF10.0
aF10.0
aF8.0
aF10.0
aF10.0
aF10.0
aF8.0
aF10.0
aF9.0
aF10.0
aF10.0
aF10.0
aF10.0
aF10.0
aF10.0
aF7.0
aF10.0
aF10.0
aF10.0
aF9.0
aF10.0
aF10.0
aF10.0
aF10.0
aF9.0
aF10.0
aF9.0
aF10.0
aF10.0
aF8.0
aF10.0
aF8.0
aF10.0
aF10.0
aF9.0
aF10.0
aF10.0
aF8.0
aF10.0
aF8.0
aF10.0
aF10.0
aF10.0
aF10.0
aF10.0
aF10.0
aF7.0
aF8.0
aF10.0
aF8.0
aF10.0
aF10.0
aF7.0
aF10.0
aF9.0
aF10.0
aF10.0
aF10.0
aF10.0
aF9.0
aF10.0
aF10.0
aF10.0
aF10.0
aF10.0
aF10.0
aF9.0
aF10.0
aF10.0
aF7.0
aF10.0
aF10.0
aF9.0
aF10.0
aF10.0
aF10.0
aF10.0
aF10.0
aF10.0
aF10.0
aF6.0
aF9.0
aF10.0
aF10.0
aF10.0
aF10.0
aF10.0
aF10.0
aF10.0
aF10.0
aF10.0
aF9.0
aF10.0
aF10.0
aF10.0
aF10.0
aF10.0
aF9.0
aF10.0
aF6.0
aF10.0
aF10.0
aF10.0
aF9.0
aF10.0
aF9.0
aF7.0
aF10.0
aF9.0
aF10.0
aF10.0
aF10.0
aF10.0
aF10.0
aF10.0
aF10.0
aF10.0
aF10.0
aF10.0
aF10.0
aF10.0
aF10.0
aF8.0
aF10.0
aF10.0
aF10.0
aF10.0
aF10.0
aF5.0
aF10.0
aF10.0
aF8.0
aF10.0
aF10.0
aF8.0
aF9.0
aF9.0
aF10.0
aF10.0
aF10.0
aF10.0
aF10.0
aF10.0
aF9.0
aF10.0
aF9.0
aF3.0
aF9.0
aF8.0
aF10.0
aF10.0
aF10.0
aF10.0
aF10.0
aF10.0
aF10.0
aF9.0
aF9.0
aF10.0
aF10.0
aF10.0
aF10.0
aF10.0
aF10.0
aF10.0
aF10.0
aF10.0
aF10.0
aF10.0
aF8.0
aF10.0
aF10.0
aF10.0
aF8.0
aF-1.0
aF10.0
aF10.0
aF4.0
aF8.0
aF10.0
aF8.0
aF10.0
aF10.0
aF6.0
aF10.0
aF10.0
aF10.0
aF10.0
aF6.0
aF10.0
aF10.0
aF10.0
aF10.0
aF10.0
aF10.0
aF10.0
aF10.0
aF6.0
aF4.0
aF10.0
aF10.0
aF5.0
aF10.0
aF10.0
aF10.0
aF10.0
aF10.0
aF10.0
aF10.0
aF10.0
aF10.0
aF10.0
aF10.0
aF10.0
aF10.0
aF10.0
aF7.0
aF10.0
aF10.0
aF10.0
aF10.0
aF10.0
aF10.0
aF10.0
aF4.0
aF10.0
aF9.0
aF9.0
aF10.0
aF10.0
aF9.0
aF10.0
aF10.0
aF6.0
aF10.0
aF10.0
aF10.0
aF7.0
aF10.0
aF10.0
aF10.0
aF7.0
aF10.0
aF10.0
aF10.0
aF10.0
aF10.0
aF10.0
aF9.0
aF10.0
aF10.0
aF10.0
aF10.0
aF10.0
aF10.0
aF10.0
aF10.0
aF10.0
aF10.0
aF10.0
aF10.0
aF10.0
aF10.0
aF10.0
aF10.0
aF10.0
aF10.0
aF10.0
aF9.0
aF10.0
aF7.0
aF10.0
aF10.0
aF9.0
aF10.0
aF10.0
aF10.0
aF10.0
aF10.0
aF10.0
aF10.0
aF8.0
aF4.0
aF6.0
aF10.0
aF10.0
aF10.0
aF10.0
aF10.0
aF10.0
aF6.0
aF10.0
aF5.0
aF5.0
aF10.0
aF10.0
aF10.0
aF10.0
aF10.0
aF10.0
aF10.0
aF10.0
aF10.0
aF8.0
aF10.0
aF9.0
aF10.0
aF10.0
aF10.0
aF10.0
aF10.0
aF9.0
aF10.0
aF10.0
aF10.0
aF10.0
aF10.0
aF9.0
aF5.0
aF10.0
aF10.0
aF10.0
aF10.0
aF10.0
aF10.0
aF9.0
aF10.0
aF10.0
aF7.0
aF10.0
aF10.0
aF9.0
aF10.0
aF10.0
aF10.0
aF10.0
aF10.0
aF10.0
aF10.0
aF10.0
aF10.0
aF4.0
aF1.0
aF10.0
aF9.0
aF10.0
aF9.0
aF10.0
aF10.0
aF10.0
aF10.0
aF10.0
aF10.0
aF10.0
aF10.0
aF10.0
aF10.0
aF9.0
aF9.0
aF10.0
aF10.0
aF10.0
aF10.0
aF8.0
aF5.0
aF9.0
aF10.0
aF-1.0
aF9.0
aF10.0
aF3.0
aF9.0
aF10.0
aF4.0
aF10.0
aF9.0
aF10.0
aF10.0
aF10.0
aF10.0
aF10.0
aF10.0
aF10.0
aF10.0
aF7.0
aF10.0
aF10.0
aF10.0
aF10.0
aF10.0
aF9.0
aF10.0
aF10.0
aF9.0
aF10.0
aF10.0
aF10.0
aF9.0
aF9.0
aF10.0
aF5.0
aF7.0
aF10.0
aF10.0
aF10.0
aF9.0
aF9.0
aF8.0
aF9.0
aF10.0
aF10.0
aF9.0
aF10.0
aF-7.0
aF10.0
aF10.0
aF10.0
aF10.0
aF10.0
aF10.0
aF10.0
aF10.0
aF9.0
aF10.0
aF9.0
aF10.0
aF10.0
aF9.0
aF10.0
aF10.0
aF8.0
aF10.0
aF10.0
aF9.0
aF10.0
aF8.0
aF10.0
aF10.0
aF10.0
aF9.0
aF10.0
aF10.0
aF8.0
aF8.0
aF10.0
aF10.0
aF10.0
aF10.0
aF10.0
aF5.0
aF10.0
aF9.0
aF10.0
aF10.0
aF10.0
aF10.0
aF10.0
aF10.0
aF10.0
aF10.0
aF9.0
aF9.0
aF9.0
aF10.0
aF10.0
aF10.0
aF5.0
aF10.0
aF9.0
aF9.0
aF10.0
aF10.0
aF10.0
aF9.0
aF10.0
aF10.0
aF9.0
aF9.0
aF10.0
aF10.0
aF10.0
aF8.0
aF7.0
aF10.0
aF10.0
aF10.0
aF10.0
aF10.0
aF10.0
aF9.0
aF10.0
aF10.0
aF10.0
aF10.0
aF10.0
aF10.0
aF10.0
aF10.0
aF8.0
aF10.0
aF10.0
aF10.0
aF10.0
aF10.0
aF10.0
aF10.0
aF10.0
aF10.0
aF10.0
aF10.0
aF10.0
aF10.0
aF8.0
aF10.0
aF10.0
aF10.0
aF10.0
aF10.0
aF10.0
aF10.0
aF10.0
aF9.0
aF10.0
aF10.0
aF10.0
aF2.0
aF10.0
aF8.0
aF9.0
aF10.0
aF10.0
aF10.0
aF10.0
aF10.0
aF9.0
aF9.0
aF10.0
aF7.0
aF8.0
aF10.0
aF9.0
aF6.0
aF10.0
aF10.0
aF10.0
aF10.0
aF9.0
aF10.0
aF10.0
aF9.0
aF9.0
aF10.0
aF10.0
aF10.0
aF10.0
aF10.0
aF10.0
aF10.0
aF10.0
aF10.0
aF10.0
aF9.0
aF10.0
aF10.0
aF10.0
aF10.0
aF10.0
aF10.0
aF10.0
aF10.0
aF9.0
aF9.0
aF9.0
aF10.0
aF10.0
aF10.0
aF8.0
aF10.0
aF10.0
aF10.0
aF10.0
aF9.0
aF9.0
aF10.0
aF10.0
aF10.0
aF9.0
aF10.0
aF10.0
aF8.0
aF0.0
aF10.0
aF10.0
aF9.0
aF10.0
aF9.0
aF10.0
aF10.0
aF10.0
aF10.0
aF10.0
aF10.0
aF10.0
aF10.0
aF10.0
aF4.0
aF10.0
aF9.0
aF10.0
aF10.0
aF10.0
aF10.0
aF8.0
aF10.0
aF10.0
aF7.0
aF10.0
aF10.0
aF10.0
aF10.0
aF10.0
aF10.0
aF9.0
aF10.0
aF5.0
aF10.0
aF10.0
aF10.0
aF10.0
aF10.0
aF10.0
aF8.0
aF10.0
aF10.0
aF10.0
aF-3.0
aF10.0
aF10.0
aF10.0
aF10.0
aF10.0
aF10.0
aF10.0
aF10.0
aF10.0
aF10.0
aF10.0
aF10.0
aF10.0
aF9.0
aF10.0
aF9.0
aF10.0
aF10.0
aF10.0
aF10.0
aF8.0
aF10.0
aF10.0
aF10.0
aF8.0
aF10.0
aF10.0
aF10.0
aF10.0
aF10.0
aF10.0
aF9.0
aF5.0
aF7.0
aF10.0
aF10.0
aF10.0
aF10.0
aF7.0
aF10.0
aF10.0
aF5.0
aF5.0
aF10.0
aF10.0
aF10.0
aF10.0
aF8.0
aF10.0
aF10.0
aF10.0
aF10.0
aF10.0
aF10.0
aF10.0
aF9.0
aF10.0
aF10.0
aF10.0
aF10.0
aF8.0
aF4.0
aF10.0
aF10.0
aF9.0
aF10.0
aF10.0
aF10.0
aF10.0
aF10.0
aF10.0
aF7.0
aF9.0
aF10.0
aF10.0
aF10.0
aF9.0
aF10.0
aF10.0
aF10.0
aF10.0
aF4.0
aF10.0
aF9.0
aF9.0
aF10.0
aF1.0
aF10.0
aF10.0
aF9.0
aF10.0
aF10.0
aF10.0
aF10.0
aF9.0
aF4.0
aF10.0
aF10.0
aF9.0
aF10.0
aF10.0
aF-1.0
aF10.0
aF10.0
aF10.0
aF10.0
aF10.0
aF10.0
aF10.0
aF10.0
aF10.0
aF10.0
aF10.0
aF10.0
aF9.0
aF9.0
aF10.0
aF10.0
aF6.0
aF10.0
aF10.0
aF10.0
aF10.0
aF10.0
aF10.0
aF10.0
aF10.0
aF10.0
aF0.0
aF10.0
aF9.0
aF10.0
aF4.0
aF10.0
aF10.0
aF9.0
aF10.0
aF8.0
aF10.0
aF10.0
aF9.0
aF8.0
aF8.0
aF10.0
aF9.0
aF10.0
aF10.0
aF9.0
aF2.0
aF9.0
aF8.0
aF10.0
aF10.0
aF10.0
aF5.0
aF10.0
aF10.0
aF8.0
aF2.0
aF8.0
aF2.0
aF10.0
aF9.0
aF10.0
aF10.0
aF10.0
aF7.0
aF10.0
aF10.0
aF10.0
aF10.0
aF10.0
aF10.0
aF10.0
aF10.0
aF-2.0
aF5.0
aF10.0
aF8.0
aF10.0
aF10.0
aF10.0
aF10.0
aF10.0
aF9.0
aF1.0
aF9.0
aF8.0
aF10.0
aF10.0
aF10.0
aF8.0
aF10.0
aF10.0
aF10.0
aF10.0
aF10.0
aF10.0
aF10.0
aF10.0
aF10.0
aF10.0
aF10.0
aF10.0
aF10.0
aF10.0
aF10.0
aF10.0
aF7.0
aF10.0
aF7.0
aF6.0
aF10.0
aF10.0
aF10.0
aF10.0
aF9.0
aF10.0
aF10.0
aF10.0
aF10.0
aF9.0
aF10.0
aF10.0
aF10.0
aF10.0
aF5.0
aF9.0
aF10.0
aF10.0
aF10.0
aF10.0
aF9.0
aF10.0
aF10.0
aF10.0
aF10.0
aF10.0
aF10.0
aF4.0
aF10.0
aF10.0
aF9.0
aF10.0
aF10.0
aF10.0
aF10.0
aF10.0
aF10.0
aF8.0
aF10.0
aF7.0
aF8.0
aF10.0
aF10.0
aF10.0
aF4.0
aF8.0
aF10.0
aF9.0
aF10.0
aF10.0
aF9.0
aF9.0
aF10.0
aF9.0
aF4.0
aF10.0
aF7.0
aF10.0
aF10.0
aF5.0
aF10.0
aF9.0
aF10.0
aF10.0
aF10.0
aF10.0
aF10.0
aF9.0
aF10.0
aF10.0
aF10.0
aF2.0
aF9.0
aF10.0
aF10.0
aF10.0
aF9.0
aF10.0
aF10.0
aF10.0
aF6.0
aF10.0
aF10.0
aF9.0
aF10.0
aF9.0
aF9.0
aF10.0
aF10.0
aF10.0
aF10.0
aF10.0
aF10.0
aF10.0
aF10.0
aF10.0
aF4.0
aF10.0
aF10.0
aF10.0
aF9.0
aF10.0
aF10.0
aF9.0
aF10.0
aF10.0
aF10.0
aF10.0
aF10.0
aF5.0
aF6.0
aF10.0
aF10.0
aF10.0
aF10.0
aF10.0
aF10.0
aF10.0
aF10.0
aF10.0
aF10.0
aF10.0
aF-5.0
aF10.0
aF10.0
aF10.0
aF10.0
aF10.0
aF10.0
aF10.0
aF10.0
aF10.0
aF0.0
aF10.0
aF10.0
aF10.0
aF10.0
aF9.0
aF10.0
aF10.0
aF10.0
aF8.0
aF10.0
aF10.0
aF10.0
aF10.0
aF10.0
aF10.0
aF10.0
aF10.0
aF10.0
aF10.0
aF5.0
aF10.0
aF10.0
aF9.0
aF9.0
aF8.0
aF10.0
aF10.0
aF10.0
aF7.0
aF10.0
aF10.0
aF9.0
aF10.0
aF10.0
aF9.0
aF10.0
aF10.0
aF10.0
aF10.0
aF10.0
aF10.0
aF10.0
aF10.0
aF10.0
aF10.0
aF6.0
aF10.0
aF10.0
aF9.0
aF10.0
aF10.0
aF10.0
aF10.0
aF10.0
aF9.0
aF10.0
aF0.0
aF8.0
aF10.0
aF10.0
aF10.0
aF10.0
aF10.0
aF8.0
aF9.0
aF10.0
aF7.0
aF10.0
aF10.0
aF10.0
aF10.0
aF4.0
aF4.0
aF10.0
aF10.0
aF10.0
aF10.0
aF10.0
aF10.0
aF10.0
aF6.0
aF9.0
aF9.0
aF9.0
aF10.0
aF10.0
aF10.0
aF10.0
aF10.0
aF9.0
aF10.0
aF10.0
aF10.0
aF9.0
aF10.0
aF10.0
aF10.0
aF4.0
aF10.0
aF10.0
aF10.0
aF10.0
aF10.0
aF8.0
aF10.0
aF8.0
aF10.0
aF10.0
aF10.0
aF10.0
aF10.0
aF10.0
aF10.0
aF10.0
aF10.0
aF4.0
aF9.0
aF10.0
aF10.0
aF10.0
aF10.0
aF8.0
aF10.0
aF10.0
aF10.0
aF10.0
aF10.0
aF10.0
aF10.0
aF10.0
aF10.0
aF10.0
aF10.0
aF10.0
aF10.0
aF9.0
aF10.0
aF10.0
aF10.0
aF10.0
aF10.0
aF6.0
aF10.0
aF10.0
aF10.0
aF10.0
aF10.0
aF6.0
aF10.0
aF10.0
aF6.0
aF10.0
aF10.0
aF10.0
aF8.0
aF9.0
aF9.0
aF10.0
aF10.0
aF10.0
aF10.0
aF10.0
aF10.0
aF10.0
aF10.0
aF8.0
aF10.0
aF8.0
aF10.0
aF10.0
aF6.0
aF10.0
aF10.0
aF10.0
aF10.0
aF10.0
aF9.0
aF10.0
aF10.0
aF1.0
aF2.0
aF9.0
aF9.0
aF9.0
aF10.0
aF9.0
aF10.0
aF10.0
aF10.0
aF10.0
aF7.0
aF10.0
aF10.0
aF10.0
aF9.0
aF8.0
aF10.0
aF10.0
aF9.0
aF7.0
aF10.0
aF10.0
aF10.0
aF10.0
aF10.0
aF10.0
aF10.0
aF9.0
aF10.0
aF10.0
aF8.0
aF10.0
aF10.0
aF10.0
aF9.0
aF10.0
aF9.0
aF7.0
aF10.0
aF10.0
aF10.0
aF10.0
aF10.0
aF9.0
aF8.0
aF9.0
aF5.0
aF10.0
aF10.0
aF10.0
aF7.0
aF3.0
aF3.0
aF9.0
aF10.0
aF10.0
aF8.0
aF10.0
aF10.0
aF10.0
aF10.0
aF10.0
aF10.0
aF5.0
aF10.0
aF10.0
aF6.0
aF10.0
aF10.0
aF10.0
aF10.0
aF10.0
aF10.0
aF7.0
aF10.0
aF10.0
aF10.0
aF10.0
aF10.0
aF10.0
aF9.0
aF10.0
aF10.0
aF9.0
aF10.0
aF10.0
aF10.0
aF10.0
aF10.0
aF7.0
aF10.0
aF10.0
aF10.0
aF10.0
aF4.0
aF10.0
aF8.0
aF10.0
aF10.0
aF10.0
aF10.0
aF10.0
aF7.0
aF10.0
aF10.0
aF9.0
aF7.0
aF5.0
aF10.0
aF10.0
aF10.0
aF2.0
aF10.0
aF10.0
aF9.0
aF10.0
aF10.0
aF10.0
aF3.0
aF10.0
aF10.0
aF2.0
aF10.0
aF10.0
aF9.0
aF-1.0
aF10.0
aF10.0
aF6.0
aF10.0
aF10.0
aF10.0
aF9.0
aF9.0
aF9.0
aF10.0
aF10.0
aF7.0
aF9.0
aF10.0
aF6.0
aF10.0
aF10.0
aF10.0
aF10.0
aF10.0
aF10.0
aF9.0
aF10.0
aF10.0
aF5.0
aF9.0
aF10.0
aF9.0
aF10.0
aF10.0
aF10.0
aF10.0
aF10.0
aF9.0
aF10.0
aF10.0
aF10.0
aF9.0
aF10.0
aF10.0
aF9.0
aF10.0
aF9.0
aF9.0
aF8.0
aF9.0
aF10.0
aF9.0
aF10.0
aF10.0
aF10.0
aF9.0
aF10.0
aF10.0
aF10.0
aF10.0
aF10.0
aF10.0
aF10.0
aF10.0
aF10.0
aF7.0
aF10.0
aF10.0
aF10.0
aF7.0
aF10.0
aF10.0
aF10.0
aF10.0
aF2.0
aF10.0
aF8.0
aF10.0
aF9.0
aF8.0
aF10.0
aF10.0
aF10.0
aF7.0
aF9.0
aF9.0
aF10.0
aF10.0
aF10.0
aF10.0
aF6.0
aF10.0
aF10.0
aF10.0
aF10.0
aF10.0
aF3.0
aF10.0
aF10.0
aF9.0
aF10.0
aF10.0
aF10.0
aF9.0
aF9.0
aF10.0
aF10.0
aF8.0
aF9.0
aF10.0
aF10.0
aF10.0
aF10.0
aF4.0
aF10.0
aF10.0
aF8.0
aF10.0
aF10.0
aF10.0
aF10.0
aF10.0
aF10.0
aF10.0
aF10.0
aF9.0
aF10.0
aF10.0
aF8.0
aF10.0
aF10.0
aF10.0
aF10.0
aF10.0
aF9.0
aF10.0
aF10.0
aF1.0
aF9.0
aF10.0
aF10.0
aF10.0
aF10.0
aF10.0
aF10.0
aF10.0
aF10.0
aF10.0
aF10.0
aF10.0
aF8.0
aF10.0
aF10.0
aF10.0
aF10.0
aF10.0
aF10.0
aF10.0
aF10.0
aF10.0
aF9.0
aF10.0
aF10.0
aF4.0
aF9.0
aF10.0
aF9.0
aF10.0
aF10.0
aF10.0
aF10.0
aF10.0
aF9.0
aF10.0
aF10.0
aF4.0
aF9.0
aF10.0
aF10.0
aF10.0
aF8.0
aF10.0
aF10.0
aF9.0
aF9.0
aF10.0
aF10.0
aF10.0
aF10.0
aF10.0
aF10.0
aF10.0
aF9.0
aF9.0
aF10.0
aF10.0
aF10.0
aF10.0
aF7.0
aF10.0
aF10.0
aF7.0
aF10.0
aF10.0
aF10.0
aF9.0
aF2.0
aF10.0
aF10.0
aF10.0
aF10.0
aF9.0
aF10.0
aF10.0
aF10.0
aF10.0
aF5.0
aF10.0
aF10.0
aF10.0
aF9.0
aF10.0
aF10.0
aF10.0
aF10.0
aF9.0
aF10.0
aF10.0
aF10.0
aF5.0
aF8.0
aF9.0
aF9.0
aF5.0
aF10.0
aF10.0
aF3.0
aF10.0
aF10.0
aF10.0
aF10.0
aF10.0
aF9.0
aF9.0
aF10.0
aF10.0
aF10.0
aF10.0
aF8.0
aF8.0
aF9.0
aF10.0
aF10.0
aF9.0
aF10.0
aF10.0
aF10.0
aF10.0
aF10.0
aF8.0
aF10.0
aF8.0
aF8.0
aF10.0
aF10.0
aF7.0
aF9.0
aF10.0
aF9.0
aF10.0
aF8.0
aF10.0
aF10.0
aF10.0
aF9.0
aF10.0
aF10.0
aF10.0
aF10.0
aF10.0
aF10.0
aF10.0
aF8.0
aF10.0
aF9.0
aF4.0
aF10.0
aF10.0
aF9.0
aF7.0
aF10.0
aF10.0
aF10.0
aF10.0
aF9.0
aF10.0
aF10.0
aF10.0
aF10.0
aF10.0
aF10.0
aF10.0
aF10.0
aF10.0
aF10.0
aF10.0
aF10.0
aF10.0
aF9.0
aF10.0
aF9.0
aF10.0
aF7.0
aF10.0
aF10.0
aF9.0
aF10.0
aF10.0
aF10.0
aF9.0
aF10.0
aF10.0
aF10.0
aF5.0
aF10.0
aF10.0
aF10.0
aF10.0
aF10.0
aF10.0
aF10.0
aF10.0
aF10.0
aF10.0
aF10.0
aF10.0
aF10.0
aF10.0
aF10.0
aF10.0
aF10.0
aF10.0
aF10.0
aF10.0
aF10.0
aF10.0
aF10.0
aF10.0
aF10.0
aF10.0
aF10.0
aF10.0
aF10.0
aF10.0
aF10.0
aF10.0
aF10.0
aF10.0
aF8.0
aF10.0
aF9.0
aF10.0
aF10.0
aF10.0
aF10.0
aF10.0
aF10.0
aF10.0
aF10.0
aF10.0
aF9.0
aF10.0
aF10.0
aF9.0
aF1.0
aF10.0
aF10.0
aF10.0
aF10.0
aF10.0
aF10.0
aF9.0
aF9.0
aF10.0
aF10.0
aF10.0
aF10.0
aF9.0
aF10.0
aF6.0
aF10.0
aF10.0
aF10.0
aF5.0
aF10.0
aF10.0
aF4.0
aF10.0
aF10.0
aF10.0
aF10.0
aF10.0
aF6.0
aF10.0
aF8.0
aF10.0
aF10.0
aF10.0
aF9.0
aF10.0
aF-5.0
aF3.0
aF10.0
aF8.0
aF10.0
aF10.0
aF10.0
aF10.0
aF10.0
aF10.0
aF10.0
aF10.0
aF10.0
aF10.0
aF10.0
aF10.0
aF10.0
aF10.0
aF9.0
aF10.0
aF10.0
aF10.0
aF10.0
aF10.0
aF10.0
aF10.0
aF10.0
aF10.0
aF10.0
aF10.0
aF8.0
aF7.0
aF7.0
aF10.0
aF10.0
aF9.0
aF10.0
aF10.0
aF10.0
aF10.0
aF6.0
aF10.0
aF10.0
aF10.0
aF10.0
aF10.0
aF10.0
aF9.0
aF10.0
aF10.0
aF8.0
aF4.0
aF10.0
aF8.0
aF10.0
aF4.0
aF10.0
aF10.0
aF10.0
aF10.0
aF5.0
aF10.0
aF7.0
aF6.0
aF10.0
aF10.0
aF7.0
aF9.0
aF10.0
aF7.0
aF9.0
aF4.0
aF9.0
aF10.0
aF10.0
aF10.0
aF10.0
aF10.0
aF10.0
aF10.0
aF5.0
aF10.0
aF10.0
aF9.0
aF10.0
aF10.0
aF10.0
aF9.0
aF10.0
aF10.0
aF10.0
aF7.0
aF10.0
aF10.0
aF8.0
aF10.0
aF10.0
aF10.0
aF10.0
aF10.0
aF6.0
aF10.0
aF10.0
aF10.0
aF10.0
aF10.0
aF10.0
aF10.0
aF10.0
aF10.0
aF10.0
aF10.0
aF9.0
aF10.0
aF8.0
aF9.0
aF10.0
aF10.0
aF10.0
aF10.0
aF10.0
aF9.0
aF10.0
aF10.0
aF10.0
aF10.0
aF4.0
aF6.0
aF10.0
aF10.0
aF10.0
aF10.0
aF10.0
aF9.0
aF10.0
aF10.0
aF10.0
aF10.0
aF8.0
aF10.0
aF10.0
aF10.0
aF1.0
aF10.0
aF10.0
aF10.0
aF10.0
aF10.0
aF9.0
aF10.0
aF5.0
aF10.0
aF10.0
aF10.0
aF10.0
aF10.0
aF10.0
aF9.0
aF10.0
aF10.0
aF10.0
aF6.0
aF6.0
aF8.0
aF10.0
aF9.0
aF10.0
aF10.0
aF10.0
aF9.0
aF10.0
aF10.0
aF10.0
aF10.0
aF9.0
aF10.0
aF10.0
aF10.0
aF10.0
aF7.0
aF10.0
aF9.0
aF8.0
aF10.0
aF8.0
aF9.0
aF10.0
aF10.0
aF6.0
aF10.0
aF10.0
aF10.0
aF10.0
aF10.0
aF10.0
aF10.0
aF10.0
aF10.0
aF10.0
aF8.0
aF8.0
aF9.0
aF10.0
aF10.0
aF10.0
aF9.0
aF10.0
aF10.0
aF8.0
aF10.0
aF10.0
aF7.0
aF-4.0
aF10.0
aF4.0
aF10.0
aF10.0
aF10.0
aF10.0
aF8.0
aF0.0
aF10.0
aF10.0
aF4.0
aF10.0
aF10.0
aF10.0
aF10.0
aF7.0
aF10.0
aF9.0
aF10.0
aF10.0
aF10.0
aF10.0
aF10.0
aF10.0
aF10.0
aF10.0
aF10.0
aF10.0
aF10.0
aF9.0
aF10.0
aF10.0
aF10.0
aF10.0
aF10.0
aF10.0
aF10.0
aF10.0
aF10.0
aF9.0
aF10.0
aF10.0
aF10.0
aF10.0
aF10.0
aF10.0
aF10.0
aF7.0
aF10.0
aF4.0
aF9.0
aF10.0
aF8.0
aF10.0
aF10.0
aF10.0
aF10.0
aF10.0
aF10.0
aF10.0
aF10.0
aF10.0
aF10.0
aF9.0
aF9.0
aF10.0
aF10.0
aF10.0
aF9.0
aF10.0
aF10.0
aF10.0
aF10.0
aF4.0
aF8.0
aF10.0
aF10.0
aF5.0
aF10.0
aF9.0
aF10.0
aF10.0
aF9.0
aF10.0
aF9.0
aF10.0
aF10.0
aF10.0
aF10.0
aF10.0
aF10.0
aF6.0
aF10.0
aF10.0
aF10.0
aF10.0
aF10.0
aF10.0
aF10.0
aF10.0
aF6.0
aF10.0
aF10.0
aF10.0
aF10.0
aF10.0
aF10.0
aF0.0
aF9.0
aF9.0
aF10.0
aF9.0
aF10.0
aF9.0
aF9.0
aF10.0
aF10.0
aF10.0
aF10.0
aF10.0
aF10.0
aF8.0
aF10.0
aF10.0
aF10.0
aF9.0
aF10.0
aF10.0
aF10.0
aF9.0
aF10.0
aF10.0
aF10.0
aF10.0
aF10.0
aF9.0
aF10.0
aF10.0
aF0.0
aF10.0
aF10.0
aF10.0
aF10.0
aF10.0
aF9.0
aF10.0
aF10.0
aF10.0
aF9.0
aF9.0
aF9.0
aF8.0
aF10.0
aF9.0
aF10.0
aF10.0
aF8.0
aF10.0
aF10.0
aF10.0
aF10.0
aF10.0
aF9.0
aF9.0
aF10.0
aF10.0
aF10.0
aF9.0
aF10.0
aF5.0
aF10.0
aF10.0
aF10.0
aF10.0
aF10.0
aF10.0
aF10.0
aF10.0
aF9.0
aF10.0
aF10.0
aF10.0
aF10.0
aF10.0
aF5.0
aF7.0
aF8.0
aF10.0
aF10.0
aF10.0
aF10.0
aF5.0
aF10.0
aF4.0
aF9.0
aF10.0
aF7.0
aF10.0
aF10.0
aF10.0
aF10.0
aF10.0
aF10.0
aF10.0
aF10.0
aF10.0
aF10.0
aF10.0
aF10.0
aF10.0
aF10.0
aF10.0
aF8.0
aF6.0
aF10.0
aF9.0
aF10.0
aF10.0
aF5.0
aF10.0
aF10.0
aF9.0
aF10.0
aF10.0
aF10.0
aF6.0
aF10.0
aF10.0
aF10.0
aF10.0
aF10.0
aF9.0
aF10.0
aF10.0
aF10.0
aF5.0
aF10.0
aF10.0
aF10.0
aF10.0
aF8.0
aF10.0
aF9.0
aF10.0
aF6.0
aF10.0
aF10.0
aF10.0
aF10.0
aF10.0
aF10.0
aF10.0
aF10.0
aF9.0
aF10.0
aF10.0
aF10.0
aF10.0
aF10.0
aF9.0
aF10.0
aF10.0
aF9.0
aF10.0
aF6.0
aF10.0
aF10.0
aF10.0
aF10.0
aF10.0
aF10.0
aF10.0
aF9.0
aF10.0
aF10.0
aF10.0
aF10.0
aF9.0
aF10.0
aF10.0
aF10.0
aF10.0
aF5.0
aF7.0
aF8.0
aF10.0
aF10.0
aF10.0
aF10.0
aF10.0
aF10.0
aF10.0
aF10.0
aF10.0
aF10.0
aF10.0
aF9.0
aF10.0
aF9.0
aF10.0
aF10.0
aF10.0
aF9.0
aF6.0
aF8.0
aF10.0
aF9.0
aF10.0
aF10.0
aF9.0
aF10.0
aF10.0
aF10.0
aF5.0
aF10.0
aF10.0
aF9.0
aF5.0
aF6.0
aF10.0
aF10.0
aF10.0
aF9.0
aF10.0
aF6.0
aF8.0
aF10.0
aF10.0
aF10.0
aF10.0
aF10.0
aF10.0
aF10.0
aF10.0
aF10.0
aF10.0
aF10.0
aF10.0
aF10.0
aF10.0
aF9.0
aF10.0
aF10.0
aF10.0
aF10.0
aF10.0
aF10.0
aF10.0
aF6.0
aF10.0
aF10.0
aF10.0
aF10.0
aF10.0
aF10.0
aF8.0
aF10.0
aF10.0
aF2.0
aF10.0
aF10.0
aF10.0
aF9.0
aF10.0
aF10.0
aF10.0
aF10.0
aF10.0
aF9.0
aF10.0
aF10.0
aF7.0
aF10.0
aF10.0
aF10.0
aF4.0
aF10.0
aF10.0
aF6.0
aF7.0
aF10.0
aF10.0
aF10.0
aF10.0
aF10.0
aF1.0
aF10.0
aF10.0
aF5.0
aF9.0
aF10.0
aF9.0
aF10.0
aF9.0
aF9.0
aF4.0
aF10.0
aF8.0
aF9.0
aF10.0
aF10.0
aF10.0
aF10.0
aF10.0
aF10.0
aF10.0
aF10.0
aF10.0
aF8.0
aF9.0
aF10.0
aF8.0
aF10.0
aF10.0
aF10.0
aF10.0
aF9.0
aF10.0
aF10.0
aF10.0
aF10.0
aF10.0
aF10.0
aF9.0
aF9.0
aF9.0
aF10.0
aF10.0
aF9.0
aF9.0
aF9.0
aF10.0
aF10.0
aF9.0
aF10.0
aF10.0
aF10.0
aF9.0
aF7.0
aF10.0
aF10.0
aF8.0
aF10.0
aF10.0
aF9.0
aF9.0
aF10.0
aF10.0
aF7.0
aF10.0
aF10.0
aF4.0
aF10.0
aF10.0
aF10.0
aF10.0
aF10.0
aF6.0
aF10.0
aF10.0
aF9.0
aF5.0
aF10.0
aF10.0
aF10.0
aF10.0
aF10.0
aF9.0
aF10.0
aF10.0
aF10.0
aF10.0
aF8.0
aF10.0
aF10.0
aF10.0
aF3.0
aF10.0
aF10.0
aF10.0
aF8.0
aF10.0
aF9.0
aF10.0
aF10.0
aF10.0
aF8.0
aF10.0
aF10.0
aF8.0
aF8.0
aF10.0
aF10.0
aF10.0
aF10.0
aF10.0
aF10.0
aF0.0
aF9.0
aF10.0
aF10.0
aF10.0
aF10.0
aF10.0
aF10.0
aF9.0
aF10.0
aF10.0
aF9.0
aF10.0
aF10.0
aF9.0
aF-1.0
aF10.0
aF10.0
aF8.0
aF9.0
aF10.0
aF10.0
aF10.0
aF10.0
aF10.0
aF9.0
aF10.0
aF8.0
aF10.0
aF10.0
aF9.0
aF10.0
aF10.0
aF10.0
aF7.0
aF10.0
aF5.0
aF10.0
aF10.0
aF9.0
aF9.0
aF10.0
aF6.0
aF10.0
aF10.0
aF10.0
aF10.0
aF10.0
aF10.0
aF10.0
aF10.0
aF9.0
aF10.0
aF10.0
aF10.0
aF10.0
aF10.0
aF10.0
aF10.0
aF10.0
aF2.0
aF10.0
aF9.0
aF10.0
aF10.0
aF9.0
aF10.0
aF10.0
aF4.0
aF10.0
aF10.0
aF8.0
aF10.0
aF10.0
aF10.0
aF10.0
aF10.0
aF6.0
aF10.0
aF10.0
aF9.0
aF9.0
aF9.0
aF10.0
aF9.0
aF10.0
aF10.0
aF10.0
aF10.0
aF10.0
aF10.0
aF8.0
aF10.0
aF10.0
aF2.0
aF4.0
aF10.0
aF8.0
aF9.0
aF10.0
aF10.0
aF10.0
aF10.0
aF7.0
aF10.0
aF8.0
aF9.0
aF10.0
aF10.0
aF7.0
aF6.0
aF9.0
aF10.0
aF10.0
aF7.0
aF8.0
aF10.0
aF10.0
aF10.0
aF10.0
aF10.0
aF10.0
aF10.0
aF10.0
aF3.0
aF7.0
aF10.0
aF10.0
aF10.0
aF10.0
aF10.0
aF10.0
aF9.0
aF10.0
aF9.0
aF2.0
aF10.0
aF10.0
aF10.0
aF10.0
aF5.0
aF10.0
aF2.0
aF10.0
aF10.0
aF10.0
aF10.0
aF10.0
aF10.0
aF10.0
aF10.0
aF10.0
aF1.0
aF10.0
aF10.0
aF10.0
aF10.0
aF10.0
aF10.0
aF10.0
aF10.0
aF8.0
aF9.0
aF10.0
aF8.0
aF10.0
aF10.0
aF2.0
aF10.0
aF10.0
aF10.0
aF10.0
aF10.0
aF10.0
aF10.0
aF9.0
aF10.0
aF10.0
aF10.0
aF10.0
aF9.0
aF10.0
aF10.0
aF10.0
aF10.0
aF10.0
aF10.0
aF10.0
aF10.0
aF10.0
aF10.0
aF10.0
aF10.0
aF10.0
aF10.0
aF10.0
aF10.0
aF10.0
aF10.0
aF10.0
aF10.0
aF10.0
aF10.0
aF10.0
aF10.0
aF10.0
aF10.0
aF10.0
aF10.0
aF10.0
aF10.0
aF10.0
aF9.0
aF10.0
aF10.0
aF8.0
aF10.0
aF10.0
aF9.0
aF10.0
aF10.0
aF10.0
aF10.0
aF8.0
aF10.0
aF10.0
aF9.0
aF5.0
aF10.0
aF10.0
aF10.0
aF7.0
aF10.0
aF10.0
aF10.0
aF10.0
aF10.0
aF9.0
aF7.0
aF9.0
aF9.0
aF10.0
aF10.0
aF10.0
aF8.0
aF8.0
aF9.0
aF10.0
aF10.0
aF10.0
aF10.0
aF10.0
aF10.0
aF0.0
aF10.0
aF10.0
aF10.0
aF10.0
aF10.0
aF10.0
aF10.0
aF10.0
aF9.0
aF10.0
aF9.0
aF10.0
aF10.0
aF9.0
aF10.0
aF10.0
aF10.0
aF10.0
aF10.0
aF10.0
aF10.0
aF10.0
aF10.0
aF10.0
aF10.0
aF10.0
aF8.0
aF10.0
aF10.0
aF8.0
aF9.0
aF10.0
aF10.0
aF10.0
aF10.0
aF9.0
aF10.0
aF10.0
aF10.0
aF9.0
aF10.0
aF10.0
aF7.0
aF10.0
aF10.0
aF10.0
aF10.0
aF4.0
aF10.0
aF10.0
aF10.0
aF10.0
aF10.0
aF9.0
aF10.0
aF10.0
aF10.0
aF9.0
aF10.0
aF10.0
aF10.0
aF10.0
aF9.0
aF10.0
aF10.0
aF10.0
aF10.0
aF10.0
aF10.0
aF10.0
aF-2.0
aF10.0
aF10.0
aF10.0
aF10.0
aF2.0
aF10.0
aF10.0
aF10.0
aF9.0
aF10.0
aF8.0
aF10.0
aF10.0
aF10.0
aF10.0
aF10.0
aF10.0
aF9.0
aF10.0
aF10.0
aF8.0
aF10.0
aF10.0
aF9.0
aF10.0
aF4.0
aF10.0
aF10.0
aF9.0
aF10.0
aF10.0
aF8.0
aF10.0
aF10.0
aF5.0
aF10.0
aF9.0
aF10.0
aF8.0
aF10.0
aF10.0
aF10.0
aF9.0
aF9.0
aF10.0
aF10.0
aF1.0
aF10.0
aF7.0
aF10.0
aF10.0
aF10.0
aF10.0
aF9.0
aF10.0
aF9.0
aF10.0
aF9.0
aF9.0
aF10.0
aF10.0
aF10.0
aF10.0
aF9.0
aF10.0
aF10.0
aF10.0
aF10.0
aF10.0
aF7.0
aF7.0
aF5.0
aF9.0
aF10.0
aF8.0
aF9.0
aF10.0
aF10.0
aF10.0
aF10.0
aF8.0
aF10.0
aF7.0
aF10.0
aF10.0
aF10.0
aF10.0
aF10.0
aF7.0
aF10.0
aF10.0
aF10.0
aF10.0
aF10.0
aF10.0
aF10.0
aF10.0
aF4.0
aF4.0
aF7.0
aF10.0
aF9.0
aF10.0
aF10.0
aF10.0
aF8.0
aF9.0
aF10.0
aF10.0
aF10.0
aF10.0
aF10.0
aF10.0
aF9.0
aF10.0
aF10.0
aF10.0
aF9.0
aF9.0
aF10.0
aF10.0
aF10.0
aF10.0
aF10.0
aF10.0
aF8.0
aF10.0
aF10.0
aF10.0
aF10.0
aF10.0
aF7.0
aF10.0
aF10.0
aF10.0
aF3.0
aF10.0
aF8.0
aF10.0
aF10.0
aF7.0
aF10.0
aF10.0
aF6.0
aF10.0
aF10.0
aF10.0
aF10.0
aF8.0
aF10.0
aF9.0
aF10.0
aF10.0
aF10.0
aF10.0
aF10.0
aF10.0
aF5.0
aF9.0
aF10.0
aF10.0
aF10.0
aF9.0
aF9.0
aF10.0
aF10.0
aF10.0
aF10.0
aF10.0
aF10.0
aF10.0
aF10.0
aF10.0
aF10.0
aF10.0
aF10.0
aF9.0
aF10.0
aF10.0
aF10.0
aF9.0
aF10.0
aF10.0
aF10.0
aF10.0
aF10.0
aF10.0
aF10.0
aF9.0
aF10.0
aF9.0
aF10.0
aF10.0
aF8.0
aF9.0
aF9.0
aF10.0
aF10.0
aF10.0
aF10.0
aF10.0
aF7.0
aF10.0
aF4.0
aF10.0
aF7.0
aF10.0
aF10.0
aF8.0
aF8.0
aF10.0
aF10.0
aF10.0
aF10.0
aF10.0
aF10.0
aF10.0
aF10.0
aF9.0
aF10.0
aF10.0
aF10.0
aF10.0
aF10.0
aF10.0
aF9.0
aF9.0
aF10.0
aF3.0
aF10.0
aF9.0
aF10.0
aF10.0
aF10.0
aF10.0
aF9.0
aF10.0
aF7.0
aF10.0
aF9.0
aF10.0
aF10.0
aF10.0
aF10.0
aF10.0
aF10.0
aF10.0
aF9.0
aF10.0
aF10.0
aF10.0
aF9.0
aF10.0
aF10.0
aF10.0
aF10.0
aF10.0
aF10.0
aF10.0
aF6.0
aF10.0
aF10.0
aF6.0
aF10.0
aF10.0
aF10.0
aF10.0
aF10.0
aF10.0
aF10.0
aF10.0
aF10.0
aF10.0
aF9.0
aF9.0
aF10.0
aF10.0
aF10.0
aF10.0
aF9.0
aF10.0
aF10.0
aF9.0
aF10.0
aF10.0
aF10.0
aF10.0
aF10.0
aF10.0
aF9.0
aF10.0
aF10.0
aF10.0
aF0.0
aF7.0
aF10.0
aF10.0
aF4.0
aF10.0
aF8.0
aF10.0
aF10.0
aF10.0
aF10.0
aF10.0
aF10.0
aF10.0
aF10.0
aF10.0
aF9.0
aF10.0
aF10.0
aF10.0
aF10.0
aF10.0
aF10.0
aF10.0
aF10.0
aF10.0
aF10.0
aF10.0
aF10.0
aF10.0
aF7.0
aF10.0
aF10.0
aF10.0
aF10.0
aF10.0
aF10.0
aF10.0
aF9.0
aF1.0
aF10.0
aF10.0
aF10.0
aF10.0
aF10.0
aF10.0
aF10.0
aF10.0
aF9.0
aF10.0
aF9.0
aF8.0
aF10.0
aF9.0
aF10.0
aF10.0
aF7.0
aF10.0
aF10.0
aF10.0
aF0.0
aF10.0
aF10.0
aF8.0
aF9.0
aF10.0
aF10.0
aF10.0
aF10.0
aF10.0
aF10.0
aF10.0
aF10.0
aF10.0
aF9.0
aF5.0
aF4.0
aF10.0
aF9.0
aF10.0
aF10.0
aF10.0
aF10.0
aF10.0
aF10.0
aF10.0
aF10.0
aF5.0
aF10.0
aF9.0
aF10.0
aF9.0
aF6.0
aF10.0
aF10.0
aF9.0
aF9.0
aF5.0
aF10.0
aF9.0
aF10.0
aF7.0
aF10.0
aF10.0
aF10.0
aF7.0
aF10.0
aF10.0
aF8.0
aF10.0
aF8.0
aF10.0
aF10.0
aF10.0
aF5.0
aF10.0
aF8.0
aF10.0
aF10.0
aF9.0
aF10.0
aF10.0
aF9.0
aF10.0
aF9.0
aF10.0
aF7.0
aF10.0
aF10.0
aF8.0
aF10.0
aF10.0
aF9.0
aF10.0
aF10.0
aF10.0
aF10.0
aF10.0
aF10.0
aF10.0
aF9.0
aF10.0
aF10.0
aF10.0
aF8.0
aF10.0
aF10.0
aF9.0
aF9.0
aF8.0
aF9.0
aF10.0
aF9.0
aF10.0
aF10.0
aF9.0
aF8.0
aF-2.0
aF10.0
aF3.0
aF10.0
aF9.0
aF9.0
aF10.0
aF10.0
aF10.0
aF10.0
aF10.0
aF10.0
aF10.0
aF10.0
aF6.0
aF10.0
aF9.0
aF10.0
aF10.0
aF10.0
aF10.0
aF10.0
aF8.0
aF10.0
aF10.0
aF8.0
aF10.0
aF10.0
aF10.0
aF10.0
aF10.0
aF10.0
aF10.0
aF10.0
aF10.0
aF9.0
aF10.0
aF10.0
aF10.0
aF8.0
aF8.0
aF10.0
aF10.0
aF10.0
aF10.0
aF10.0
aF9.0
aF10.0
aF10.0
aF10.0
aF10.0
aF10.0
aF10.0
aF10.0
aF10.0
aF3.0
aF8.0
aF10.0
aF4.0
aF10.0
aF10.0
aF10.0
aF10.0
aF10.0
aF10.0
aF9.0
aF10.0
aF9.0
aF9.0
aF10.0
aF10.0
aF10.0
aF10.0
aF10.0
aF9.0
aF8.0
aF10.0
aF10.0
aF10.0
aF8.0
aF10.0
aF10.0
aF10.0
aF10.0
aF10.0
aF9.0
aF8.0
aF10.0
aF10.0
aF10.0
aF7.0
aF10.0
aF10.0
aF6.0
aF10.0
aF9.0
aF10.0
aF10.0
aF10.0
aF10.0
aF10.0
aF9.0
aF10.0
aF9.0
aF10.0
aF10.0
aF8.0
aF10.0
aF10.0
aF8.0
aF10.0
aF9.0
aF10.0
aF10.0
aF10.0
aF10.0
aF10.0
aF10.0
aF7.0
aF10.0
aF10.0
aF10.0
aF9.0
aF9.0
aF9.0
aF10.0
aF10.0
aF10.0
aF10.0
aF8.0
aF10.0
aF10.0
aF7.0
aF10.0
aF10.0
aF8.0
aF10.0
aF7.0
aF10.0
aF10.0
aF10.0
aF8.0
aF9.0
aF10.0
aF10.0
aF-2.0
aF10.0
aF10.0
aF9.0
aF6.0
aF10.0
aF9.0
aF8.0
aF9.0
aF6.0
aF10.0
aF8.0
aF10.0
aF10.0
aF10.0
aF5.0
aF10.0
aF10.0
aF10.0
aF10.0
aF10.0
aF9.0
aF9.0
aF10.0
aF10.0
aF10.0
aF10.0
aF10.0
aF10.0
aF10.0
aF9.0
aF10.0
aF10.0
aF10.0
aF8.0
aF10.0
aF10.0
aF10.0
aF8.0
aF8.0
aF10.0
aF10.0
aF10.0
aF9.0
aF7.0
aF10.0
aF10.0
aF9.0
aF10.0
aF8.0
aF10.0
aF9.0
aF9.0
aF6.0
aF10.0
aF10.0
aF10.0
aF10.0
aF10.0
aF10.0
aF8.0
aF10.0
aF10.0
aF10.0
aF10.0
aF7.0
aF10.0
aF10.0
aF3.0
aF10.0
aF10.0
aF10.0
aF10.0
aF10.0
aF10.0
aF8.0
aF9.0
aF9.0
aF8.0
aF10.0
aF8.0
aF10.0
aF10.0
aF10.0
aF8.0
aF10.0
aF10.0
aF10.0
aF10.0
aF10.0
aF9.0
aF9.0
aF10.0
aF10.0
aF10.0
aF10.0
aF7.0
aF10.0
aF10.0
aF10.0
aF10.0
aF9.0
aF8.0
aF10.0
aF9.0
aF10.0
aF10.0
aF10.0
aF10.0
aF5.0
aF10.0
aF2.0
aF10.0
aF8.0
aF10.0
aF10.0
aF10.0
aF10.0
aF10.0
aF9.0
aF10.0
aF8.0
aF10.0
aF10.0
aF10.0
aF7.0
aF7.0
aF10.0
aF10.0
aF10.0
aF10.0
aF10.0
aF10.0
aF10.0
aF10.0
aF10.0
aF10.0
aF10.0
aF10.0
aF10.0
aF10.0
aF6.0
aF7.0
aF10.0
aF9.0
aF10.0
aF9.0
aF10.0
aF10.0
aF10.0
aF8.0
aF8.0
aF10.0
aF10.0
aF10.0
aF10.0
aF10.0
aF10.0
aF10.0
aF9.0
aF10.0
aF10.0
aF10.0
aF10.0
aF10.0
aF9.0
aF5.0
aF10.0
aF10.0
aF10.0
aF10.0
aF10.0
aF7.0
aF10.0
aF8.0
aF10.0
aF10.0
aF8.0
aF10.0
aF10.0
aF8.0
aF10.0
aF10.0
aF10.0
aF10.0
aF10.0
aF10.0
aF2.0
aF10.0
aF9.0
aF8.0
aF7.0
aF10.0
aF10.0
aF10.0
aF8.0
aF10.0
aF7.0
aF10.0
aF5.0
aF10.0
aF10.0
aF9.0
aF6.0
aF10.0
aF9.0
aF10.0
aF10.0
aF8.0
aF9.0
aF9.0
aF10.0
aF10.0
aF10.0
aF10.0
aF9.0
aF9.0
aF10.0
aF8.0
aF10.0
aF10.0
aF10.0
aF10.0
aF10.0
aF10.0
aF10.0
aF6.0
aF10.0
aF8.0
aF10.0
aF10.0
aF10.0
aF4.0
aF10.0
aF8.0
aF6.0
aF8.0
aF10.0
aF10.0
aF7.0
aF10.0
aF10.0
aF-13.0
aF8.0
aF10.0
aF10.0
aF10.0
aF8.0
aF9.0
aF10.0
aF10.0
aF10.0
aF10.0
aF10.0
aF10.0
aF10.0
aF10.0
aF10.0
aF10.0
aF10.0
aF8.0
aF10.0
aF10.0
aF10.0
aF10.0
aF6.0
aF10.0
aF10.0
aF10.0
aF10.0
aF10.0
aF8.0
aF9.0
aF10.0
aF10.0
aF10.0
aF10.0
aF10.0
aF10.0
aF10.0
aF10.0
aF10.0
aF10.0
aF9.0
aF10.0
aF8.0
aF9.0
aF10.0
aF10.0
aF8.0
aF10.0
aF10.0
aF8.0
aF10.0
aF10.0
aF10.0
aF10.0
aF10.0
aF10.0
aF8.0
aF10.0
aF10.0
aF10.0
aF10.0
aF10.0
aF10.0
aF9.0
aF10.0
aF7.0
aF10.0
aF10.0
aF10.0
aF9.0
aF0.0
aF10.0
aF10.0
aF10.0
aF10.0
aF10.0
aF10.0
aF10.0
aF10.0
aF8.0
aF10.0
aF10.0
aF10.0
aF10.0
aF10.0
aF10.0
aF10.0
aF10.0
aF10.0
aF10.0
aF10.0
aF10.0
aF8.0
aF10.0
aF10.0
aF10.0
aF10.0
aF9.0
aF10.0
aF10.0
aF7.0
aF10.0
aF10.0
aF10.0
aF10.0
aF10.0
aF10.0
aF10.0
aF6.0
aF10.0
aF9.0
aF10.0
aF10.0
aF10.0
aF10.0
aF10.0
aF10.0
aF10.0
aF10.0
aF10.0
aF9.0
aF8.0
aF10.0
aF10.0
aF9.0
aF10.0
aF7.0
aF9.0
aF7.0
aF10.0
aF10.0
aF8.0
aF8.0
aF8.0
aF10.0
aF9.0
aF6.0
aF6.0
aF8.0
aF10.0
aF10.0
aF10.0
aF10.0
aF10.0
aF10.0
aF9.0
aF10.0
aF10.0
aF4.0
aF8.0
aF10.0
aF10.0
aF10.0
aF10.0
aF3.0
aF10.0
aF10.0
aF10.0
aF10.0
aF10.0
aF10.0
aF10.0
aF10.0
aF10.0
aF10.0
aF10.0
aF8.0
aF10.0
aF10.0
aF8.0
aF10.0
aF10.0
aF10.0
aF10.0
aF9.0
aF8.0
aF9.0
aF9.0
aF8.0
aF10.0
aF10.0
aF10.0
aF9.0
aF10.0
aF10.0
aF2.0
aF10.0
aF5.0
aF10.0
aF10.0
aF10.0
aF10.0
aF10.0
aF9.0
aF10.0
aF10.0
aF9.0
aF10.0
aF10.0
aF7.0
aF10.0
aF8.0
aF10.0
aF10.0
aF9.0
aF-2.0
aF10.0
aF10.0
aF9.0
aF10.0
aF9.0
aF8.0
aF8.0
aF10.0
aF10.0
aF10.0
aF10.0
aF10.0
aF10.0
aF10.0
aF9.0
aF10.0
aF10.0
aF9.0
aF10.0
aF10.0
aF10.0
aF10.0
aF10.0
aF10.0
aF10.0
aF10.0
aF10.0
aF10.0
aF10.0
aF9.0
aF9.0
aF10.0
aF3.0
aF10.0
aF10.0
aF10.0
aF10.0
aF10.0
aF10.0
aF10.0
aF10.0
aF10.0
aF10.0
aF0.0
aF10.0
aF8.0
aF10.0
aF10.0
aF10.0
aF6.0
aF10.0
aF10.0
aF10.0
aF10.0
aF10.0
aF10.0
aF10.0
aF10.0
aF10.0
aF10.0
aF9.0
aF10.0
aF7.0
aF10.0
aF8.0
aF10.0
aF10.0
aF10.0
aF10.0
aF9.0
aF10.0
aF10.0
aF9.0
aF8.0
aF10.0
aF10.0
aF10.0
aF10.0
aF10.0
aF10.0
aF7.0
aF6.0
aF10.0
aF9.0
aF10.0
aF9.0
aF10.0
aF6.0
aF10.0
aF10.0
aF10.0
aF5.0
aF8.0
aF8.0
aF9.0
aF10.0
aF9.0
aF7.0
aF1.0
aF10.0
aF10.0
aF10.0
aF10.0
aF10.0
aF10.0
aF10.0
aF6.0
aF8.0
aF9.0
aF4.0
aF10.0
aF9.0
aF10.0
aF10.0
aF8.0
aF4.0
aF10.0
aF10.0
aF10.0
aF10.0
aF7.0
aF10.0
aF8.0
aF10.0
aF10.0
aF10.0
aF8.0
aF9.0
aF10.0
aF7.0
aF10.0
aF8.0
aF10.0
aF10.0
aF10.0
aF9.0
aF10.0
aF10.0
aF10.0
aF10.0
aF10.0
aF10.0
aF9.0
aF10.0
aF8.0
aF10.0
aF10.0
aF10.0
aF10.0
aF10.0
aF10.0
aF8.0
aF10.0
aF10.0
aF9.0
aF10.0
aF10.0
aF10.0
aF9.0
aF10.0
aF10.0
aF6.0
aF10.0
aF10.0
aF10.0
aF10.0
aF10.0
aF8.0
aF7.0
aF6.0
aF10.0
aF10.0
aF3.0
aF10.0
aF10.0
aF10.0
aF7.0
aF10.0
aF10.0
aF10.0
aF9.0
aF10.0
aF10.0
aF7.0
aF10.0
aF6.0
aF10.0
aF10.0
aF10.0
aF10.0
aF10.0
aF8.0
aF9.0
aF7.0
aF9.0
aF8.0
aF10.0
aF10.0
aF10.0
aF10.0
aF10.0
aF10.0
aF10.0
aF10.0
aF9.0
aF10.0
aF10.0
aF10.0
aF10.0
aF9.0
aF10.0
aF8.0
aF8.0
aF10.0
aF10.0
aF9.0
aF10.0
aF9.0
aF10.0
aF8.0
aF10.0
aF10.0
aF10.0
aF10.0
aF4.0
aF10.0
aF5.0
aF8.0
aF10.0
aF10.0
aF10.0
aF10.0
aF10.0
aF5.0
aF10.0
aF10.0
aF10.0
aF8.0
aF10.0
aF10.0
aF10.0
aF10.0
aF10.0
aF10.0
aF6.0
aF10.0
aF10.0
aF10.0
aF10.0
aF10.0
aF10.0
aF7.0
aF9.0
aF10.0
aF9.0
aF10.0
aF10.0
aF10.0
aF9.0
aF10.0
aF9.0
aF10.0
aF10.0
aF9.0
aF3.0
aF10.0
aF10.0
aF10.0
aF9.0
aF10.0
aF10.0
aF9.0
aF10.0
aF10.0
aF10.0
aF10.0
aF9.0
aF8.0
aF10.0
aF8.0
aF10.0
aF10.0
aF10.0
aF10.0
aF9.0
aF10.0
aF10.0
aF10.0
aF10.0
aF9.0
aF10.0
aF10.0
aF10.0
aF10.0
aF10.0
aF7.0
aF10.0
aF9.0
aF10.0
aF-4.0
aF10.0
aF7.0
aF10.0
aF10.0
aF10.0
aF10.0
aF10.0
aF10.0
aF10.0
aF10.0
aF10.0
aF10.0
aF10.0
aF9.0
aF4.0
aF9.0
aF10.0
aF10.0
aF10.0
aF10.0
aF10.0
aF10.0
aF10.0
aF10.0
aF8.0
aF10.0
aF10.0
aF10.0
aF9.0
aF10.0
aF8.0
aF10.0
aF9.0
aF10.0
aF6.0
aF10.0
aF10.0
aF10.0
aF10.0
aF10.0
aF-5.0
aF-2.0
aF10.0
aF10.0
aF10.0
aF9.0
aF6.0
aF10.0
aF10.0
aF10.0
aF9.0
aF9.0
aF10.0
aF10.0
aF9.0
aF8.0
aF10.0
aF10.0
aF10.0
aF10.0
aF10.0
aF10.0
aF10.0
aF7.0
aF10.0
aF7.0
aF8.0
aF9.0
aF9.0
aF10.0
aF10.0
aF10.0
aF10.0
aF9.0
aF10.0
aF10.0
aF9.0
aF2.0
aF10.0
aF3.0
aF10.0
aF10.0
aF9.0
aF10.0
aF10.0
aF10.0
aF10.0
aF10.0
aF10.0
aF7.0
aF10.0
aF9.0
aF6.0
aF10.0
aF10.0
aF10.0
aF9.0
aF10.0
aF6.0
aF10.0
aF10.0
aF10.0
aF6.0
aF10.0
aF9.0
aF8.0
aF7.0
aF5.0
aF9.0
aF5.0
aF9.0
aF10.0
aF9.0
aF9.0
aF10.0
aF10.0
aF10.0
aF6.0
aF10.0
aF10.0
aF8.0
aF10.0
aF10.0
aF10.0
aF10.0
aF10.0
aF10.0
aF10.0
aF10.0
aF10.0
aF10.0
aF10.0
aF10.0
aF10.0
aF10.0
aF9.0
aF6.0
aF10.0
aF10.0
aF3.0
aF5.0
aF9.0
aF10.0
aF9.0
aF9.0
aF10.0
aF10.0
aF10.0
aF10.0
aF10.0
aF10.0
aF10.0
aF10.0
aF8.0
aF10.0
aF10.0
aF4.0
aF10.0
aF10.0
aF7.0
aF10.0
aF-4.0
aF10.0
aF10.0
aF10.0
aF8.0
aF10.0
aF10.0
aF6.0
aF10.0
aF10.0
aF0.0
aF10.0
aF10.0
aF10.0
aF9.0
aF10.0
aF10.0
aF10.0
aF10.0
aF6.0
aF10.0
aF10.0
aF10.0
aF10.0
aF10.0
aF9.0
aF8.0
aF10.0
aF10.0
aF10.0
aF10.0
aF10.0
aF10.0
aF10.0
aF10.0
aF10.0
aF10.0
aF10.0
aF10.0
aF10.0
aF9.0
aF10.0
aF9.0
aF10.0
aF9.0
aF8.0
aF10.0
aF10.0
aF9.0
aF9.0
aF10.0
aF10.0
aF10.0
aF10.0
aF10.0
aF8.0
aF10.0
aF10.0
aF10.0
aF10.0
aF10.0
aF2.0
aF10.0
aF10.0
aF10.0
aF10.0
aF10.0
aF9.0
aF10.0
aF10.0
aF10.0
aF8.0
aF10.0
aF10.0
aF10.0
aF10.0
aF2.0
aF10.0
aF4.0
aF10.0
aF10.0
aF10.0
aF10.0
aF9.0
aF10.0
aF10.0
aF10.0
aF10.0
aF8.0
aF10.0
aF10.0
aF10.0
aF5.0
aF10.0
aF10.0
aF10.0
aF8.0
aF10.0
aF10.0
aF4.0
aF-3.0
aF10.0
aF10.0
aF9.0
aF10.0
aF10.0
aF10.0
aF8.0
aF9.0
aF9.0
aF7.0
aF10.0
aF10.0
aF10.0
aF8.0
aF10.0
aF10.0
aF10.0
aF7.0
aF8.0
aF10.0
aF6.0
aF10.0
aF8.0
aF10.0
aF10.0
aF8.0
aF9.0
aF10.0
aF10.0
aF10.0
aF9.0
aF10.0
aF9.0
aF9.0
aF10.0
aF10.0
aF4.0
aF10.0
aF10.0
aF9.0
aF9.0
aF9.0
aF8.0
aF10.0
aF9.0
aF10.0
aF10.0
aF6.0
aF10.0
aF10.0
aF10.0
aF10.0
aF10.0
aF10.0
aF10.0
aF9.0
aF10.0
aF10.0
aF10.0
aF10.0
aF10.0
aF10.0
aF10.0
aF10.0
aF10.0
aF10.0
aF10.0
aF5.0
aF10.0
aF9.0
aF10.0
aF10.0
aF10.0
aF10.0
aF10.0
aF10.0
aF9.0
aF10.0
aF6.0
aF7.0
aF10.0
aF5.0
aF10.0
aF5.0
aF10.0
aF10.0
aF7.0
aF9.0
aF9.0
aF10.0
aF10.0
aF9.0
aF10.0
aF10.0
aF9.0
aF8.0
aF10.0
aF10.0
aF6.0
aF10.0
aF8.0
aF10.0
aF9.0
aF10.0
aF10.0
aF10.0
aF10.0
aF10.0
aF10.0
aF10.0
aF6.0
aF10.0
aF5.0
aF10.0
aF10.0
aF10.0
aF10.0
aF10.0
aF10.0
aF10.0
aF9.0
aF10.0
aF10.0
aF10.0
aF10.0
aF10.0
aF10.0
aF7.0
aF10.0
aF9.0
aF4.0
aF10.0
aF10.0
aF10.0
aF10.0
aF10.0
aF9.0
aF10.0
aF10.0
aF10.0
aF9.0
aF6.0
aF9.0
aF10.0
aF9.0
aF10.0
aF10.0
aF10.0
aF10.0
aF9.0
aF10.0
aF9.0
aF10.0
aF10.0
aF10.0
aF9.0
aF9.0
aF10.0
aF10.0
aF10.0
aF10.0
aF10.0
aF10.0
aF10.0
aF9.0
aF10.0
aF9.0
aF10.0
aF7.0
aF5.0
aF9.0
aF10.0
aF10.0
aF9.0
aF9.0
aF10.0
aF10.0
aF10.0
aF5.0
aF10.0
aF10.0
aF10.0
aF10.0
aF8.0
aF4.0
aF10.0
aF10.0
aF7.0
aF9.0
aF4.0
aF10.0
aF10.0
aF10.0
aF10.0
aF10.0
aF10.0
aF10.0
aF10.0
aF9.0
aF10.0
aF7.0
aF9.0
aF10.0
aF10.0
aF6.0
aF10.0
aF10.0
aF10.0
aF10.0
aF10.0
aF10.0
aF10.0
aF10.0
aF10.0
aF9.0
aF10.0
aF10.0
aF8.0
aF6.0
aF10.0
aF10.0
aF10.0
aF5.0
aF10.0
aF2.0
aF10.0
aF7.0
aF10.0
aF10.0
aF10.0
aF10.0
aF10.0
aF10.0
aF10.0
aF9.0
aF1.0
aF10.0
aF10.0
aF10.0
aF10.0
aF6.0
aF9.0
aF10.0
aF9.0
aF10.0
aF10.0
aF10.0
aF10.0
aF10.0
aF10.0
aF9.0
aF10.0
aF8.0
aF10.0
aF10.0
aF5.0
aF10.0
aF10.0
aF10.0
aF9.0
aF9.0
aF10.0
aF9.0
aF10.0
aF10.0
aF8.0
aF10.0
aF10.0
aF10.0
aF10.0
aF10.0
aF10.0
aF10.0
aF10.0
aF10.0
aF10.0
aF8.0
aF10.0
aF3.0
aF10.0
aF10.0
aF10.0
aF10.0
aF10.0
aF10.0
aF10.0
aF10.0
aF10.0
aF10.0
aF10.0
aF10.0
aF9.0
aF10.0
aF8.0
aF9.0
aF10.0
aF9.0
aF10.0
aF10.0
aF10.0
aF10.0
aF10.0
aF7.0
aF9.0
aF10.0
aF10.0
aF10.0
aF10.0
aF8.0
aF10.0
aF6.0
aF10.0
aF10.0
aF10.0
aF10.0
aF10.0
aF10.0
aF10.0
aF9.0
aF9.0
aF9.0
aF10.0
aF10.0
aF10.0
aF9.0
aF10.0
aF10.0
aF10.0
aF2.0
aF10.0
aF10.0
aF9.0
aF10.0
aF10.0
aF10.0
aF10.0
aF10.0
aF10.0
aF9.0
aF10.0
aF10.0
aF10.0
aF4.0
aF10.0
aF10.0
aF10.0
aF10.0
aF9.0
aF10.0
aF10.0
aF7.0
aF10.0
aF10.0
aF7.0
aF10.0
aF10.0
aF10.0
aF10.0
aF10.0
aF10.0
aF10.0
aF10.0
aF10.0
aF9.0
aF10.0
aF10.0
aF10.0
aF10.0
aF9.0
aF10.0
aF10.0
aF9.0
aF6.0
aF9.0
aF5.0
aF3.0
aF10.0
aF10.0
aF6.0
aF10.0
aF10.0
aF10.0
aF10.0
aF9.0
aF10.0
aF10.0
aF10.0
aF10.0
aF9.0
aF10.0
aF10.0
aF9.0
aF10.0
aF10.0
aF8.0
aF10.0
aF10.0
aF9.0
aF9.0
aF9.0
aF8.0
aF10.0
aF10.0
aF10.0
aF10.0
aF10.0
aF10.0
aF10.0
aF7.0
aF10.0
aF10.0
aF10.0
aF8.0
aF10.0
aF10.0
aF10.0
aF10.0
aF10.0
aF10.0
aF10.0
aF10.0
aF10.0
aF10.0
aF9.0
aF10.0
aF10.0
aF10.0
aF7.0
aF9.0
aF10.0
aF10.0
aF8.0
aF10.0
aF10.0
aF10.0
aF10.0
aF10.0
aF10.0
aF10.0
aF10.0
aF10.0
aF10.0
aF10.0
aF10.0
aF10.0
aF9.0
aF9.0
aF10.0
aF10.0
aF10.0
aF10.0
aF10.0
aF9.0
aF10.0
aF10.0
aF10.0
aF4.0
aF10.0
aF9.0
aF10.0
aF7.0
aF7.0
aF7.0
aF10.0
aF10.0
aF9.0
aF9.0
aF10.0
aF10.0
aF10.0
aF10.0
aF10.0
aF10.0
aF10.0
aF9.0
aF10.0
aF10.0
aF10.0
aF3.0
aF10.0
aF10.0
aF3.0
aF0.0
aF10.0
aF4.0
aF10.0
aF7.0
aF4.0
aF10.0
aF10.0
aF7.0
asS'steps'
p179
(lp180
I501
aI501
aI501
aI501
aI501
aI501
aI501
aI480
aI99
aI462
aI158
aI186
aI341
aI101
aI117
aI65
aI135
aI20
aI142
aI48
aI135
aI86
aI57
aI26
aI82
aI30
aI107
aI86
aI84
aI56
aI36
aI96
aI101
aI91
aI20
aI42
aI56
aI89
aI83
aI35
aI99
aI43
aI116
aI32
aI65
aI100
aI87
aI65
aI36
aI56
aI21
aI61
aI74
aI57
aI18
aI93
aI35
aI47
aI56
aI143
aI56
aI65
aI117
aI52
aI89
aI55
aI53
aI52
aI55
aI88
aI75
aI69
aI67
aI47
aI53
aI65
aI46
aI46
aI36
aI54
aI47
aI30
aI49
aI38
aI30
aI12
aI37
aI56
aI39
aI93
aI18
aI37
aI12
aI46
aI19
aI77
aI15
aI77
aI49
aI80
aI26
aI59
aI51
aI33
aI20
aI78
aI34
aI42
aI44
aI69
aI28
aI51
aI41
aI37
aI42
aI61
aI26
aI43
aI74
aI42
aI37
aI47
aI37
aI35
aI28
aI23
aI25
aI21
aI70
aI16
aI46
aI46
aI29
aI27
aI16
aI48
aI36
aI33
aI19
aI63
aI38
aI24
aI37
aI21
aI40
aI45
aI21
aI53
aI42
aI43
aI33
aI26
aI39
aI32
aI38
aI35
aI30
aI18
aI32
aI22
aI20
aI25
aI31
aI33
aI19
aI46
aI31
aI21
aI46
aI18
aI30
aI23
aI44
aI31
aI36
aI28
aI24
aI42
aI27
aI28
aI40
aI29
aI34
aI36
aI31
aI29
aI35
aI25
aI28
aI28
aI16
aI30
aI27
aI44
aI31
aI33
aI37
aI54
aI25
aI34
aI42
aI21
aI19
aI39
aI26
aI22
aI27
aI32
aI26
aI20
aI28
aI29
aI30
aI25
aI38
aI33
aI18
aI26
aI35
aI35
aI42
aI19
aI16
aI18
aI31
aI27
aI31
aI30
aI48
aI30
aI62
aI28
aI23
aI36
aI25
aI27
aI34
aI16
aI32
aI27
aI35
aI40
aI33
aI22
aI19
aI27
aI29
aI23
aI30
aI42
aI30
aI35
aI31
aI33
aI31
aI31
aI20
aI21
aI28
aI36
aI20
aI47
aI44
aI33
aI28
aI27
aI18
aI33
aI28
aI16
aI27
aI27
aI29
aI35
aI33
aI40
aI26
aI66
aI20
aI44
aI38
aI27
aI49
aI27
aI51
aI30
aI24
aI30
aI43
aI64
aI26
aI35
aI25
aI30
aI33
aI22
aI37
aI25
aI26
aI34
aI35
aI48
aI51
aI40
aI23
aI27
aI20
aI29
aI44
aI29
aI26
aI27
aI40
aI20
aI37
aI33
aI72
aI87
aI23
aI17
aI20
aI78
aI24
aI27
aI36
aI28
aI26
aI90
aI26
aI27
aI39
aI37
aI25
aI36
aI27
aI28
aI19
aI26
aI23
aI31
aI23
aI35
aI50
aI25
aI27
aI27
aI31
aI26
aI26
aI29
aI23
aI20
aI29
aI36
aI46
aI32
aI41
aI28
aI40
aI90
aI28
aI72
aI29
aI25
aI31
aI26
aI33
aI29
aI49
aI27
aI36
aI22
aI29
aI28
aI25
aI24
aI41
aI24
aI29
aI31
aI38
aI25
aI23
aI32
aI33
aI30
aI26
aI26
aI38
aI29
aI35
aI22
aI28
aI30
aI28
aI41
aI18
aI35
aI27
aI41
aI22
aI43
aI41
aI24
aI27
aI17
aI25
aI27
aI49
aI42
aI90
aI17
aI27
aI28
aI26
aI30
aI22
aI21
aI22
aI17
aI18
aI28
aI15
aI23
aI25
aI22
aI23
aI30
aI24
aI50
aI24
aI28
aI20
aI19
aI29
aI32
aI22
aI28
aI23
aI23
aI23
aI17
aI26
aI26
aI26
aI30
aI26
aI21
aI30
aI21
aI21
aI12
aI19
aI26
aI16
aI19
aI24
aI19
aI25
aI17
aI19
aI24
aI23
aI31
aI19
aI12
aI42
aI23
aI27
aI21
aI24
aI31
aI24
aI27
aI21
aI17
aI33
aI22
aI28
aI24
aI23
aI23
aI39
aI22
aI20
aI46
aI28
aI43
aI17
aI20
aI21
aI19
aI22
aI22
aI21
aI32
aI26
aI31
aI32
aI43
aI23
aI17
aI33
aI30
aI34
aI22
aI25
aI25
aI25
aI27
aI27
aI24
aI32
aI36
aI21
aI32
aI16
aI27
aI18
aI19
aI19
aI14
aI27
aI24
aI30
aI24
aI24
aI17
aI22
aI20
aI26
aI19
aI29
aI38
aI24
aI17
aI26
aI22
aI20
aI31
aI63
aI16
aI21
aI34
aI39
aI19
aI32
aI25
aI33
aI24
aI34
aI39
aI15
aI23
aI34
aI33
aI33
aI30
aI30
aI21
aI17
aI30
aI19
aI19
aI20
aI22
aI14
aI25
aI23
aI18
aI23
aI24
aI28
aI25
aI42
aI24
aI26
aI28
aI21
aI25
aI30
aI20
aI23
aI20
aI25
aI18
aI25
aI30
aI14
aI24
aI40
aI17
aI30
aI30
aI24
aI22
aI33
aI31
aI29
aI13
aI27
aI24
aI21
aI28
aI20
aI25
aI28
aI15
aI33
aI19
aI14
aI39
aI36
aI22
aI27
aI26
aI22
aI18
aI15
aI17
aI27
aI36
aI26
aI22
aI24
aI28
aI22
aI26
aI28
aI22
aI27
aI21
aI19
aI15
aI31
aI28
aI28
aI22
aI28
aI21
aI18
aI23
aI22
aI11
aI32
aI18
aI23
aI28
aI41
aI17
aI26
aI27
aI27
aI30
aI33
aI33
aI29
aI23
aI23
aI20
aI26
aI15
aI18
aI26
aI32
aI21
aI31
aI25
aI16
aI21
aI29
aI23
aI25
aI20
aI31
aI36
aI36
aI13
aI26
aI24
aI18
aI36
aI28
aI26
aI32
aI18
aI18
aI20
aI26
aI29
aI33
aI23
aI19
aI31
aI29
aI22
aI26
aI35
aI26
aI28
aI19
aI25
aI15
aI34
aI27
aI55
aI18
aI27
aI14
aI25
aI22
aI20
aI26
aI23
aI31
aI31
aI26
aI33
aI30
aI31
aI28
aI19
aI44
aI22
aI24
aI16
aI18
aI36
aI28
aI35
aI16
aI23
aI21
aI25
aI27
aI27
aI20
aI22
aI21
aI21
aI29
aI16
aI31
aI39
aI17
aI21
aI18
aI20
aI27
aI23
aI21
aI16
aI40
aI18
aI19
aI32
aI43
aI44
aI25
aI17
aI22
aI42
aI29
aI22
aI27
aI21
aI29
aI16
aI22
aI20
aI18
aI26
aI22
aI22
aI39
aI23
aI28
aI33
aI33
aI23
aI21
aI23
aI35
aI28
aI24
aI28
aI27
aI31
aI35
aI27
aI31
aI26
aI25
aI13
aI21
aI27
aI14
aI36
aI18
aI31
aI31
aI17
aI28
aI30
aI23
aI13
aI21
aI43
aI21
aI19
aI18
aI42
aI25
aI20
aI15
aI13
aI34
aI25
aI33
aI33
aI17
aI34
aI21
aI21
aI23
aI39
aI21
aI20
aI30
aI28
aI29
aI30
aI33
aI18
aI21
aI21
aI32
aI38
aI42
aI25
aI32
aI29
aI26
aI21
aI23
aI18
aI41
aI27
aI33
aI25
aI30
aI22
aI38
aI30
aI32
aI24
aI21
aI29
aI23
aI29
aI20
aI19
aI22
aI23
aI17
aI19
aI21
aI22
aI14
aI21
aI19
aI25
aI26
aI31
aI39
aI17
aI26
aI41
aI22
aI13
aI30
aI34
aI20
aI29
aI22
aI29
aI23
aI18
aI28
aI27
aI22
aI33
aI23
aI26
aI20
aI23
aI24
aI22
aI22
aI12
aI23
aI27
aI16
aI16
aI30
aI30
aI20
aI46
aI27
aI28
aI24
aI21
aI24
aI23
aI26
aI12
aI32
aI32
aI17
aI20
aI28
aI24
aI24
aI31
aI39
aI34
aI26
aI24
aI19
aI20
aI27
aI26
aI27
aI27
aI30
aI19
aI20
aI25
aI24
aI22
aI20
aI41
aI30
aI25
aI22
aI26
aI19
aI28
aI33
aI37
aI37
aI24
aI25
aI19
aI27
aI30
aI24
aI24
aI20
aI14
aI32
aI40
aI18
aI21
aI28
aI25
aI23
aI26
aI22
aI22
aI33
aI28
aI23
aI19
aI24
aI38
aI19
aI14
aI30
aI18
aI27
aI39
aI27
aI23
aI27
aI17
aI23
aI29
aI15
aI23
aI25
aI24
aI16
aI19
aI20
aI17
aI21
aI29
aI33
aI26
aI30
aI21
aI26
aI13
aI28
aI18
aI36
aI31
aI26
aI14
aI39
aI25
aI20
aI25
aI12
aI26
aI15
aI20
aI23
aI28
aI20
aI43
aI26
aI25
aI20
aI38
aI24
aI15
aI17
aI21
aI21
aI30
aI17
aI24
aI16
aI23
aI23
aI20
aI13
aI12
aI20
aI25
aI26
aI55
aI17
aI18
aI24
aI22
aI29
aI23
aI32
aI19
aI20
aI32
aI27
aI24
aI36
aI30
aI17
aI16
aI21
aI21
aI31
aI20
aI20
aI26
aI33
aI27
aI25
aI37
aI15
aI21
aI22
aI18
aI24
aI22
aI30
aI25
aI35
aI21
aI23
aI17
aI20
aI15
aI15
aI24
aI14
aI21
aI24
aI26
aI26
aI16
aI20
aI19
aI13
aI17
aI25
aI16
aI28
aI25
aI29
aI42
aI17
aI30
aI22
aI18
aI25
aI15
aI20
aI22
aI15
aI12
aI52
aI15
aI29
aI28
aI26
aI21
aI25
aI25
aI31
aI25
aI18
aI18
aI20
aI24
aI28
aI23
aI31
aI22
aI15
aI32
aI22
aI25
aI16
aI27
aI19
aI18
aI18
aI31
aI47
aI22
aI14
aI25
aI17
aI19
aI27
aI28
aI26
aI23
aI16
aI25
aI45
aI18
aI29
aI24
aI18
aI28
aI12
aI20
aI20
aI21
aI18
aI21
aI24
aI14
aI27
aI27
aI23
aI26
aI21
aI21
aI23
aI14
aI24
aI20
aI18
aI17
aI27
aI26
aI13
aI16
aI19
aI25
aI29
aI16
aI18
aI17
aI18
aI34
aI17
aI22
aI30
aI38
aI20
aI28
aI18
aI18
aI19
aI19
aI17
aI26
aI18
aI21
aI30
aI15
aI21
aI18
aI18
aI23
aI31
aI13
aI22
aI25
aI24
aI21
aI12
aI25
aI23
aI28
aI18
aI13
aI35
aI19
aI19
aI28
aI20
aI21
aI25
aI22
aI28
aI22
aI26
aI21
aI15
aI16
aI20
aI29
aI25
aI19
aI19
aI41
aI15
aI21
aI33
aI15
aI20
aI18
aI26
aI25
aI25
aI31
aI19
aI18
aI21
aI21
aI15
aI26
aI25
aI22
aI28
aI29
aI33
aI44
aI17
aI14
aI29
aI23
aI16
aI21
aI15
aI18
aI32
aI18
aI21
aI16
aI25
aI24
aI15
aI18
aI27
aI20
aI18
aI21
aI31
aI20
aI25
aI33
aI24
aI23
aI18
aI19
aI21
aI29
aI17
aI24
aI27
aI21
aI16
aI23
aI16
aI18
aI23
aI17
aI27
aI22
aI19
aI22
aI18
aI25
aI20
aI23
aI30
aI20
aI23
aI24
aI36
aI14
aI24
aI17
aI17
aI28
aI24
aI17
aI19
aI18
aI17
aI31
aI19
aI33
aI24
aI21
aI15
aI29
aI19
aI16
aI26
aI20
aI23
aI27
aI19
aI30
aI18
aI26
aI20
aI21
aI23
aI44
aI23
aI27
aI23
aI21
aI21
aI19
aI24
aI34
aI22
aI18
aI14
aI24
aI17
aI16
aI27
aI16
aI21
aI43
aI17
aI30
aI32
aI19
aI22
aI22
aI17
aI17
aI15
aI25
aI15
aI23
aI18
aI18
aI31
aI18
aI20
aI21
aI28
aI18
aI24
aI21
aI28
aI23
aI24
aI18
aI17
aI17
aI16
aI12
aI22
aI15
aI26
aI15
aI14
aI19
aI25
aI27
aI16
aI23
aI15
aI23
aI17
aI27
aI20
aI24
aI20
aI15
aI26
aI21
aI28
aI29
aI20
aI37
aI14
aI13
aI18
aI15
aI21
aI20
aI29
aI20
aI25
aI24
aI22
aI17
aI24
aI25
aI29
aI14
aI20
aI20
aI34
aI24
aI20
aI18
aI23
aI23
aI19
aI38
aI26
aI17
aI21
aI23
aI25
aI15
aI23
aI29
aI12
aI20
aI16
aI32
aI15
aI25
aI18
aI19
aI22
aI17
aI27
aI19
aI24
aI37
aI16
aI20
aI13
aI14
aI21
aI20
aI27
aI31
aI24
aI19
aI24
aI24
aI19
aI23
aI22
aI17
aI18
aI18
aI30
aI17
aI19
aI27
aI21
aI27
aI14
aI24
aI20
aI29
aI16
aI18
aI25
aI21
aI16
aI20
aI24
aI19
aI17
aI22
aI20
aI27
aI12
aI19
aI23
aI27
aI24
aI20
aI15
aI28
aI29
aI20
aI16
aI24
aI16
aI27
aI20
aI17
aI23
aI21
aI32
aI24
aI22
aI23
aI22
aI25
aI27
aI17
aI20
aI21
aI18
aI22
aI30
aI33
aI25
aI18
aI24
aI22
aI20
aI22
aI16
aI22
aI24
aI21
aI25
aI20
aI25
aI14
aI27
aI18
aI21
aI18
aI21
aI13
aI24
aI26
aI16
aI14
aI27
aI19
aI28
aI24
aI20
aI26
aI22
aI28
aI29
aI22
aI22
aI17
aI29
aI26
aI34
aI22
aI17
aI25
aI26
aI19
aI24
aI23
aI30
aI20
aI18
aI21
aI26
aI18
aI21
aI18
aI17
aI19
aI21
aI20
aI17
aI21
aI30
aI22
aI22
aI16
aI17
aI19
aI20
aI17
aI16
aI21
aI19
aI27
aI19
aI17
aI20
aI22
aI18
aI22
aI20
aI23
aI24
aI19
aI25
aI20
aI23
aI19
aI20
aI24
aI22
aI21
aI24
aI21
aI18
aI25
aI20
aI19
aI14
aI20
aI30
aI17
aI22
aI18
aI26
aI17
aI22
aI24
aI21
aI15
aI24
aI25
aI20
aI29
aI18
aI28
aI25
aI16
aI14
aI17
aI18
aI17
aI19
aI25
aI22
aI18
aI27
aI19
aI26
aI26
aI17
aI21
aI22
aI19
aI20
aI25
aI29
aI24
aI24
aI11
aI17
aI19
aI15
aI21
aI28
aI24
aI16
aI24
aI32
aI17
aI20
aI21
aI22
aI19
aI17
aI27
aI22
aI15
aI22
aI18
aI16
aI26
aI21
aI19
aI15
aI19
aI13
aI23
aI24
aI16
aI20
aI26
aI22
aI31
aI22
aI25
aI16
aI24
aI21
aI22
aI16
aI27
aI13
aI22
aI18
aI27
aI16
aI21
aI23
aI20
aI17
aI27
aI16
aI18
aI19
aI14
aI23
aI16
aI30
aI17
aI16
aI19
aI23
aI14
aI18
aI29
aI15
aI16
aI19
aI19
aI20
aI16
aI22
aI22
aI18
aI27
aI15
aI22
aI28
aI24
aI20
aI24
aI21
aI16
aI18
aI24
aI18
aI22
aI21
aI19
aI22
aI19
aI19
aI26
aI28
aI12
aI20
aI23
aI22
aI22
aI21
aI23
aI19
aI24
aI21
aI16
aI13
aI30
aI27
aI21
aI33
aI19
aI20
aI25
aI19
aI27
aI13
aI17
aI12
aI20
aI16
aI31
aI23
aI28
aI19
aI18
aI27
aI33
aI21
aI18
aI27
aI28
aI33
aI17
aI25
aI39
aI17
aI23
aI12
aI20
aI25
aI20
aI17
aI24
aI20
aI26
aI33
aI21
aI32
aI30
aI22
aI18
aI27
aI22
aI13
aI22
aI20
aI23
aI19
aI26
aI16
aI27
aI19
aI20
aI20
aI17
aI19
aI19
aI24
aI18
aI17
aI16
aI34
aI30
aI19
aI20
aI19
aI26
aI21
aI23
aI18
aI22
aI29
aI20
aI30
aI16
aI22
aI26
aI18
aI35
aI25
aI22
aI19
aI22
aI31
aI26
aI17
aI31
aI27
aI18
aI16
aI12
aI31
aI30
aI18
aI19
aI28
aI18
aI25
aI19
aI22
aI19
aI21
aI25
aI22
aI21
aI20
aI18
aI20
aI15
aI18
aI25
aI24
aI13
aI20
aI19
aI34
aI19
aI16
aI23
aI25
aI20
aI24
aI23
aI23
aI17
aI23
aI15
aI20
aI21
aI17
aI27
aI20
aI31
aI17
aI23
aI29
aI13
aI15
aI25
aI16
aI21
aI13
aI28
aI23
aI27
aI11
aI17
aI17
aI27
aI27
aI18
aI25
aI21
aI31
aI15
aI28
aI20
aI21
aI31
aI18
aI23
aI19
aI21
aI18
aI21
aI17
aI26
aI24
aI28
aI23
aI29
aI23
aI20
aI27
aI19
aI23
aI18
aI12
aI18
aI20
aI28
aI24
aI21
aI18
aI22
aI20
aI18
aI20
aI18
aI22
aI32
aI14
aI21
aI20
aI18
aI26
aI36
aI30
aI41
aI17
aI26
aI20
aI23
aI23
aI24
aI18
aI25
aI19
aI17
aI20
aI23
aI21
aI22
aI23
aI18
aI15
aI20
aI15
aI25
aI23
aI18
aI21
aI17
aI22
aI19
aI16
aI23
aI28
aI22
aI28
aI22
aI21
aI23
aI23
aI13
aI20
aI17
aI21
aI16
aI14
aI19
aI23
aI21
aI21
aI18
aI25
aI29
aI19
aI31
aI21
aI29
aI21
aI21
aI24
aI31
aI29
aI20
aI21
aI26
aI21
aI21
aI22
aI27
aI19
aI20
aI29
aI32
aI18
aI25
aI25
aI33
aI23
aI22
aI18
aI22
aI24
aI19
aI21
aI30
aI23
aI21
aI32
aI20
aI25
aI19
aI31
aI18
aI17
aI22
aI28
aI23
aI24
aI25
aI22
aI23
aI30
aI31
aI20
aI19
aI25
aI23
aI19
aI15
aI18
aI23
aI18
aI13
aI22
aI23
aI25
aI24
aI28
aI27
aI18
aI16
aI21
aI33
aI25
aI15
aI17
aI28
aI23
aI20
aI19
aI24
aI21
aI24
aI23
aI23
aI23
aI23
aI26
aI21
aI16
aI19
aI20
aI30
aI17
aI17
aI20
aI26
aI20
aI19
aI16
aI25
aI22
aI34
aI16
aI12
aI19
aI17
aI34
aI21
aI21
aI16
aI24
aI24
aI31
aI17
aI18
aI21
aI24
aI18
aI18
aI27
aI19
aI27
aI27
aI13
aI18
aI18
aI27
aI21
aI20
aI19
aI18
aI20
aI17
aI26
aI15
aI27
aI12
aI20
aI25
aI22
aI22
aI20
aI22
aI19
aI16
aI14
aI21
aI17
aI21
aI22
aI29
aI20
aI24
aI23
aI20
aI26
aI26
aI21
aI28
aI20
aI24
aI20
aI22
aI21
aI27
aI14
aI20
aI28
aI23
aI17
aI18
aI20
aI22
aI25
aI23
aI19
aI12
aI15
aI25
aI26
aI31
aI27
aI16
aI19
aI24
aI22
aI28
aI18
aI30
aI22
aI24
aI16
aI17
aI25
aI20
aI18
aI15
aI21
aI29
aI25
aI21
aI20
aI14
aI20
aI18
aI18
aI17
aI21
aI21
aI21
aI31
aI21
aI25
aI22
aI22
aI28
aI21
aI26
aI22
aI21
aI17
aI21
aI20
aI27
aI17
aI28
aI26
aI23
aI20
aI21
aI11
aI21
aI23
aI15
aI15
aI18
aI22
aI25
aI19
aI25
aI13
aI18
aI24
aI19
aI28
aI27
aI33
aI22
aI22
aI24
aI19
aI20
aI23
aI20
aI20
aI16
aI26
aI27
aI21
aI19
aI20
aI21
aI23
aI23
aI13
aI21
aI21
aI23
aI23
aI19
aI23
aI17
aI18
aI19
aI27
aI23
aI16
aI22
aI16
aI22
aI19
aI18
aI13
aI19
aI24
aI14
aI15
aI27
aI26
aI26
aI25
aI20
aI19
aI30
aI15
aI21
aI25
aI23
aI24
aI25
aI16
aI25
aI30
aI18
aI20
aI19
aI33
aI16
aI22
aI36
aI22
aI18
aI17
aI25
aI12
aI23
aI21
aI19
aI13
aI16
aI18
aI20
aI17
aI18
aI31
aI22
aI19
aI19
aI24
aI16
aI17
aI21
aI19
aI20
aI26
aI29
aI28
aI20
aI21
aI19
aI18
aI27
aI20
aI28
aI28
aI23
aI18
aI19
aI19
aI27
aI26
aI22
aI18
aI25
aI21
aI14
aI19
aI22
aI34
aI20
aI22
aI24
aI21
aI17
aI16
aI19
aI19
aI32
aI25
aI26
aI17
aI30
aI16
aI25
aI26
aI20
aI12
aI31
aI20
aI20
aI34
aI31
aI18
aI21
aI20
aI27
aI23
aI19
aI20
aI26
aI24
aI27
aI17
aI33
aI24
aI15
aI24
aI29
aI22
aI17
aI21
aI31
aI25
aI26
aI20
aI20
aI18
aI22
aI17
aI14
aI25
aI23
aI27
aI25
aI22
aI17
aI22
aI18
aI23
aI35
aI29
aI21
aI11
aI15
aI25
aI17
aI21
aI27
aI27
aI20
aI24
aI22
aI24
aI28
aI24
aI22
aI17
aI21
aI21
aI17
aI18
aI22
aI28
aI29
aI26
aI27
aI37
aI19
aI25
aI24
aI17
aI22
aI20
aI30
aI19
aI21
aI21
aI17
aI22
aI24
aI19
aI37
aI10
aI27
aI29
aI25
aI29
aI18
aI27
aI18
aI24
aI26
aI24
aI17
aI23
aI18
aI19
aI19
aI21
aI27
aI29
aI23
aI21
aI16
aI16
aI22
aI16
aI28
aI16
aI20
aI23
aI16
aI26
aI19
aI20
aI19
aI22
aI16
aI24
aI16
aI28
aI25
aI30
aI23
aI22
aI22
aI24
aI14
aI21
aI19
aI24
aI20
aI14
aI27
aI23
aI32
aI19
aI19
aI13
aI25
aI30
aI23
aI18
aI19
aI26
aI16
aI17
aI15
aI25
aI21
aI20
aI18
aI17
aI12
aI26
aI15
aI19
aI25
aI23
aI12
aI28
aI19
aI21
aI17
aI15
aI27
aI12
aI23
aI23
aI21
aI11
aI30
aI26
aI24
aI39
aI20
aI19
aI25
aI28
aI22
aI24
aI22
aI23
aI22
aI20
aI23
aI21
aI24
aI28
aI15
aI17
aI28
aI24
aI31
aI18
aI23
aI24
aI24
aI22
aI14
aI24
aI12
aI20
aI16
aI29
aI21
aI19
aI16
aI9
aI18
aI21
aI25
aI19
aI23
aI29
aI16
aI26
aI23
aI19
aI33
aI28
aI15
aI11
aI18
aI19
aI18
aI12
aI24
aI16
aI18
aI22
aI16
aI20
aI20
aI11
aI20
aI16
aI20
aI16
aI18
aI17
aI29
aI19
aI19
aI18
aI24
aI23
aI22
aI16
aI17
aI22
aI19
aI18
aI18
aI17
aI11
aI18
aI19
aI15
aI23
aI16
aI29
aI22
aI22
aI20
aI22
aI20
aI23
aI20
aI22
aI22
aI24
aI15
aI24
aI14
aI18
aI27
aI19
aI24
aI22
aI20
aI18
aI17
aI20
aI18
aI22
aI21
aI20
aI22
aI32
aI28
aI22
aI20
aI26
aI19
aI14
aI22
aI24
aI28
aI24
aI19
aI23
aI11
aI13
aI22
aI19
aI36
aI20
aI20
aI18
aI19
aI23
aI25
aI25
aI33
aI19
aI24
aI14
aI20
aI20
aI14
aI18
aI19
aI19
aI12
aI29
aI31
aI15
aI21
aI27
aI20
aI28
aI23
aI18
aI24
aI30
aI12
aI15
aI22
aI27
aI33
aI26
aI22
aI18
aI18
aI20
aI29
aI16
aI22
aI19
aI20
aI21
aI24
aI19
aI19
aI21
aI16
aI19
aI22
aI19
aI18
aI21
aI26
aI19
aI26
aI18
aI15
aI13
aI27
aI21
aI23
aI24
aI27
aI28
aI29
aI16
aI19
aI17
aI25
aI23
aI20
aI18
aI22
aI13
aI18
aI15
aI24
aI25
aI22
aI23
aI37
aI36
aI24
aI27
aI16
aI19
aI25
aI24
aI14
aI22
aI19
aI23
aI26
aI12
aI25
aI16
aI19
aI21
aI25
aI20
aI14
aI18
aI29
aI20
aI24
aI21
aI21
aI22
aI13
aI21
aI20
aI20
aI17
aI23
aI18
aI21
aI26
aI24
aI34
aI21
aI18
aI23
aI18
aI23
aI18
aI21
aI20
aI27
aI19
aI19
aI18
aI16
aI13
aI19
aI16
aI23
aI18
aI29
aI14
aI22
aI22
aI16
aI18
aI17
aI24
aI30
aI21
aI11
aI13
aI29
aI22
aI22
aI17
aI19
aI13
aI20
aI22
aI23
aI24
aI20
aI16
aI22
aI18
aI20
aI12
aI15
aI23
aI20
aI13
aI13
aI26
aI17
aI26
aI21
aI15
aI24
aI28
aI20
aI18
aI17
aI17
aI25
aI20
aI29
aI16
aI22
aI10
aI25
aI22
aI18
aI30
aI20
aI18
aI18
aI21
aI18
aI14
aI20
aI14
aI18
aI16
aI22
aI12
aI24
aI14
aI20
aI17
aI19
aI24
aI18
aI19
aI18
aI25
aI22
aI16
aI33
aI17
aI25
aI16
aI18
aI13
aI18
aI25
aI23
aI29
aI21
aI28
aI17
aI18
aI21
aI13
aI24
aI21
aI26
aI22
aI17
aI18
aI18
aI24
aI16
aI17
aI18
aI29
aI18
aI19
aI22
aI20
aI23
aI15
aI26
aI20
aI23
aI24
aI19
aI31
aI20
aI11
aI21
aI24
aI20
aI19
aI26
aI17
aI24
aI25
aI26
aI20
aI17
aI26
aI28
aI13
aI21
aI25
aI19
aI14
aI21
aI20
aI24
aI41
aI21
aI32
aI22
aI26
aI22
aI22
aI21
aI19
aI25
aI32
aI23
aI20
aI24
aI19
aI22
aI16
aI21
aI21
aI17
aI26
aI17
aI23
aI19
aI16
aI16
aI22
aI17
aI26
aI16
aI14
aI20
aI17
aI24
aI32
aI14
aI19
aI19
aI12
aI23
aI21
aI24
aI19
aI22
aI31
aI26
aI15
aI26
aI21
aI28
aI24
aI24
aI15
aI13
aI16
aI20
aI18
aI26
aI18
aI13
aI24
aI19
aI28
aI29
aI20
aI20
aI22
aI13
aI15
aI15
aI25
aI11
aI15
aI19
aI16
aI23
aI18
aI15
aI17
aI20
aI26
aI24
aI32
aI13
aI18
aI17
aI22
aI18
aI20
aI11
aI14
aI25
aI24
aI23
aI19
aI21
aI22
aI34
aI20
aI22
aI24
aI18
aI20
aI24
aI19
aI18
aI24
aI21
aI18
aI20
aI15
aI33
aI21
aI23
aI21
aI21
aI22
aI20
aI16
aI25
aI16
aI19
aI20
aI17
aI22
aI15
aI17
aI20
aI22
aI14
aI30
aI15
aI23
aI22
aI31
aI22
aI12
aI19
aI21
aI22
aI20
aI22
aI17
aI22
aI17
aI19
aI23
aI11
aI18
aI21
aI19
aI21
aI19
aI23
aI19
aI13
aI35
aI17
aI26
aI25
aI21
aI23
aI19
aI39
aI24
aI23
aI19
aI23
aI17
aI16
aI11
aI20
aI18
aI28
aI26
aI11
aI21
aI21
aI17
aI16
aI11
aI21
aI11
aI25
aI17
aI23
aI22
aI19
aI16
aI19
aI13
aI15
aI16
aI14
aI18
aI23
aI24
aI24
aI21
aI22
aI12
aI19
aI21
aI26
aI14
aI22
aI29
aI16
aI26
aI21
aI17
aI23
aI29
aI26
aI14
aI33
aI18
aI22
aI15
aI17
aI19
aI24
aI27
aI20
aI18
aI17
aI14
aI23
aI21
aI14
aI19
aI24
aI21
aI21
aI22
aI13
aI22
aI18
aI14
aI35
aI32
aI16
aI21
aI26
aI22
aI30
aI25
aI27
aI14
aI17
aI19
aI20
aI23
aI23
aI17
aI29
aI12
aI21
aI21
aI24
aI16
aI21
aI15
aI18
aI32
aI25
aI20
aI17
aI14
aI25
aI17
aI29
aI18
aI16
aI11
aI18
aI14
aI13
aI17
aI27
aI18
aI23
aI25
aI23
aI20
aI14
aI28
aI19
aI17
aI22
aI23
aI13
aI20
aI17
aI14
aI24
aI19
aI26
aI19
aI14
aI32
aI18
aI23
aI16
aI28
aI19
aI23
aI11
aI23
aI10
aI18
aI16
aI16
aI14
aI25
aI22
aI22
aI11
aI23
aI18
aI24
aI31
aI20
aI21
aI19
aI15
aI22
aI20
aI13
aI12
aI20
aI20
aI23
aI29
aI16
aI10
aI15
aI13
aI15
aI16
aI10
aI32
aI21
aI23
aI20
aI18
aI20
aI32
aI21
aI23
aI13
aI21
aI18
aI11
aI17
aI24
aI13
aI21
aI16
aI23
aI14
aI21
aI19
aI20
aI20
aI19
aI20
aI15
aI15
aI11
aI13
aI21
aI31
aI13
aI25
aI19
aI27
aI20
aI14
aI17
aI28
aI26
aI28
aI12
aI16
aI13
aI23
aI22
aI15
aI12
aI24
aI14
aI11
aI37
aI19
aI13
aI19
aI21
aI31
aI19
aI15
aI18
aI16
aI28
aI10
aI21
aI14
aI18
aI14
aI24
aI19
aI11
aI21
aI15
aI15
aI20
aI24
aI20
aI10
aI18
aI13
aI10
aI19
aI19
aI21
aI19
aI14
aI20
aI17
aI18
aI22
aI19
aI20
aI19
aI12
aI20
aI22
aI19
aI22
aI12
aI16
aI20
aI19
aI16
aI22
aI14
aI23
aI21
aI26
aI10
aI21
aI21
aI20
aI20
aI23
aI18
aI12
aI21
aI13
aI18
aI21
aI29
aI21
aI13
aI12
aI21
aI21
aI29
aI15
aI16
aI21
aI14
aI27
aI18
aI19
aI17
aI17
aI11
aI13
aI40
aI14
aI16
aI14
aI19
aI17
aI13
aI25
aI17
aI15
aI20
aI37
aI32
aI18
aI17
aI16
aI24
aI16
aI22
aI22
aI12
aI15
aI36
aI26
aI18
aI15
aI19
aI24
aI13
aI17
aI14
aI19
aI20
aI17
aI21
aI20
aI25
aI32
aI30
aI34
aI18
aI12
aI18
aI20
aI23
aI18
aI26
aI28
aI20
aI19
aI12
aI33
aI14
aI21
aI30
aI21
aI19
aI19
aI14
aI25
aI21
aI11
aI19
aI14
aI19
aI16
aI21
aI31
aI23
aI14
aI19
aI20
aI26
aI23
aI20
aI13
aI11
aI19
aI16
aI20
aI27
aI11
aI27
aI16
aI16
aI17
aI14
aI12
aI19
aI20
aI18
aI17
aI17
aI17
aI28
aI23
aI18
aI22
aI24
aI24
aI21
aI20
aI23
aI22
aI21
aI15
aI24
aI17
aI18
aI14
aI15
aI29
aI20
aI17
aI12
aI11
aI18
aI18
aI16
aI10
aI26
aI18
aI14
aI25
aI14
aI20
aI14
aI20
aI12
aI22
aI23
aI15
aI17
aI24
aI22
aI28
aI18
aI25
aI22
aI23
aI24
aI24
aI19
aI18
aI20
aI15
aI21
aI18
aI20
aI27
aI18
aI23
aI18
aI10
aI19
aI20
aI13
aI18
aI21
aI13
aI19
aI21
aI18
aI25
aI16
aI28
aI21
aI15
aI14
aI13
aI21
aI11
aI19
aI27
aI18
aI11
aI18
aI12
aI19
aI22
aI18
aI28
aI29
aI26
aI21
aI22
aI15
aI20
aI10
aI14
aI21
aI20
aI25
aI17
aI23
aI19
aI13
aI35
aI29
aI20
aI16
aI26
aI18
aI14
aI21
aI23
aI25
aI34
aI23
aI23
aI25
aI17
aI24
aI17
aI28
aI17
aI15
aI24
aI26
aI26
aI27
aI18
aI15
aI15
aI21
aI19
aI20
aI18
aI17
aI28
aI22
aI20
aI22
aI25
aI26
aI14
aI31
aI17
aI22
aI10
aI21
aI12
aI18
aI14
aI16
aI16
aI17
aI15
aI14
aI16
aI21
aI24
aI25
aI27
aI22
aI20
aI15
aI21
aI17
aI27
aI14
aI14
aI30
aI20
aI10
aI21
aI34
aI24
aI19
aI14
aI13
aI21
aI24
aI24
aI22
aI21
aI22
aI22
aI20
aI14
aI20
aI22
aI10
aI22
aI16
aI16
aI41
aI25
aI15
aI16
aI26
aI11
aI23
aI18
aI16
aI18
aI16
aI21
aI20
aI19
aI22
aI18
aI28
aI21
aI14
aI14
aI31
aI13
aI22
aI23
aI20
aI17
aI18
aI24
aI23
aI12
aI20
aI12
aI16
aI16
aI30
aI12
aI20
aI25
aI21
aI24
aI23
aI22
aI27
aI20
aI13
aI16
aI18
aI18
aI22
aI11
aI19
aI15
aI28
aI18
aI18
aI22
aI18
aI24
aI22
aI19
aI21
aI22
aI11
aI21
aI19
aI22
aI34
aI18
aI18
aI24
aI18
aI21
aI14
aI28
aI18
aI18
aI14
aI15
aI18
aI20
aI21
aI18
aI15
aI14
aI17
aI20
aI23
aI14
aI20
aI21
aI16
aI21
aI23
aI21
aI25
aI16
aI26
aI15
aI25
aI17
aI15
aI24
aI29
aI12
aI17
aI13
aI21
aI14
aI19
aI18
aI24
aI17
aI25
aI19
aI14
aI25
aI24
aI12
aI27
aI23
aI33
aI23
aI58
aI18
aI14
aI16
aI11
aI17
aI15
aI17
aI15
aI23
aI16
aI12
aI13
aI29
aI11
aI19
aI31
aI17
aI25
aI21
aI23
aI10
aI31
aI22
aI22
aI20
aI15
aI20
aI21
aI34
aI13
aI16
aI20
aI17
aI18
aI17
aI18
aI25
aI19
aI13
aI18
aI12
aI16
aI17
aI20
aI26
aI11
aI16
aI23
aI23
aI12
aI24
aI20
aI11
aI18
aI17
aI19
aI21
aI21
aI19
aI12
aI25
aI24
aI12
aI19
aI21
aI26
aI19
aI15
aI14
aI19
aI20
aI23
aI23
aI28
aI14
aI20
aI19
aI10
aI26
aI23
aI18
aI12
aI11
aI20
aI45
aI12
aI26
aI30
aI17
aI15
aI17
aI22
aI27
aI25
aI12
aI19
aI16
aI26
aI20
aI12
aI21
aI23
aI29
aI20
aI16
aI15
aI25
aI11
aI25
aI30
aI15
aI24
aI19
aI17
aI16
aI17
aI27
aI14
aI19
aI12
aI12
aI17
aI17
aI17
aI14
aI26
aI14
aI22
aI24
aI29
aI14
aI13
aI17
aI20
aI24
aI19
aI17
aI11
aI17
aI22
aI21
aI27
aI21
aI19
aI13
aI18
aI20
aI22
aI21
aI31
aI20
aI20
aI25
aI11
aI20
aI16
aI18
aI19
aI20
aI21
aI19
aI12
aI16
aI16
aI28
aI18
aI17
aI26
aI11
aI22
aI27
aI25
aI16
aI19
aI21
aI32
aI31
aI21
aI24
aI13
aI20
aI38
aI23
aI21
aI38
aI10
aI21
aI15
aI18
aI20
aI19
aI26
aI25
aI19
aI20
aI13
aI20
aI17
aI14
aI20
aI24
aI18
aI25
aI18
aI15
aI23
aI13
aI13
aI26
aI23
aI16
aI19
aI17
aI30
aI16
aI20
aI15
aI17
aI20
aI14
aI17
aI18
aI23
aI28
aI25
aI25
aI24
aI23
aI18
aI21
aI25
aI10
aI20
aI15
aI17
aI28
aI17
aI22
aI15
aI14
aI27
aI16
aI20
aI16
aI17
aI12
aI16
aI18
aI15
aI23
aI14
aI22
aI24
aI14
aI14
aI20
aI22
aI16
aI14
aI21
aI26
aI24
aI24
aI16
aI27
aI19
aI18
aI19
aI13
aI20
aI15
aI18
aI13
aI25
aI24
aI18
aI21
aI15
aI18
aI22
aI16
aI19
aI27
aI15
aI16
aI16
aI16
aI13
aI21
aI15
aI27
aI9
aI22
aI17
aI24
aI27
aI17
aI21
aI12
aI25
aI27
aI26
aI17
aI13
aI9
aI26
aI14
aI22
aI13
aI21
aI11
aI23
aI13
aI15
aI15
aI28
aI34
aI26
aI21
aI25
aI21
aI18
aI16
aI33
aI18
aI12
aI22
aI18
aI18
aI17
aI18
aI14
aI23
aI18
aI23
aI22
aI26
aI26
aI22
aI24
aI16
aI24
aI18
aI22
aI22
aI12
aI22
aI21
aI34
aI16
aI20
aI25
aI21
aI20
aI12
aI15
aI34
aI15
aI12
aI25
aI18
aI16
aI19
aI20
aI30
aI21
aI15
aI26
aI28
aI30
aI14
aI14
aI21
aI25
aI26
aI14
aI19
aI24
aI17
aI23
aI17
aI23
aI12
aI17
aI12
aI23
aI21
aI14
aI17
aI19
aI26
aI12
aI15
aI24
aI22
aI20
aI18
aI17
aI18
aI23
aI20
aI21
aI20
aI24
aI21
aI18
aI13
aI28
aI23
aI16
aI26
aI18
aI12
aI19
aI25
aI24
aI17
aI23
aI24
aI16
aI19
aI19
aI17
aI14
aI21
aI21
aI17
aI21
aI27
aI15
aI12
aI25
aI18
aI17
aI27
aI24
aI26
aI17
aI21
aI16
aI13
aI22
aI23
aI17
aI16
aI25
aI15
aI9
aI15
aI15
aI17
aI17
aI23
aI17
aI21
aI31
aI12
aI14
aI19
aI15
aI14
aI19
aI22
aI24
aI18
aI37
aI15
aI13
aI24
aI16
aI25
aI12
aI27
aI12
aI14
aI20
aI21
aI25
aI22
aI12
aI14
aI17
aI24
aI22
aI21
aI24
aI14
aI19
aI20
aI17
aI18
aI13
aI13
aI16
aI18
aI14
aI14
aI21
aI18
aI18
aI22
aI15
aI15
aI20
aI26
aI14
aI20
aI21
aI12
aI16
aI30
aI16
aI24
aI24
aI16
aI17
aI16
aI23
aI12
aI23
aI17
aI20
aI29
aI22
aI24
aI19
aI18
aI13
aI23
aI9
aI26
aI26
aI16
aI29
aI20
aI15
aI16
aI25
aI26
aI18
aI22
aI29
aI18
aI12
aI14
aI11
aI12
aI20
aI22
aI22
aI30
aI15
aI19
aI21
aI24
aI20
aI20
aI23
aI11
aI10
aI18
aI28
aI18
aI20
aI18
aI23
aI14
aI16
aI21
aI18
aI21
aI22
aI22
aI22
aI14
aI22
aI9
aI24
aI22
aI19
aI15
aI17
aI13
aI22
aI18
aI12
aI13
aI14
aI22
aI14
aI23
aI24
aI15
aI23
aI13
aI16
aI22
aI11
aI17
aI19
aI13
aI12
aI12
aI12
aI24
aI24
aI12
aI20
aI15
aI19
aI12
aI11
aI23
aI10
aI20
aI23
aI18
aI13
aI23
aI17
aI24
aI15
aI15
aI11
aI22
aI27
aI12
aI19
aI20
aI13
aI25
aI23
aI17
aI10
aI17
aI19
aI12
aI12
aI12
aI13
aI12
aI23
aI12
aI21
aI13
aI20
aI18
aI13
aI22
aI21
aI16
aI21
aI26
aI17
aI18
aI18
aI23
aI20
aI13
aI11
aI13
aI24
aI25
aI24
aI30
aI10
aI18
aI35
aI17
aI27
aI17
aI19
aI24
aI21
aI24
aI21
aI18
aI27
aI11
aI14
aI20
aI21
aI22
aI20
aI24
aI14
aI14
aI15
aI23
aI19
aI15
aI13
aI12
aI21
aI21
aI13
aI26
aI20
aI21
aI20
aI13
aI17
aI23
aI16
aI14
aI15
aI18
aI13
aI13
aI24
aI17
aI11
aI24
aI19
aI22
aI16
aI12
aI20
aI21
aI16
aI13
aI13
aI20
aI13
aI20
aI18
aI31
aI14
aI13
aI19
aI19
aI18
aI14
aI18
aI24
aI21
aI22
aI19
aI20
aI20
aI22
aI21
aI18
aI19
aI16
aI11
aI18
aI23
aI12
aI18
aI21
aI25
aI21
aI18
aI27
aI23
aI18
aI11
aI21
aI18
aI19
aI22
aI21
aI14
aI26
aI18
aI19
aI24
aI21
aI18
aI20
aI18
aI22
aI24
aI17
aI12
aI11
aI21
aI17
aI22
aI26
aI19
aI18
aI12
aI20
aI23
aI23
aI20
aI15
aI22
aI11
aI19
aI25
aI18
aI20
aI20
aI23
aI19
aI20
aI18
aI25
aI13
aI10
aI18
aI14
aI24
aI11
aI17
aI20
aI24
aI22
aI20
aI12
aI15
aI20
aI25
aI11
aI29
aI17
aI28
aI23
aI28
aI16
aI13
aI19
aI30
aI27
aI20
aI13
aI15
aI26
aI17
aI22
aI35
aI20
aI18
aI15
aI26
aI11
aI21
aI22
aI26
aI15
aI15
aI19
aI17
aI17
aI16
aI13
aI12
aI20
aI12
aI23
aI20
aI15
aI30
aI20
aI29
aI18
aI16
aI14
aI18
aI18
aI19
aI24
aI15
aI18
aI22
aI23
aI21
aI19
aI14
aI13
aI20
aI26
aI30
aI16
aI15
aI13
aI12
aI21
aI14
aI19
aI22
aI30
aI22
aI11
aI17
aI17
aI21
aI19
aI22
aI13
aI18
aI20
aI13
aI15
aI21
aI18
aI29
aI17
aI22
aI19
aI28
aI15
aI36
aI17
aI18
aI24
aI22
aI16
aI23
aI16
aI10
aI13
aI13
aI27
aI18
aI17
aI9
aI20
aI28
aI13
aI22
aI13
aI18
aI15
aI22
aI15
aI22
aI15
aI11
aI26
aI26
aI15
aI22
aI16
aI23
aI23
aI34
aI25
aI17
aI16
aI21
aI26
aI21
aI21
aI10
aI24
aI11
aI20
aI25
aI15
aI12
aI20
aI16
aI23
aI18
aI12
aI16
aI14
aI23
aI18
aI24
aI22
aI23
aI19
aI19
aI23
aI18
aI18
aI18
aI13
aI15
aI22
aI18
aI14
aI12
aI26
aI18
aI25
aI26
aI15
aI22
aI27
aI19
aI13
aI27
aI19
aI17
aI22
aI20
aI23
aI16
aI19
aI18
aI17
aI18
aI20
aI20
aI23
aI32
aI21
aI25
aI14
aI24
aI20
aI13
aI15
aI15
aI11
aI17
aI25
aI16
aI18
aI21
aI24
aI21
aI29
aI11
aI21
aI17
aI18
aI11
aI27
aI12
aI13
aI23
aI15
aI23
aI20
aI14
aI15
aI22
aI21
aI19
aI14
aI17
aI13
aI20
aI12
aI11
aI27
aI21
aI23
aI16
aI18
aI30
aI13
aI28
aI16
aI26
aI21
aI9
aI13
aI18
aI16
aI13
aI19
aI19
aI21
aI10
aI11
aI21
aI14
aI22
aI11
aI24
aI11
aI25
aI38
aI22
aI16
aI14
aI15
aI22
aI16
aI12
aI23
aI17
aI12
aI18
aI17
aI18
aI12
aI12
aI12
aI8
aI20
aI23
aI17
aI9
aI22
aI16
aI14
aI20
aI22
aI12
aI10
aI13
aI16
aI19
aI11
aI12
aI18
aI11
aI13
aI14
aI23
aI9
aI24
aI25
aI19
aI30
aI20
aI29
aI19
aI22
aI20
aI16
aI13
aI18
aI24
aI14
aI10
aI29
aI13
aI22
aI23
aI10
aI13
aI13
aI19
aI18
aI21
aI18
aI12
aI18
aI18
aI22
aI21
aI12
aI15
aI19
aI27
aI25
aI33
aI13
aI13
aI18
aI10
aI30
aI20
aI20
aI20
aI17
aI21
aI21
aI20
aI25
aI24
aI17
aI24
aI20
aI23
aI21
aI20
aI18
aI12
aI19
aI13
aI21
aI15
aI12
aI23
aI23
aI18
aI18
aI13
aI17
aI11
aI21
aI14
aI21
aI20
aI15
aI22
aI9
aI16
aI11
aI22
aI21
aI18
aI10
aI24
aI23
aI33
aI15
aI11
aI12
aI15
aI20
aI26
aI11
aI16
aI18
aI20
aI24
aI15
aI20
aI12
aI17
aI18
aI23
aI25
aI18
aI26
aI20
aI12
aI23
aI22
aI11
aI14
aI17
aI19
aI23
aI22
aI11
aI21
aI18
aI17
aI14
aI19
aI15
aI23
aI21
aI17
aI14
aI19
aI18
aI16
aI26
aI26
aI20
aI20
aI16
aI22
aI23
aI14
aI17
aI23
aI18
aI22
aI21
aI23
aI22
aI13
aI27
aI18
aI20
aI12
aI16
aI25
aI17
aI16
aI18
aI21
aI24
aI14
aI21
aI21
aI23
aI10
aI14
aI14
aI20
aI22
aI13
aI17
aI23
aI17
aI20
aI22
aI17
aI10
aI19
aI24
aI20
aI14
aI11
aI24
aI16
aI27
aI20
aI21
aI18
aI14
aI14
aI22
aI14
aI16
aI12
aI24
aI23
aI24
aI24
aI20
aI25
aI11
aI29
aI10
aI16
aI17
aI22
aI20
aI18
aI16
aI12
aI25
aI12
aI16
aI12
aI17
aI13
aI14
aI28
aI14
aI25
aI27
aI24
aI24
aI15
aI13
aI16
aI18
aI14
aI20
aI18
aI17
aI21
aI12
aI17
aI14
aI21
aI15
aI17
aI20
aI27
aI17
aI18
aI24
aI14
aI19
aI24
aI12
aI23
aI24
aI16
aI18
aI19
aI23
aI27
aI25
aI16
aI22
aI12
aI17
aI17
aI11
aI25
aI16
aI13
aI22
aI16
aI12
aI22
aI12
aI23
aI12
aI23
aI22
aI23
aI12
aI20
aI14
aI23
aI26
aI25
aI12
aI32
aI11
aI27
aI13
aI12
aI15
aI18
aI25
aI18
aI9
aI12
aI14
aI19
aI20
aI11
aI22
aI21
aI21
aI13
aI23
aI12
aI13
aI20
aI15
aI13
aI19
aI13
aI22
aI17
aI17
aI14
aI9
aI16
aI11
aI20
aI17
aI18
aI31
aI12
aI25
aI21
aI13
aI12
aI19
aI20
aI17
aI28
aI19
aI24
aI16
aI11
aI26
aI13
aI10
aI18
aI23
aI13
aI15
aI23
aI16
aI11
aI21
aI10
aI13
aI20
aI19
aI25
aI21
aI18
aI13
aI18
aI20
aI22
aI26
aI26
aI11
aI12
aI16
aI22
aI12
aI17
aI13
aI15
aI12
aI12
aI21
aI13
aI18
aI17
aI16
aI24
aI25
aI29
aI18
aI19
aI32
aI23
aI12
aI28
aI18
aI22
aI20
aI22
aI24
aI21
aI24
aI11
aI15
aI26
aI17
aI17
aI18
aI15
aI21
aI16
aI14
aI20
aI26
aI19
aI13
aI15
aI24
aI16
aI19
aI26
aI25
aI13
aI22
aI30
aI13
aI24
aI13
aI19
aI23
aI21
aI16
aI16
aI11
aI22
aI21
aI18
aI27
aI13
aI21
aI22
aI19
aI23
aI15
aI20
aI23
aI28
aI15
aI17
aI12
aI15
aI21
aI19
aI22
aI14
aI21
aI24
aI22
aI19
aI16
aI12
aI10
aI25
aI12
aI18
aI31
aI24
aI18
aI12
aI23
aI25
aI25
aI20
aI15
aI11
aI20
aI17
aI13
aI19
aI34
aI21
aI21
aI14
aI26
aI16
aI30
aI19
aI18
aI17
aI14
aI19
aI18
aI22
aI27
aI19
aI32
aI21
aI23
aI21
aI21
aI19
aI17
aI15
aI19
aI20
aI22
aI13
aI19
aI17
aI21
aI14
aI15
aI12
aI25
aI12
aI21
aI27
aI22
aI26
aI23
aI14
aI18
aI20
aI11
aI20
aI22
aI17
aI24
aI12
aI10
aI14
aI15
aI24
aI9
aI18
aI19
aI10
aI16
aI23
aI19
aI25
aI17
aI19
aI12
aI25
aI16
aI11
aI20
aI20
aI12
aI16
aI18
aI12
aI18
aI24
aI14
aI36
aI14
aI10
aI17
aI9
aI18
aI19
aI14
aI16
aI11
aI17
aI16
aI23
aI25
aI16
aI26
aI13
aI17
aI15
aI22
aI15
aI25
aI14
aI22
aI19
aI20
aI23
aI20
aI19
aI11
aI23
aI17
aI24
aI16
aI13
aI24
aI15
aI13
aI20
aI25
aI15
aI13
aI19
aI14
aI17
aI15
aI20
aI16
aI12
aI23
aI23
aI22
aI22
aI22
aI22
aI20
aI23
aI21
aI17
aI26
aI14
aI11
aI13
aI11
aI16
aI20
aI30
aI23
aI19
aI11
aI17
aI16
aI11
aI14
aI22
aI14
aI20
aI21
aI14
aI25
aI23
aI18
aI22
aI20
aI22
aI11
aI20
aI13
aI15
aI18
aI20
aI19
aI23
aI21
aI25
aI15
aI25
aI17
aI20
aI21
aI12
aI21
aI12
aI10
aI25
aI11
aI24
aI21
aI17
aI34
aI23
aI19
aI24
aI19
aI17
aI19
aI17
aI10
aI15
aI23
aI25
aI21
aI29
aI17
aI22
aI9
aI25
aI16
aI17
aI13
aI19
aI15
aI22
aI20
aI17
aI19
aI14
aI19
aI16
aI28
aI25
aI22
aI25
aI16
aI21
aI18
aI16
aI15
aI16
aI19
aI14
aI22
aI27
aI21
aI22
aI21
aI19
aI16
aI20
aI19
aI28
aI22
aI23
aI35
aI23
aI13
aI19
aI19
aI19
aI16
aI10
aI13
aI15
aI13
aI14
aI27
aI9
aI18
aI31
aI23
aI20
aI19
aI11
aI18
aI20
aI13
aI27
aI12
aI20
aI29
aI23
aI16
aI18
aI21
aI21
aI23
aI13
aI15
aI20
aI23
aI23
aI18
aI24
aI29
aI12
aI12
aI17
aI16
aI13
aI14
aI15
aI16
aI17
aI15
aI23
aI23
aI25
aI23
aI18
aI17
aI19
aI23
aI11
aI28
aI22
aI13
aI15
aI17
aI16
aI15
aI12
aI16
aI17
aI18
aI20
aI22
aI20
aI29
aI16
aI15
aI22
aI13
aI12
aI13
aI22
aI25
aI20
aI18
aI14
aI23
aI10
aI13
aI20
aI12
aI21
aI26
aI24
aI12
aI18
aI18
aI20
aI29
aI22
aI14
aI13
aI18
aI20
aI14
aI18
aI11
aI28
aI14
aI17
aI25
aI16
aI18
aI17
aI18
aI12
aI25
aI20
aI11
aI20
aI28
aI23
aI15
aI21
aI22
aI17
aI21
aI17
aI14
aI17
aI18
aI21
aI14
aI12
aI13
aI19
aI21
aI22
aI25
aI22
aI9
aI13
aI18
aI19
aI19
aI24
aI20
aI21
aI16
aI26
aI10
aI21
aI13
aI19
aI17
aI17
aI17
aI22
aI23
aI26
aI22
aI17
aI13
aI14
aI11
aI23
aI20
aI22
aI22
aI10
aI14
aI19
aI25
aI12
aI27
aI20
aI15
aI21
aI22
aI19
aI12
aI19
aI19
aI21
aI17
aI27
aI11
aI21
aI24
aI14
aI13
aI21
aI13
aI15
aI23
aI22
aI11
aI16
aI13
aI17
aI12
aI24
aI17
aI12
aI25
aI24
aI26
aI28
aI24
aI21
aI19
aI26
aI17
aI13
aI11
aI23
aI14
aI17
aI27
aI36
aI28
aI22
aI15
aI18
aI13
aI24
aI15
aI11
aI13
aI12
aI12
aI10
aI14
aI14
aI24
aI12
aI29
aI18
aI17
aI14
aI32
aI12
aI29
aI19
aI23
aI18
aI15
aI22
aI17
aI13
aI18
aI16
aI29
aI19
aI22
aI23
aI21
aI10
aI15
aI23
aI17
aI18
aI19
aI14
aI19
aI22
aI12
aI36
aI10
aI23
aI14
aI10
aI27
aI20
aI12
aI14
aI15
aI12
aI19
aI15
aI23
aI15
aI20
aI11
aI39
aI28
aI16
aI23
aI15
aI23
aI19
aI28
aI20
aI21
aI18
aI20
aI15
aI9
aI32
aI21
aI16
aI24
aI17
aI14
aI22
aI18
aI28
aI22
aI18
aI28
aI22
aI10
aI18
aI27
aI25
aI25
aI9
aI20
aI13
aI16
aI13
aI14
aI21
aI12
aI17
aI24
aI15
aI21
aI17
aI12
aI15
aI19
aI11
aI25
aI27
aI17
aI13
aI19
aI21
aI25
aI13
aI20
aI26
aI23
aI20
aI26
aI22
aI15
aI17
aI23
aI14
aI15
aI17
aI18
aI14
aI21
aI33
aI18
aI13
aI28
aI21
aI26
aI11
aI23
aI17
aI12
aI10
aI29
aI11
aI13
aI20
aI21
aI16
aI9
aI19
aI11
aI26
aI18
aI22
aI12
aI15
aI28
aI22
aI19
aI18
aI13
aI17
aI22
aI13
aI19
aI19
aI21
aI22
aI17
aI18
aI22
aI21
aI15
aI19
aI26
aI18
aI13
aI29
aI24
aI14
aI27
aI18
aI14
aI16
aI21
aI20
aI22
aI17
aI18
aI17
aI16
aI17
aI17
aI18
aI15
aI22
aI12
aI20
aI20
aI11
aI20
aI23
aI29
aI12
aI22
aI11
aI13
aI20
aI17
aI19
aI18
aI24
aI33
aI21
aI17
aI14
aI10
aI23
aI19
aI24
aI20
aI20
aI19
aI26
aI17
aI23
aI30
aI13
aI14
aI21
aI17
aI18
aI19
aI13
aI17
aI10
aI22
aI30
aI22
aI19
aI15
aI20
aI18
aI19
aI18
aI16
aI15
aI20
aI19
aI19
aI19
aI17
aI17
aI13
aI30
aI18
aI18
aI27
aI19
aI25
aI19
aI20
aI30
aI22
aI26
aI21
aI17
aI14
aI14
aI17
aI19
aI23
aI20
aI10
aI16
aI27
aI23
aI10
aI21
aI26
aI16
aI23
aI16
aI10
aI24
aI14
aI17
aI11
aI30
aI19
aI13
aI21
aI12
aI23
aI22
aI11
aI19
aI13
aI23
aI20
aI26
aI14
aI22
aI13
aI20
aI25
aI22
aI22
aI20
aI12
aI9
aI25
aI21
aI23
aI15
aI19
aI22
aI13
aI14
aI20
aI19
aI17
aI13
aI25
aI18
aI24
aI17
aI18
aI20
aI20
aI19
aI12
aI12
aI25
aI15
aI22
aI24
aI19
aI21
aI29
aI12
aI26
aI19
aI19
aI16
aI27
aI20
aI20
aI19
aI17
aI23
aI23
aI14
aI14
aI21
aI16
aI23
aI16
aI20
aI23
aI19
aI16
aI32
aI12
aI17
aI22
aI18
aI28
aI21
aI22
aI15
aI18
aI22
aI25
aI22
aI23
aI18
aI20
aI19
aI14
aI24
aI11
aI21
aI18
aI23
aI24
aI12
aI19
aI12
aI18
aI17
aI16
aI15
aI17
aI25
aI12
aI14
aI25
aI13
aI16
aI20
aI21
aI25
aI18
aI14
aI13
aI37
aI19
aI14
aI17
aI13
aI24
aI13
aI18
aI12
aI19
aI22
aI20
aI24
aI14
aI24
aI20
aI18
aI18
aI13
aI20
aI21
aI13
aI18
aI20
aI18
aI25
aI11
aI18
aI19
aI25
aI14
aI14
aI14
aI25
aI25
aI18
aI13
aI17
aI12
aI21
aI16
aI18
aI15
aI24
aI14
aI19
aI24
aI20
aI16
aI14
aI21
aI11
aI22
aI26
aI23
aI12
aI23
aI21
aI10
aI18
aI23
aI21
aI26
aI17
aI26
aI16
aI12
aI23
aI21
aI15
aI28
aI17
aI21
aI10
aI13
aI14
aI14
aI11
aI14
aI15
aI18
aI12
aI24
aI15
aI20
aI16
aI10
aI28
aI12
aI17
aI20
aI25
aI15
aI22
aI23
aI21
aI17
aI12
aI16
aI19
aI14
aI15
aI21
aI22
aI17
aI11
aI16
aI19
aI9
aI13
aI18
aI18
aI19
aI13
aI18
aI21
aI18
aI16
aI14
aI28
aI20
aI13
aI19
aI19
aI16
aI14
aI25
aI16
aI21
aI26
aI10
aI17
aI25
aI22
aI23
aI21
aI20
aI15
aI23
aI24
aI14
aI14
aI13
aI29
aI25
aI12
aI13
aI32
aI16
aI19
aI17
aI23
aI21
aI13
aI14
aI28
aI13
aI23
aI16
aI24
aI20
aI19
aI11
aI16
aI27
aI15
aI17
aI24
aI21
aI16
aI25
aI9
aI16
aI13
aI14
aI26
aI18
aI24
aI23
aI21
aI12
aI19
aI10
aI28
aI18
aI18
aI24
aI27
aI23
aI19
aI26
aI20
aI12
aI11
aI15
aI15
aI26
aI16
aI24
aI15
aI18
aI14
aI14
aI12
aI37
aI12
aI17
aI26
aI14
aI27
aI15
aI18
aI15
aI26
aI10
aI11
aI10
aI19
aI13
aI21
aI14
aI23
aI12
aI26
aI10
aI18
aI16
aI21
aI17
aI11
aI13
aI9
aI14
aI16
aI15
aI18
aI20
aI16
aI20
aI17
aI18
aI14
aI22
aI20
aI18
aI17
aI18
aI22
aI19
aI19
aI11
aI22
aI18
aI21
aI22
aI13
aI18
aI17
aI17
aI26
aI14
aI16
aI16
aI13
aI17
aI27
aI17
aI10
aI21
aI15
aI12
aI20
aI16
aI17
aI18
aI29
aI22
aI18
aI20
aI19
aI32
aI15
aI18
aI18
aI15
aI20
aI24
aI19
aI18
aI12
aI17
aI26
aI21
aI19
aI21
aI23
aI18
aI16
aI12
aI13
aI12
aI13
aI18
aI17
aI21
aI13
aI16
aI14
aI13
aI25
aI16
aI23
aI22
aI19
aI19
aI18
aI21
aI13
aI17
aI10
aI23
aI18
aI23
aI9
aI22
aI19
aI15
aI11
aI18
aI22
aI18
aI13
aI22
aI16
aI22
aI25
aI14
aI20
aI29
aI14
aI18
aI13
aI15
aI21
aI17
aI14
aI17
aI20
aI32
aI18
aI13
aI27
aI19
aI30
aI12
aI9
aI14
aI17
aI14
aI22
aI14
aI13
aI24
aI18
aI22
aI20
aI20
aI10
aI14
aI25
aI12
aI12
aI21
aI19
aI11
aI17
aI25
aI15
aI19
aI14
aI19
aI22
aI23
aI14
aI15
aI20
aI12
aI15
aI25
aI22
aI18
aI13
aI28
aI13
aI30
aI11
aI16
aI17
aI22
aI25
aI14
aI17
aI15
aI16
aI29
aI16
aI25
aI15
aI20
aI24
aI14
aI20
aI15
aI30
aI28
aI10
aI16
aI27
aI21
aI26
aI20
aI15
aI34
aI12
aI19
aI19
aI23
aI22
aI18
aI11
aI13
aI21
aI22
aI18
aI11
aI15
aI18
aI16
aI22
aI25
aI14
aI15
aI22
aI21
aI21
aI28
aI19
aI23
aI13
aI20
aI14
aI18
aI11
aI17
aI21
aI13
aI19
aI13
aI19
aI22
aI23
aI21
aI13
aI22
aI16
aI18
aI24
aI28
aI18
aI11
aI14
aI18
aI20
aI20
aI25
aI25
aI19
aI21
aI34
aI12
aI17
aI32
aI23
aI13
aI19
aI16
aI31
aI19
aI22
aI23
aI14
aI17
aI25
aI12
aI13
aI22
aI18
aI19
aI15
aI13
aI17
aI15
aI11
aI23
aI19
aI32
aI11
aI14
aI21
aI18
aI23
aI12
aI22
aI21
aI13
aI19
aI22
aI30
aI16
aI18
aI25
aI16
aI21
aI18
aI14
aI12
aI20
aI13
aI16
aI12
aI12
aI20
aI22
aI14
aI21
aI19
aI14
aI17
aI13
aI24
aI19
aI21
aI26
aI27
aI18
aI20
aI23
aI21
aI17
aI20
aI20
aI19
aI20
aI18
aI18
aI22
aI24
aI28
aI19
aI13
aI32
aI20
aI22
aI21
aI27
aI11
aI17
aI11
aI16
aI18
aI16
aI21
aI20
aI23
aI11
aI11
aI14
aI20
aI20
aI20
aI13
aI21
aI11
aI23
aI15
aI13
aI12
aI21
aI15
aI19
aI12
aI24
aI24
aI12
aI19
aI10
aI10
aI21
aI20
aI25
aI24
aI13
aI12
aI23
aI16
aI11
aI13
aI17
aI14
aI20
aI18
aI13
aI19
aI20
aI20
aI21
aI16
aI18
aI14
aI19
aI13
aI14
aI16
aI19
aI20
aI11
aI22
aI25
aI26
aI15
aI15
aI24
aI28
aI11
aI20
aI17
aI22
aI18
aI18
aI19
aI18
aI22
aI13
aI25
aI22
aI14
aI11
aI14
aI28
aI14
aI13
aI19
aI26
aI21
aI17
aI17
aI15
aI27
aI21
aI16
aI18
aI20
aI27
aI29
aI17
aI15
aI23
aI18
aI11
aI10
aI15
aI21
aI24
aI11
aI21
aI14
aI28
aI16
aI23
aI22
aI18
aI12
aI21
aI12
aI24
aI9
aI12
aI20
aI22
aI17
aI25
aI26
aI14
aI19
aI18
aI16
aI13
aI12
aI10
aI22
aI15
aI24
aI18
aI19
aI13
aI17
aI29
aI13
aI17
aI12
aI19
aI10
aI23
aI16
aI11
aI19
aI14
aI12
aI21
aI12
aI11
aI16
aI22
aI13
aI18
aI21
aI13
aI26
aI15
aI25
aI16
aI21
aI23
aI16
aI13
aI14
aI16
aI18
aI23
aI16
aI9
aI25
aI19
aI15
aI13
aI25
aI14
aI18
aI19
aI13
aI10
aI19
aI11
aI26
aI12
aI28
aI20
aI24
aI13
aI19
aI20
aI16
aI27
aI15
aI20
aI11
aI22
aI31
aI16
aI17
aI13
aI18
aI14
aI38
aI21
aI13
aI15
aI13
aI19
aI22
aI21
aI22
aI14
aI15
aI27
aI18
aI17
aI17
aI20
aI24
aI12
aI18
aI19
aI17
aI20
aI10
aI20
aI21
aI25
aI10
aI15
aI18
aI20
aI24
aI17
aI23
aI21
aI22
aI25
aI19
aI24
aI13
aI24
aI11
aI20
aI20
aI11
aI33
aI20
aI17
aI22
aI15
aI15
aI20
aI16
aI13
aI17
aI14
aI26
aI12
aI27
aI19
aI13
aI16
aI17
aI14
aI14
aI12
aI12
aI17
aI14
aI15
aI21
aI27
aI24
aI14
aI19
aI22
aI12
aI26
aI11
aI21
aI16
aI18
aI23
aI11
aI10
aI10
aI12
aI23
aI20
aI17
aI16
aI22
aI21
aI19
aI18
aI14
aI18
aI9
aI11
aI21
aI13
aI11
aI14
aI23
aI15
aI17
aI20
aI12
aI13
aI23
aI20
aI12
aI18
aI16
aI18
aI14
aI25
aI21
aI18
aI19
aI8
aI13
aI19
aI23
aI12
aI10
aI17
aI17
aI22
aI22
aI30
aI20
aI18
aI22
aI13
aI15
aI26
aI25
aI14
aI11
aI20
aI26
aI20
aI10
aI15
aI14
aI12
aI24
aI13
aI25
aI20
aI15
aI21
aI20
aI16
aI11
aI28
aI18
aI19
aI16
aI20
aI18
aI18
aI18
aI22
aI21
aI20
aI17
aI15
aI22
aI16
aI18
aI17
aI16
aI19
aI16
aI16
aI20
aI22
aI25
aI21
aI26
aI21
aI14
aI23
aI16
aI13
aI16
aI19
aI14
aI26
aI8
aI15
aI25
aI15
aI22
aI16
aI21
aI12
aI31
aI30
aI11
aI22
aI17
aI17
aI22
aI23
aI22
aI28
aI19
aI24
aI19
aI13
aI26
aI15
aI27
aI11
aI15
aI15
aI17
aI20
aI13
aI20
aI17
aI18
aI19
aI27
aI15
aI17
aI15
aI14
aI18
aI12
aI17
aI25
aI14
aI22
aI12
aI21
aI14
aI13
aI23
aI17
aI21
aI24
aI11
aI19
aI19
aI9
aI17
aI20
aI19
aI12
aI16
aI14
aI20
aI24
aI29
aI18
aI14
aI14
aI20
aI25
aI12
aI14
aI17
aI25
aI12
aI18
aI29
aI26
aI12
aI14
aI18
aI17
aI22
aI24
aI24
aI19
aI13
aI15
aI19
aI12
aI24
aI15
aI14
aI25
aI21
aI24
aI23
aI13
aI23
aI32
aI18
aI12
aI25
aI16
aI18
aI34
aI14
aI12
aI14
aI11
aI12
aI20
aI11
aI17
aI23
aI24
aI16
aI20
aI19
aI25
aI24
aI13
aI16
aI20
aI30
aI21
aI22
aI10
aI14
aI14
aI21
aI13
aI18
aI14
aI19
aI14
aI24
aI12
aI10
aI14
aI11
aI25
aI13
aI15
aI10
aI20
aI11
aI16
aI17
aI23
aI17
aI25
aI17
aI14
aI19
aI24
aI11
aI21
aI18
aI23
aI17
aI19
aI18
aI15
aI25
aI19
aI28
aI15
aI18
aI23
aI15
aI23
aI12
aI13
aI18
aI14
aI13
aI29
aI17
aI19
aI21
aI14
aI16
aI19
aI19
aI12
aI19
aI15
aI25
aI18
aI25
aI27
aI14
aI18
aI13
aI23
aI22
aI20
aI26
aI26
aI26
aI15
aI14
aI22
aI10
aI22
aI24
aI14
aI14
aI22
aI12
aI11
aI12
aI13
aI20
aI22
aI15
aI13
aI19
aI12
aI14
aI12
aI11
aI12
aI15
aI19
aI20
aI10
aI12
aI18
aI25
aI21
aI15
aI16
aI20
aI27
aI20
aI23
aI19
aI39
aI17
aI20
aI23
aI15
aI40
aI21
aI19
aI16
aI12
aI17
aI10
aI23
aI25
aI20
aI21
aI14
aI12
aI25
aI25
aI18
aI27
aI15
aI20
aI13
aI20
aI15
aI22
aI17
aI16
aI13
aI17
aI22
aI13
aI12
aI29
aI22
aI17
aI23
aI23
aI17
aI21
aI13
aI27
aI19
aI21
aI17
aI23
aI19
aI12
aI20
aI25
aI14
aI12
aI18
aI14
aI14
aI19
aI28
aI13
aI30
aI32
aI15
aI26
aI19
aI18
aI17
aI23
aI30
aI20
aI21
aI15
aI11
aI20
aI15
aI11
aI14
aI12
aI10
aI24
aI14
aI11
aI23
aI12
aI27
aI20
aI10
aI20
aI21
aI20
aI19
aI19
aI11
aI18
aI11
aI18
aI19
aI18
aI13
aI21
aI19
aI23
aI18
aI16
aI17
aI15
aI19
aI27
aI18
aI16
aI21
aI19
aI12
aI25
aI20
aI19
aI12
aI14
aI15
aI15
aI28
aI13
aI25
aI15
aI21
aI17
aI10
aI12
aI13
aI10
aI14
aI15
aI14
aI18
aI15
aI14
aI14
aI18
aI10
aI12
aI22
aI18
aI22
aI21
aI16
aI22
aI13
aI12
aI12
aI17
aI14
aI13
aI26
aI18
aI19
aI24
aI27
aI18
aI17
aI20
aI12
aI16
aI31
aI23
aI21
aI33
aI20
aI17
aI22
aI14
aI12
aI18
aI13
aI14
aI25
aI32
aI16
aI27
aI20
aI19
aI15
aI21
aI22
aI11
aI19
aI22
aI19
aI25
aI34
aI22
aI18
aI12
aI11
aI15
aI14
aI13
aI15
aI25
aI17
aI11
aI14
aI18
aI17
aI13
aI20
aI13
aI19
aI20
aI17
aI19
aI18
aI28
aI21
aI20
aI20
aI21
aI17
aI12
aI18
aI19
aI20
aI24
aI15
aI19
aI19
aI26
aI17
aI15
aI25
aI21
aI19
aI21
aI33
aI22
aI26
aI23
aI20
aI20
aI20
aI22
aI15
aI10
aI32
aI21
aI19
aI19
aI14
aI19
aI28
aI16
aI26
aI18
aI16
aI23
aI26
aI28
aI11
aI13
aI18
aI16
aI20
aI14
aI18
aI15
aI32
aI27
aI23
aI11
aI18
aI19
aI17
aI14
aI12
aI22
aI17
aI26
aI24
aI18
aI26
aI23
aI36
aI18
aI24
aI22
aI32
aI13
aI10
aI12
aI25
aI25
aI17
aI17
aI20
aI19
aI19
aI13
aI20
aI17
aI24
aI23
aI24
aI13
aI17
aI15
aI11
aI16
aI22
aI26
aI11
aI25
aI22
aI27
aI20
aI21
aI14
aI17
aI24
aI16
aI17
aI22
aI12
aI16
aI16
aI24
aI15
aI12
aI23
aI12
aI20
aI21
aI25
aI18
aI19
aI19
aI16
aI19
aI21
aI18
aI17
aI39
aI19
aI10
aI17
aI20
aI19
aI24
aI19
aI15
aI16
aI16
aI30
aI14
aI13
aI17
aI22
aI18
aI19
aI14
aI23
aI27
aI26
aI27
aI22
aI30
aI29
aI23
aI22
aI19
aI22
aI22
aI21
aI10
aI21
aI20
aI16
aI24
aI26
aI25
aI15
aI20
aI23
aI16
aI19
aI12
aI24
aI18
aI13
aI12
aI13
aI21
aI19
aI28
aI14
aI20
aI13
aI21
aI23
aI16
aI30
aI22
aI33
aI23
aI12
aI22
aI21
aI18
aI18
aI11
aI24
aI19
aI12
aI19
aI28
aI23
aI12
aI24
aI24
aI18
aI15
aI17
aI20
aI11
aI15
aI29
aI20
aI27
aI16
aI22
aI22
aI19
aI23
aI20
aI20
aI17
aI12
aI17
aI12
aI13
aI20
aI21
aI11
aI18
aI16
aI22
aI17
aI20
aI17
aI25
aI17
aI23
aI21
aI14
aI23
aI12
aI13
aI15
aI22
aI25
aI22
aI17
aI21
aI15
aI14
aI11
aI14
aI12
aI11
aI15
aI24
aI20
aI12
aI9
aI34
aI17
aI14
aI31
aI33
aI28
aI18
aI19
aI13
aI15
aI25
aI21
aI14
aI17
aI24
aI20
aI22
aI23
aI10
aI14
aI25
aI11
aI19
aI18
aI21
aI13
aI20
aI28
aI21
aI22
aI30
aI15
aI18
aI22
aI16
aI21
aI20
aI11
aI18
aI21
aI24
aI19
aI12
aI20
aI15
aI18
aI17
aI16
aI14
aI20
aI10
aI17
aI14
aI23
aI17
aI23
aI18
aI27
aI27
aI9
aI14
aI20
aI10
aI20
aI20
aI23
aI15
aI23
aI19
aI32
aI11
aI25
aI28
aI19
aI12
aI21
aI23
aI15
aI15
aI28
aI12
aI22
aI18
aI23
aI16
aI20
aI18
aI13
aI18
aI20
aI19
aI21
aI19
aI19
aI18
aI12
aI24
aI13
aI18
aI17
aI17
aI21
aI14
aI15
aI30
aI25
aI16
aI21
aI15
aI20
aI29
aI25
aI18
aI24
aI15
aI16
aI21
aI23
aI16
aI15
aI27
aI19
aI10
aI22
aI14
aI19
aI12
aI17
aI28
aI19
aI25
aI10
aI20
aI13
aI11
aI22
aI14
aI23
aI19
aI20
aI15
aI25
aI15
aI19
aI15
aI17
aI25
aI12
aI23
aI14
aI16
aI21
aI16
aI13
aI24
aI14
aI15
aI15
aI12
aI22
aI12
aI18
aI34
aI16
aI32
aI11
aI17
aI21
aI22
aI20
aI19
aI24
aI19
aI15
aI19
aI15
aI16
aI22
aI21
aI14
aI25
aI15
aI23
aI15
aI22
aI17
aI17
aI20
aI12
aI16
aI21
aI16
aI12
aI12
aI11
aI23
aI11
aI19
aI14
aI15
aI22
aI26
aI17
aI17
aI20
aI18
aI21
aI33
aI19
aI21
aI14
aI23
aI22
aI22
aI18
aI15
aI24
aI19
aI11
aI15
aI20
aI12
aI21
aI19
aI17
aI24
aI14
aI22
aI13
aI11
aI13
aI25
aI18
aI24
aI18
aI19
aI14
aI23
aI14
aI21
aI14
aI11
aI28
aI19
aI24
aI19
aI22
aI28
aI16
aI25
aI13
aI13
aI13
aI29
aI23
aI24
aI20
aI22
aI14
aI21
aI22
aI10
aI13
aI12
aI24
aI22
aI20
aI13
aI24
aI19
aI17
aI27
aI29
aI31
aI11
aI20
aI12
aI21
aI12
aI12
aI19
aI23
aI15
aI12
aI14
aI19
aI12
aI20
aI17
aI13
aI16
aI13
aI18
aI22
aI22
aI14
aI23
aI12
aI12
aI21
aI25
aI16
aI12
aI16
aI18
aI27
aI10
aI20
aI14
aI20
aI18
aI12
aI13
aI12
aI23
aI21
aI10
aI12
aI10
aI19
aI12
aI20
aI15
aI13
aI12
aI21
aI18
aI11
aI15
aI21
aI18
aI18
aI22
aI25
aI16
aI21
aI21
aI18
aI19
aI18
aI17
aI14
aI11
aI11
aI16
aI18
aI15
aI20
aI16
aI27
aI19
aI12
aI23
aI24
aI20
aI22
aI25
aI10
aI18
aI21
aI23
aI25
aI18
aI18
aI26
aI22
aI15
aI17
aI18
aI15
aI12
aI13
aI11
aI21
aI18
aI32
aI23
aI17
aI14
aI14
aI11
aI20
aI18
aI18
aI13
aI20
aI12
aI11
aI12
aI21
aI19
aI18
aI18
aI20
aI20
aI18
aI25
aI17
aI24
aI17
aI16
aI24
aI12
aI20
aI23
aI18
aI19
aI22
aI22
aI19
aI12
aI27
aI10
aI15
aI25
aI17
aI13
aI15
aI47
aI19
aI21
aI21
aI13
aI15
aI22
aI25
aI26
aI25
aI11
aI14
aI13
aI19
aI13
aI19
aI11
aI19
aI28
aI10
aI10
aI12
aI11
aI20
aI18
aI23
aI21
aI10
aI16
aI9
aI11
aI19
aI15
aI19
aI23
aI13
aI16
aI17
aI18
aI22
aI24
aI22
aI14
aI23
aI19
aI14
aI23
aI18
aI15
aI16
aI12
aI13
aI17
aI23
aI22
aI13
aI22
aI24
aI11
aI20
aI11
aI14
aI16
aI13
aI22
aI17
aI10
aI27
aI24
aI16
aI19
aI31
aI22
aI18
aI16
aI12
aI13
aI17
aI14
aI22
aI14
aI18
aI16
aI23
aI21
aI11
aI12
aI18
aI23
aI16
aI13
aI16
aI16
aI13
aI22
aI11
aI22
aI22
aI39
aI23
aI26
aI15
aI24
aI21
aI26
aI16
aI17
aI19
aI21
aI19
aI17
aI23
aI20
aI15
aI16
aI13
aI15
aI15
aI13
aI27
aI14
aI13
aI15
aI19
aI13
aI21
aI20
aI19
aI26
aI18
aI25
aI24
aI18
aI13
aI17
aI26
aI17
aI16
aI12
aI13
aI21
aI13
aI30
aI11
aI22
aI22
aI15
aI12
aI13
aI15
aI23
aI17
aI23
aI19
aI21
aI15
aI14
aI12
aI13
aI17
aI26
aI17
aI36
aI40
aI17
aI12
aI20
aI21
aI12
aI20
aI14
aI13
aI11
aI14
aI30
aI22
aI14
aI25
aI15
aI36
aI13
aI19
aI13
aI17
aI13
aI21
aI11
aI23
aI28
aI27
aI13
aI16
aI14
aI18
aI21
aI25
aI16
aI23
aI11
aI12
aI19
aI15
aI13
aI13
aI26
aI22
aI21
aI19
aI23
aI14
aI28
aI28
aI14
aI10
aI12
aI9
aI12
aI14
aI16
aI12
aI21
aI14
aI16
aI21
aI26
aI33
aI29
aI19
aI21
aI25
aI18
aI23
aI20
aI20
aI22
aI24
aI18
aI35
aI20
aI27
aI23
aI14
aI22
aI17
aI17
aI10
aI17
aI10
aI16
aI19
aI14
aI20
aI14
aI21
aI21
aI20
aI16
aI17
aI12
aI24
aI11
aI17
aI13
aI25
aI11
aI23
aI20
aI20
aI12
aI12
aI11
aI23
aI10
aI14
aI14
aI16
aI29
aI23
aI14
aI13
aI11
aI18
aI19
aI23
aI13
aI20
aI14
aI14
aI17
aI11
aI17
aI20
aI14
aI23
aI27
aI18
aI22
aI14
aI19
aI14
aI20
aI29
aI24
aI16
aI15
aI23
aI16
aI12
aI27
aI23
aI18
aI24
aI29
aI30
aI13
aI17
aI23
aI17
aI13
aI13
aI17
aI11
aI17
aI27
aI12
aI21
aI18
aI23
aI14
aI21
aI23
aI12
aI11
aI20
aI14
aI12
aI20
aI23
aI19
aI25
aI12
aI26
aI29
aI16
aI21
aI12
aI22
aI17
aI23
aI20
aI15
aI20
aI14
aI13
aI13
aI17
aI11
aI14
aI17
aI12
aI17
aI23
aI18
aI13
aI19
aI22
aI11
aI13
aI15
aI29
aI15
aI26
aI16
aI22
aI20
aI16
aI17
aI23
aI21
aI15
aI28
aI21
aI22
aI20
aI22
aI20
aI25
aI21
aI29
aI24
aI18
aI13
aI24
aI11
aI24
aI19
aI20
aI24
aI21
aI20
aI22
aI25
aI14
aI19
aI18
aI12
aI18
aI23
aI11
aI18
aI16
aI17
aI19
aI10
aI12
aI22
aI22
aI22
aI24
aI21
aI20
aI11
aI43
aI21
aI15
aI19
aI25
aI18
aI11
aI24
aI15
aI11
aI21
aI17
aI16
aI16
aI19
aI14
aI25
aI18
aI13
aI11
aI16
aI9
aI17
aI26
aI11
aI10
aI19
aI11
aI19
aI21
aI15
aI18
aI18
aI17
aI21
aI21
aI12
aI14
aI15
aI18
aI12
aI18
aI23
aI27
aI24
aI21
aI13
aI12
aI15
aI20
aI26
aI17
aI16
aI13
aI18
aI19
aI12
aI20
aI10
aI14
aI14
aI14
aI18
aI23
aI21
aI26
aI17
aI13
aI10
aI10
aI11
aI17
aI16
aI21
aI15
aI23
aI18
aI21
aI18
aI12
aI12
aI28
aI21
aI13
aI20
aI14
aI21
aI10
aI9
aI17
aI23
aI23
aI28
aI12
aI18
aI26
aI21
aI17
aI22
aI18
aI12
aI23
aI14
aI13
aI14
aI25
aI26
aI20
aI20
aI31
aI18
aI15
aI16
aI25
aI26
aI14
aI14
aI23
aI26
aI18
aI18
aI19
aI17
aI13
aI21
aI21
aI24
aI18
aI13
aI27
aI14
aI20
aI17
aI19
aI10
aI19
aI18
aI25
aI17
aI21
aI21
aI13
aI23
aI10
aI16
aI13
aI21
aI9
aI12
aI13
aI16
aI19
aI21
aI19
aI18
aI19
aI18
aI11
aI12
aI12
aI14
aI11
aI9
aI20
aI24
aI18
aI14
aI17
aI16
aI13
aI13
aI13
aI14
aI24
aI11
aI20
aI14
aI21
aI14
aI22
aI17
aI14
aI20
aI26
aI20
aI17
aI23
aI39
aI16
aI17
aI13
aI13
aI15
aI21
aI13
aI17
aI16
aI11
aI15
aI17
aI26
aI13
aI20
aI21
aI13
aI16
aI10
aI16
aI18
aI11
aI10
aI18
aI20
aI11
aI16
aI21
aI19
aI18
aI14
aI10
aI12
aI12
aI19
aI18
aI15
aI15
aI12
aI15
aI12
aI17
aI20
aI18
aI17
aI21
aI10
aI19
aI23
aI16
aI24
aI16
aI14
aI17
aI15
aI16
aI18
aI24
aI11
aI13
aI16
aI13
aI20
aI19
aI13
aI18
aI26
aI12
aI13
aI13
aI16
aI15
aI16
aI14
aI19
aI16
aI13
aI32
aI15
aI11
aI24
aI20
aI16
aI21
aI26
aI17
aI11
aI20
aI20
aI19
aI12
aI24
aI21
aI15
aI22
aI28
aI14
aI18
aI24
aI17
aI20
aI13
aI17
aI11
aI13
aI19
aI16
aI20
aI15
aI11
aI21
aI16
aI20
aI23
aI10
aI24
aI24
aI22
aI21
aI16
aI34
aI14
aI15
aI18
aI16
aI10
aI23
aI11
aI17
aI18
aI20
aI20
aI23
aI9
aI13
aI20
aI12
aI10
aI19
aI23
aI24
aI18
aI15
aI14
aI19
aI11
aI20
aI18
aI19
aI17
aI10
aI22
aI19
aI23
aI11
aI19
aI16
aI10
aI23
aI22
aI24
aI15
aI13
aI19
aI17
aI15
aI13
aI20
aI10
aI19
aI16
aI18
aI24
aI13
aI27
aI17
aI19
aI24
aI14
aI20
aI19
aI12
aI16
aI13
aI20
aI19
aI12
aI16
aI21
aI15
aI12
aI12
aI21
aI26
aI14
aI15
aI17
aI21
aI16
aI17
aI21
aI21
aI19
aI12
aI19
aI21
aI20
aI19
aI20
aI17
aI23
aI14
aI21
aI21
aI22
aI11
aI24
aI19
aI13
aI12
aI21
aI11
aI17
aI12
aI11
aI19
aI13
aI16
aI20
aI12
aI21
aI19
aI21
aI28
aI11
aI23
aI19
aI27
aI13
aI20
aI9
aI19
aI11
aI23
aI13
aI20
aI11
aI17
aI12
aI15
aI16
aI16
aI19
aI30
aI21
aI14
aI16
aI19
aI19
aI15
aI12
aI15
aI22
aI19
aI17
aI13
aI17
aI16
aI19
aI18
aI14
aI15
aI21
aI15
aI25
aI12
aI23
aI9
aI12
aI12
aI18
aI24
aI21
aI17
aI21
aI19
aI14
aI20
aI14
aI27
aI21
aI25
aI10
aI21
aI14
aI23
aI19
aI22
aI14
aI11
aI26
aI10
aI11
aI15
aI13
aI22
aI11
aI13
aI15
aI28
aI12
aI22
aI12
aI16
aI14
aI16
aI20
aI23
aI15
aI9
aI15
aI20
aI14
aI22
aI18
aI25
aI23
aI25
aI22
aI11
aI11
aI16
aI10
aI21
aI20
aI24
aI12
aI22
aI18
aI16
aI24
aI20
aI17
aI21
aI11
aI13
aI13
aI16
aI22
aI23
aI11
aI15
aI15
aI13
aI22
aI18
aI19
aI11
aI16
aI14
aI14
aI17
aI29
aI14
aI24
aI12
aI13
aI13
aI17
aI13
aI11
aI16
aI10
aI21
aI14
aI12
aI21
aI23
aI14
aI11
aI14
aI21
aI12
aI19
aI19
aI28
aI16
aI21
aI27
aI15
aI13
aI21
aI23
aI18
aI27
aI23
aI16
aI12
aI17
aI22
aI22
aI13
aI13
aI18
aI22
aI10
aI15
aI15
aI24
aI17
aI11
aI17
aI21
aI12
aI10
aI12
aI11
aI22
aI22
aI12
aI13
aI19
aI16
aI22
aI20
aI12
aI17
aI15
aI35
aI18
aI20
aI23
aI19
aI24
aI20
aI17
aI18
aI12
aI25
aI16
aI19
aI11
aI12
aI15
aI21
aI10
aI15
aI13
aI25
aI35
aI22
aI20
aI17
aI19
aI15
aI21
aI14
aI16
aI12
aI11
aI18
aI17
aI17
aI13
aI18
aI20
aI24
aI11
aI21
aI19
aI11
aI28
aI25
aI19
aI17
aI16
aI13
aI20
aI12
aI14
aI13
aI12
aI22
aI23
aI13
aI22
aI11
aI23
aI16
aI13
aI13
aI23
aI14
aI19
aI14
aI20
aI31
aI13
aI21
aI14
aI21
aI13
aI12
aI18
aI14
aI14
aI15
aI12
aI16
aI13
aI16
aI14
aI12
aI13
aI15
aI13
aI27
aI19
aI13
aI10
aI20
aI22
aI17
aI16
aI22
aI23
aI19
aI12
aI22
aI23
aI23
aI17
aI17
aI18
aI25
aI12
aI19
aI19
aI30
aI14
aI13
aI13
aI20
aI20
aI13
aI14
aI22
aI15
aI16
aI18
aI14
aI15
aI18
aI16
aI12
aI14
aI18
aI25
aI17
aI26
aI14
aI13
aI18
aI11
aI17
aI21
aI12
aI11
aI23
aI17
aI20
aI11
aI17
aI17
aI10
aI21
aI25
aI23
aI20
aI15
aI13
aI22
aI12
aI19
aI12
aI20
aI20
aI18
aI13
aI20
aI11
aI20
aI11
aI15
aI26
aI17
aI11
aI23
aI17
aI15
aI18
aI12
aI12
aI23
aI11
aI18
aI12
aI17
aI11
aI17
aI24
aI23
aI14
aI14
aI13
aI11
aI23
aI20
aI20
aI19
aI19
aI14
aI23
aI20
aI25
aI13
aI17
aI19
aI13
aI19
aI17
aI16
aI19
aI18
aI31
aI19
aI11
aI25
aI12
aI17
aI13
aI17
aI11
aI16
aI11
aI16
aI24
aI19
aI23
aI20
aI14
aI17
aI15
aI20
aI19
aI15
aI18
aI18
aI13
aI16
aI12
aI12
aI11
aI23
aI15
aI21
aI20
aI13
aI21
aI16
aI12
aI26
aI13
aI19
aI29
aI24
aI16
aI12
aI26
aI23
aI22
aI19
aI24
aI21
aI21
aI24
aI11
aI24
aI11
aI14
aI13
aI26
aI19
aI21
aI27
aI16
aI17
aI21
aI12
aI24
aI20
aI25
aI24
aI32
aI17
aI25
aI11
aI15
aI39
aI14
aI23
aI26
aI13
aI11
aI10
aI26
aI20
aI17
aI20
aI28
aI17
aI11
aI17
aI11
aI13
aI16
aI20
aI13
aI10
aI16
aI16
aI11
aI11
aI23
aI14
aI12
aI19
aI14
aI17
aI12
aI21
aI20
aI15
aI16
aI15
aI17
aI37
aI17
aI14
aI34
aI17
aI22
aI16
aI19
aI19
aI19
aI20
aI22
aI21
aI20
aI18
aI20
aI12
aI16
aI11
aI14
aI16
aI16
aI13
aI15
aI25
aI9
aI17
aI27
aI16
aI15
aI23
aI16
aI23
aI14
aI17
aI17
aI16
aI20
aI13
aI23
aI18
aI11
aI25
aI20
aI20
aI22
aI25
aI29
aI18
aI22
aI16
aI26
aI24
aI23
aI14
aI20
aI13
aI13
aI25
aI10
aI19
aI24
aI11
aI18
aI14
aI27
aI15
aI13
aI18
aI14
aI12
aI22
aI27
aI19
aI21
aI25
aI18
aI22
aI15
aI17
aI23
aI24
aI12
aI18
aI17
aI21
aI16
aI14
aI17
aI10
aI22
aI22
aI16
aI27
aI12
aI21
aI15
aI11
aI13
aI11
aI12
aI17
aI13
aI25
aI14
aI19
aI19
aI24
aI20
aI18
aI21
aI11
aI27
aI16
aI18
aI11
aI17
aI10
aI14
aI23
aI9
aI16
aI13
aI15
aI26
aI18
aI16
aI21
aI12
aI22
aI27
aI18
aI20
aI23
aI13
aI18
aI10
aI18
aI12
aI19
aI21
aI16
aI23
aI14
aI16
aI15
aI13
aI16
aI27
aI16
aI24
aI24
aI13
aI16
aI12
aI25
aI21
aI16
aI24
aI19
aI23
aI13
aI20
aI22
aI13
aI16
aI11
aI26
aI19
aI19
aI19
aI17
aI20
aI13
aI16
aI20
aI14
aI19
aI21
aI13
aI19
aI30
aI11
aI12
aI33
aI23
aI26
aI30
aI28
aI22
aI21
aI13
aI24
aI18
aI23
aI25
aI24
aI23
aI19
aI14
aI17
aI24
aI12
aI13
aI12
aI24
aI25
aI17
aI24
aI15
aI16
aI15
aI17
aI17
aI28
aI23
aI16
asS'settings'
p181
(dp182
S'environment'
p183
(dp184
S'enable_wind'
p185
I01
sS'terminal_states'
p186
(dp187
(I0
I11
tp188
I10
ssS'enable_stochastic_actions'
p189
I01
ssS'experiment'
p190
(dp191
S'instances'
p192
I1
sS'episodes'
p193
I10000
sS'epsilon_decr'
p194
F0.20000000000000001
sS'epsilon_high'
p195
F0.80000000000000004
sS'epsilon_low'
p196
F0.10000000000000001
sS'results_dir'
p197
S'results'
p198
ssS'agent'
p199
(dp200
S'epsilon'
p201
F0.10000000000000001
sS'alpha'
p202
F0.10000000000000001
sss.