((dp0
S'insert'
p1
(dp2
S'@'
p3
(dp4
g3
I1
sS'a'
p5
I4
sS'c'
p6
I9
sS'b'
p7
I10
sS'e'
p8
I7
sS'd'
p9
I5
sS'g'
p10
I2
sS'f'
p11
I2
sS'i'
p12
I5
sS'h'
p13
I3
sS'k'
p14
I5
sS'j'
p15
I2
sS'm'
p16
I7
sS'l'
p17
I4
sS'o'
p18
I4
sS'n'
p19
I4
sS'q'
p20
I1
sS'p'
p21
I8
sS's'
p22
I8
sS'r'
p23
I3
sS'u'
p24
I1
sS't'
p25
I4
sS'w'
p26
I4
sS'v'
p27
I2
sS'y'
p28
I1
sS'x'
p29
I1
sS'z'
p30
I1
ssg5
(dp31
g3
I1
sg5
I1
sg6
I9
sg7
I1
sg8
I2
sg9
I4
sg10
I5
sg11
I1
sg12
I4
sg13
I1
sg14
I2
sg15
I1
sg16
I2
sg17
I14
sg18
I1
sg19
I16
sg20
I1
sg21
I1
sg22
I1
sg23
I8
sg24
I3
sg25
I5
sg26
I2
sg27
I1
sg28
I3
sg29
I1
sg30
I1
ssg6
(dp32
g3
I1
sg5
I11
sg6
I1
sg7
I1
sg8
I8
sg9
I1
sg10
I1
sg11
I1
sg12
I11
sg13
I3
sg14
I3
sg15
I1
sg16
I1
sg17
I1
sg18
I8
sg19
I1
sg20
I3
sg21
I1
sg22
I1
sg23
I2
sg24
I5
sg25
I9
sg26
I1
sg27
I1
sg28
I1
sg29
I1
sg30
I1
ssg7
(dp33
g3
I1
sg5
I3
sg6
I1
sg7
I1
sg8
I3
sg9
I1
sg10
I1
sg11
I1
sg12
I7
sg13
I1
sg14
I1
sg15
I1
sg16
I1
sg17
I3
sg18
I2
sg19
I1
sg20
I1
sg21
I1
sg22
I2
sg23
I3
sg24
I4
sg25
I1
sg26
I1
sg27
I1
sg28
I2
sg29
I1
sg30
I1
ssg8
(dp34
g3
I1
sg5
I8
sg6
I6
sg7
I1
sg8
I6
sg9
I5
sg10
I1
sg11
I3
sg12
I1
sg13
I1
sg14
I1
sg15
I1
sg16
I1
sg17
I6
sg18
I3
sg19
I9
sg20
I1
sg21
I2
sg22
I24
sg23
I21
sg24
I1
sg25
I4
sg26
I3
sg27
I1
sg28
I1
sg29
I2
sg30
I1
ssg9
(dp35
g3
I1
sg5
I4
sg6
I1
sg7
I3
sg8
I11
sg9
I2
sg10
I1
sg11
I1
sg12
I6
sg13
I1
sg14
I1
sg15
I1
sg16
I1
sg17
I1
sg18
I2
sg19
I1
sg20
I1
sg21
I1
sg22
I1
sg23
I1
sg24
I2
sg25
I1
sg26
I1
sg27
I1
sg28
I3
sg29
I1
sg30
I1
ssg10
(dp36
g3
I1
sg5
I4
sg6
I1
sg7
I1
sg8
I5
sg9
I1
sg10
I1
sg11
I1
sg12
I2
sg13
I4
sg14
I1
sg15
I1
sg16
I1
sg17
I1
sg18
I3
sg19
I3
sg20
I1
sg21
I1
sg22
I1
sg23
I2
sg24
I2
sg25
I1
sg26
I1
sg27
I1
sg28
I3
sg29
I1
sg30
I1
ssg11
(dp37
g3
I1
sg5
I3
sg6
I1
sg7
I1
sg8
I3
sg9
I1
sg10
I1
sg11
I3
sg12
I6
sg13
I1
sg14
I1
sg15
I1
sg16
I2
sg17
I2
sg18
I5
sg19
I1
sg20
I1
sg21
I1
sg22
I1
sg23
I2
sg24
I3
sg25
I1
sg26
I1
sg27
I1
sg28
I1
sg29
I1
sg30
I1
ssg12
(dp38
g3
I1
sg5
I1
sg6
I9
sg7
I1
sg8
I4
sg9
I3
sg10
I2
sg11
I1
sg12
I1
sg13
I1
sg14
I1
sg15
I1
sg16
I2
sg17
I5
sg18
I4
sg19
I7
sg20
I1
sg21
I5
sg22
I6
sg23
I2
sg24
I1
sg25
I8
sg26
I1
sg27
I2
sg28
I1
sg29
I1
sg30
I1
ssg13
(dp39
g3
I1
sg5
I4
sg6
I1
sg7
I1
sg8
I1
sg9
I1
sg10
I1
sg11
I1
sg12
I2
sg13
I3
sg14
I1
sg15
I1
sg16
I1
sg17
I1
sg18
I3
sg19
I2
sg20
I1
sg21
I1
sg22
I1
sg23
I1
sg24
I2
sg25
I1
sg26
I1
sg27
I1
sg28
I1
sg29
I1
sg30
I1
ssg14
(dp40
g3
I1
sg5
I1
sg6
I1
sg7
I1
sg8
I8
sg9
I1
sg10
I1
sg11
I1
sg12
I1
sg13
I1
sg14
I1
sg15
I1
sg16
I1
sg17
I1
sg18
I1
sg19
I1
sg20
I1
sg21
I1
sg22
I2
sg23
I1
sg24
I1
sg25
I1
sg26
I1
sg27
I1
sg28
I1
sg29
I1
sg30
I1
ssg15
(dp41
g3
I1
sg5
I1
sg6
I1
sg7
I1
sg8
I1
sg9
I1
sg10
I1
sg11
I1
sg12
I1
sg13
I1
sg14
I1
sg15
I1
sg16
I1
sg17
I1
sg18
I2
sg19
I1
sg20
I1
sg21
I1
sg22
I1
sg23
I1
sg24
I1
sg25
I1
sg26
I1
sg27
I1
sg28
I1
sg29
I1
sg30
I1
ssg16
(dp42
g3
I1
sg5
I7
sg6
I2
sg7
I2
sg8
I3
sg9
I1
sg10
I1
sg11
I1
sg12
I4
sg13
I1
sg14
I1
sg15
I1
sg16
I8
sg17
I1
sg18
I3
sg19
I1
sg20
I1
sg21
I2
sg22
I1
sg23
I1
sg24
I2
sg25
I1
sg26
I1
sg27
I1
sg28
I4
sg29
I1
sg30
I1
ssg17
(dp43
g3
I1
sg5
I9
sg6
I1
sg7
I1
sg8
I11
sg9
I2
sg10
I1
sg11
I1
sg12
I13
sg13
I1
sg14
I1
sg15
I1
sg16
I2
sg17
I6
sg18
I9
sg19
I1
sg20
I1
sg21
I1
sg22
I2
sg23
I1
sg24
I1
sg25
I3
sg26
I1
sg27
I1
sg28
I2
sg29
I1
sg30
I1
ssg18
(dp44
g3
I1
sg5
I1
sg6
I2
sg7
I3
sg8
I1
sg9
I1
sg10
I2
sg11
I2
sg12
I1
sg13
I1
sg14
I1
sg15
I1
sg16
I7
sg17
I2
sg18
I1
sg19
I12
sg20
I1
sg21
I2
sg22
I3
sg23
I11
sg24
I5
sg25
I4
sg26
I3
sg27
I1
sg28
I1
sg29
I1
sg30
I1
ssg19
(dp45
g3
I1
sg5
I6
sg6
I3
sg7
I1
sg8
I12
sg9
I2
sg10
I7
sg11
I1
sg12
I12
sg13
I1
sg14
I1
sg15
I1
sg16
I1
sg17
I3
sg18
I2
sg19
I4
sg20
I1
sg21
I1
sg22
I4
sg23
I1
sg24
I4
sg25
I5
sg26
I1
sg27
I1
sg28
I2
sg29
I1
sg30
I2
ssg20
(dp46
g3
I1
sg5
I1
sg6
I1
sg7
I1
sg8
I1
sg9
I1
sg10
I1
sg11
I1
sg12
I1
sg13
I1
sg14
I1
sg15
I1
sg16
I1
sg17
I1
sg18
I1
sg19
I1
sg20
I1
sg21
I1
sg22
I1
sg23
I1
sg24
I1
sg25
I1
sg26
I1
sg27
I1
sg28
I1
sg29
I1
sg30
I1
ssg21
(dp47
g3
I1
sg5
I6
sg6
I1
sg7
I1
sg8
I5
sg9
I1
sg10
I1
sg11
I1
sg12
I2
sg13
I2
sg14
I1
sg15
I1
sg16
I1
sg17
I5
sg18
I3
sg19
I1
sg20
I1
sg21
I3
sg22
I1
sg23
I6
sg24
I1
sg25
I5
sg26
I1
sg27
I1
sg28
I1
sg29
I1
sg30
I1
ssg22
(dp48
g3
I1
sg5
I1
sg6
I6
sg7
I1
sg8
I6
sg9
I1
sg10
I1
sg11
I2
sg12
I8
sg13
I3
sg14
I2
sg15
I1
sg16
I1
sg17
I1
sg18
I5
sg19
I1
sg20
I1
sg21
I1
sg22
I3
sg23
I1
sg24
I2
sg25
I6
sg26
I1
sg27
I1
sg28
I1
sg29
I1
sg30
I1
ssg23
(dp49
g3
I1
sg5
I12
sg6
I1
sg7
I2
sg8
I24
sg9
I2
sg10
I1
sg11
I1
sg12
I7
sg13
I1
sg14
I1
sg15
I1
sg16
I1
sg17
I2
sg18
I9
sg19
I6
sg20
I1
sg21
I1
sg22
I4
sg23
I3
sg24
I3
sg25
I4
sg26
I1
sg27
I3
sg28
I3
sg29
I1
sg30
I1
ssg24
(dp50
g3
I1
sg5
I3
sg6
I4
sg7
I3
sg8
I7
sg9
I1
sg10
I1
sg11
I1
sg12
I6
sg13
I1
sg14
I1
sg15
I1
sg16
I2
sg17
I4
sg18
I1
sg19
I5
sg20
I1
sg21
I2
sg22
I4
sg23
I10
sg24
I1
sg25
I4
sg26
I2
sg27
I1
sg28
I2
sg29
I1
sg30
I1
ssg25
(dp51
g3
I1
sg5
I10
sg6
I1
sg7
I1
sg8
I13
sg9
I1
sg10
I1
sg11
I1
sg12
I22
sg13
I1
sg14
I1
sg15
I1
sg16
I1
sg17
I3
sg18
I6
sg19
I2
sg20
I1
sg21
I1
sg22
I2
sg23
I10
sg24
I4
sg25
I3
sg26
I1
sg27
I1
sg28
I2
sg29
I1
sg30
I1
ssg26
(dp52
g3
I1
sg5
I1
sg6
I1
sg7
I1
sg8
I4
sg9
I1
sg10
I1
sg11
I1
sg12
I1
sg13
I1
sg14
I1
sg15
I1
sg16
I1
sg17
I1
sg18
I2
sg19
I2
sg20
I1
sg21
I1
sg22
I1
sg23
I2
sg24
I1
sg25
I1
sg26
I1
sg27
I1
sg28
I1
sg29
I1
sg30
I1
ssg27
(dp53
g3
I1
sg5
I1
sg6
I1
sg7
I1
sg8
I6
sg9
I2
sg10
I1
sg11
I1
sg12
I1
sg13
I1
sg14
I1
sg15
I1
sg16
I1
sg17
I1
sg18
I1
sg19
I1
sg20
I1
sg21
I1
sg22
I1
sg23
I1
sg24
I1
sg25
I1
sg26
I1
sg27
I1
sg28
I2
sg29
I1
sg30
I1
ssg28
(dp54
g3
I1
sg5
I3
sg6
I1
sg7
I1
sg8
I1
sg9
I2
sg10
I1
sg11
I1
sg12
I2
sg13
I1
sg14
I1
sg15
I1
sg16
I1
sg17
I2
sg18
I3
sg19
I1
sg20
I1
sg21
I1
sg22
I2
sg23
I1
sg24
I1
sg25
I1
sg26
I1
sg27
I1
sg28
I1
sg29
I1
sg30
I1
ssg29
(dp55
g3
I1
sg5
I1
sg6
I3
sg7
I1
sg8
I1
sg9
I1
sg10
I1
sg11
I1
sg12
I1
sg13
I1
sg14
I1
sg15
I1
sg16
I1
sg17
I1
sg18
I1
sg19
I1
sg20
I1
sg21
I1
sg22
I1
sg23
I1
sg24
I1
sg25
I1
sg26
I1
sg27
I1
sg28
I1
sg29
I1
sg30
I1
ssg30
(dp56
g3
I1
sg5
I1
sg6
I1
sg7
I1
sg8
I2
sg9
I1
sg10
I1
sg11
I1
sg12
I1
sg13
I1
sg14
I1
sg15
I1
sg16
I1
sg17
I1
sg18
I1
sg19
I1
sg20
I1
sg21
I1
sg22
I1
sg23
I1
sg24
I1
sg25
I1
sg26
I1
sg27
I1
sg28
I1
sg29
I1
sg30
I2
sssS'replace'
p57
(dp58
g3
(dp59
g3
I1
sg5
I1
sg6
I1
sg7
I1
sg8
I1
sg9
I1
sg10
I1
sg11
I1
sg12
I1
sg13
I1
sg14
I1
sg15
I1
sg16
I1
sg17
I1
sg18
I1
sg19
I1
sg20
I1
sg21
I1
sg22
I1
sg23
I1
sg24
I1
sg25
I1
sg26
I1
sg27
I1
sg28
I1
sg29
I1
sg30
I1
ssg5
(dp60
g3
I1
sg5
I1
sg6
I9
sg7
I4
sg8
I42
sg9
I8
sg10
I4
sg11
I3
sg12
I23
sg13
I6
sg14
I3
sg15
I1
sg16
I2
sg17
I2
sg18
I11
sg19
I12
sg20
I1
sg21
I5
sg22
I10
sg23
I5
sg24
I9
sg25
I11
sg26
I2
sg27
I1
sg28
I7
sg29
I2
sg30
I2
ssg6
(dp61
g3
I1
sg5
I50
sg6
I1
sg7
I5
sg8
I39
sg9
I14
sg10
I8
sg11
I2
sg12
I21
sg13
I11
sg14
I8
sg15
I2
sg16
I12
sg17
I9
sg18
I32
sg19
I22
sg20
I1
sg21
I8
sg22
I22
sg23
I11
sg24
I13
sg25
I18
sg26
I8
sg27
I2
sg28
I13
sg29
I2
sg30
I4
ssg7
(dp62
g3
I1
sg5
I29
sg6
I11
sg7
I1
sg8
I25
sg9
I5
sg10
I8
sg11
I4
sg12
I18
sg13
I5
sg14
I4
sg15
I1
sg16
I10
sg17
I12
sg18
I15
sg19
I10
sg20
I1
sg21
I6
sg22
I10
sg23
I10
sg24
I7
sg25
I14
sg26
I5
sg27
I1
sg28
I8
sg29
I1
sg30
I2
ssg8
(dp63
g3
I1
sg5
I47
sg6
I4
sg7
I2
sg8
I1
sg9
I6
sg10
I5
sg11
I4
sg12
I19
sg13
I6
sg14
I2
sg15
I1
sg16
I10
sg17
I7
sg18
I21
sg19
I7
sg20
I1
sg21
I2
sg22
I6
sg23
I8
sg24
I7
sg25
I11
sg26
I1
sg27
I3
sg28
I13
sg29
I1
sg30
I1
ssg9
(dp64
g3
I1
sg5
I21
sg6
I4
sg7
I6
sg8
I20
sg9
I1
sg10
I6
sg11
I2
sg12
I14
sg13
I5
sg14
I4
sg15
I2
sg16
I4
sg17
I9
sg18
I15
sg19
I5
sg20
I1
sg21
I5
sg22
I7
sg23
I13
sg24
I6
sg25
I6
sg26
I5
sg27
I3
sg28
I3
sg29
I1
sg30
I4
ssg10
(dp65
g3
I1
sg5
I16
sg6
I3
sg7
I5
sg8
I23
sg9
I11
sg10
I1
sg11
I5
sg12
I13
sg13
I6
sg14
I2
sg15
I1
sg16
I3
sg17
I9
sg18
I17
sg19
I8
sg20
I4
sg21
I4
sg22
I8
sg23
I8
sg24
I6
sg25
I15
sg26
I5
sg27
I4
sg28
I2
sg29
I1
sg30
I1
ssg11
(dp66
g3
I1
sg5
I32
sg6
I4
sg7
I6
sg8
I14
sg9
I3
sg10
I1
sg11
I1
sg12
I13
sg13
I8
sg14
I4
sg15
I1
sg16
I4
sg17
I9
sg18
I22
sg19
I3
sg20
I2
sg21
I5
sg22
I9
sg23
I6
sg24
I8
sg25
I7
sg26
I6
sg27
I4
sg28
I10
sg29
I1
sg30
I2
ssg12
(dp67
g3
I1
sg5
I28
sg6
I2
sg7
I3
sg8
I36
sg9
I7
sg10
I3
sg11
I3
sg12
I1
sg13
I8
sg14
I4
sg15
I1
sg16
I3
sg17
I5
sg18
I17
sg19
I9
sg20
I1
sg21
I6
sg22
I7
sg23
I7
sg24
I8
sg25
I12
sg26
I3
sg27
I2
sg28
I15
sg29
I3
sg30
I2
ssg13
(dp68
g3
I1
sg5
I14
sg6
I2
sg7
I2
sg8
I13
sg9
I4
sg10
I3
sg11
I4
sg12
I8
sg13
I1
sg14
I5
sg15
I2
sg16
I1
sg17
I12
sg18
I18
sg19
I4
sg20
I1
sg21
I4
sg22
I9
sg23
I8
sg24
I2
sg25
I9
sg26
I4
sg27
I3
sg28
I7
sg29
I2
sg30
I2
ssg14
(dp69
g3
I1
sg5
I21
sg6
I13
sg7
I5
sg8
I19
sg9
I5
sg10
I4
sg11
I3
sg12
I6
sg13
I8
sg14
I1
sg15
I1
sg16
I6
sg17
I10
sg18
I10
sg19
I7
sg20
I2
sg21
I4
sg22
I7
sg23
I8
sg24
I7
sg25
I10
sg26
I4
sg27
I1
sg28
I6
sg29
I2
sg30
I1
ssg15
(dp70
g3
I1
sg5
I7
sg6
I1
sg7
I6
sg8
I6
sg9
I1
sg10
I3
sg11
I2
sg12
I3
sg13
I5
sg14
I6
sg15
I1
sg16
I4
sg17
I4
sg18
I5
sg19
I1
sg20
I1
sg21
I2
sg22
I4
sg23
I3
sg24
I2
sg25
I6
sg26
I1
sg27
I1
sg28
I3
sg29
I2
sg30
I1
ssg16
(dp71
g3
I1
sg5
I29
sg6
I4
sg7
I8
sg8
I20
sg9
I6
sg10
I4
sg11
I4
sg12
I16
sg13
I7
sg14
I3
sg15
I1
sg16
I1
sg17
I9
sg18
I18
sg19
I13
sg20
I1
sg21
I5
sg22
I14
sg23
I13
sg24
I7
sg25
I8
sg26
I8
sg27
I4
sg28
I2
sg29
I1
sg30
I2
ssg17
(dp72
g3
I1
sg5
I36
sg6
I3
sg7
I3
sg8
I25
sg9
I6
sg10
I6
sg11
I4
sg12
I11
sg13
I7
sg14
I1
sg15
I2
sg16
I7
sg17
I1
sg18
I25
sg19
I10
sg20
I1
sg21
I5
sg22
I9
sg23
I9
sg24
I10
sg25
I13
sg26
I4
sg27
I2
sg28
I6
sg29
I1
sg30
I2
ssg18
(dp73
g3
I1
sg5
I26
sg6
I8
sg7
I2
sg8
I42
sg9
I6
sg10
I5
sg11
I1
sg12
I18
sg13
I8
sg14
I3
sg15
I1
sg16
I1
sg17
I3
sg18
I1
sg19
I8
sg20
I1
sg21
I4
sg22
I8
sg23
I5
sg24
I11
sg25
I9
sg26
I1
sg27
I1
sg28
I6
sg29
I1
sg30
I1
ssg19
(dp74
g3
I1
sg5
I31
sg6
I5
sg7
I5
sg8
I19
sg9
I13
sg10
I6
sg11
I3
sg12
I18
sg13
I6
sg14
I10
sg15
I1
sg16
I19
sg17
I10
sg18
I11
sg19
I1
sg20
I1
sg21
I6
sg22
I15
sg23
I17
sg24
I13
sg25
I13
sg26
I10
sg27
I3
sg28
I9
sg29
I1
sg30
I1
ssg20
(dp75
g3
I1
sg5
I5
sg6
I2
sg7
I1
sg8
I4
sg9
I2
sg10
I4
sg11
I2
sg12
I4
sg13
I1
sg14
I1
sg15
I1
sg16
I1
sg17
I5
sg18
I4
sg19
I4
sg20
I1
sg21
I2
sg22
I1
sg23
I6
sg24
I3
sg25
I2
sg26
I2
sg27
I1
sg28
I1
sg29
I2
sg30
I1
ssg21
(dp76
g3
I1
sg5
I23
sg6
I6
sg7
I3
sg8
I23
sg9
I8
sg10
I1
sg11
I3
sg12
I12
sg13
I3
sg14
I2
sg15
I3
sg16
I9
sg17
I3
sg18
I20
sg19
I7
sg20
I1
sg21
I1
sg22
I5
sg23
I11
sg24
I6
sg25
I12
sg26
I3
sg27
I2
sg28
I5
sg29
I1
sg30
I1
ssg22
(dp77
g3
I1
sg5
I34
sg6
I8
sg7
I8
sg8
I31
sg9
I13
sg10
I6
sg11
I5
sg12
I12
sg13
I10
sg14
I6
sg15
I1
sg16
I7
sg17
I11
sg18
I19
sg19
I9
sg20
I1
sg21
I4
sg22
I1
sg23
I13
sg24
I12
sg25
I12
sg26
I10
sg27
I4
sg28
I4
sg29
I2
sg30
I114
ssg23
(dp78
g3
I1
sg5
I28
sg6
I2
sg7
I5
sg8
I18
sg9
I8
sg10
I3
sg11
I3
sg12
I13
sg13
I9
sg14
I3
sg15
I2
sg16
I5
sg17
I9
sg18
I19
sg19
I12
sg20
I1
sg21
I8
sg22
I16
sg23
I1
sg24
I7
sg25
I14
sg26
I3
sg27
I3
sg28
I8
sg29
I3
sg30
I1
ssg24
(dp79
g3
I1
sg5
I15
sg6
I3
sg7
I1
sg8
I17
sg9
I2
sg10
I2
sg11
I1
sg12
I12
sg13
I2
sg14
I2
sg15
I1
sg16
I2
sg17
I1
sg18
I13
sg19
I4
sg20
I1
sg21
I1
sg22
I4
sg23
I5
sg24
I1
sg25
I3
sg26
I5
sg27
I2
sg28
I2
sg29
I1
sg30
I1
ssg25
(dp80
g3
I1
sg5
I36
sg6
I2
sg7
I4
sg8
I17
sg9
I13
sg10
I5
sg11
I4
sg12
I14
sg13
I7
sg14
I1
sg15
I2
sg16
I5
sg17
I5
sg18
I22
sg19
I3
sg20
I1
sg21
I4
sg22
I10
sg23
I7
sg24
I16
sg25
I1
sg26
I2
sg27
I4
sg28
I4
sg29
I2
sg30
I4
ssg26
(dp81
g3
I1
sg5
I12
sg6
I1
sg7
I3
sg8
I11
sg9
I4
sg10
I3
sg11
I2
sg12
I6
sg13
I2
sg14
I1
sg15
I2
sg16
I3
sg17
I7
sg18
I20
sg19
I5
sg20
I1
sg21
I2
sg22
I5
sg23
I2
sg24
I6
sg25
I4
sg26
I1
sg27
I4
sg28
I2
sg29
I2
sg30
I2
ssg27
(dp82
g3
I1
sg5
I16
sg6
I5
sg7
I4
sg8
I13
sg9
I6
sg10
I2
sg11
I3
sg12
I5
sg13
I4
sg14
I1
sg15
I1
sg16
I7
sg17
I10
sg18
I10
sg19
I9
sg20
I1
sg21
I5
sg22
I6
sg23
I4
sg24
I12
sg25
I7
sg26
I3
sg27
I1
sg28
I5
sg29
I1
sg30
I1
ssg28
(dp83
g3
I1
sg5
I10
sg6
I1
sg7
I1
sg8
I11
sg9
I3
sg10
I2
sg11
I3
sg12
I14
sg13
I4
sg14
I2
sg15
I1
sg16
I1
sg17
I4
sg18
I15
sg19
I3
sg20
I1
sg21
I2
sg22
I4
sg23
I7
sg24
I4
sg25
I5
sg26
I2
sg27
I2
sg28
I1
sg29
I2
sg30
I1
ssg29
(dp84
g3
I1
sg5
I11
sg6
I5
sg7
I4
sg8
I15
sg9
I7
sg10
I2
sg11
I1
sg12
I4
sg13
I3
sg14
I2
sg15
I1
sg16
I2
sg17
I4
sg18
I7
sg19
I5
sg20
I1
sg21
I1
sg22
I6
sg23
I8
sg24
I4
sg25
I7
sg26
I2
sg27
I1
sg28
I6
sg29
I1
sg30
I1
ssg30
(dp85
g3
I1
sg5
I3
sg6
I7
sg7
I5
sg8
I6
sg9
I6
sg10
I2
sg11
I2
sg12
I3
sg13
I2
sg14
I3
sg15
I2
sg16
I5
sg17
I5
sg18
I6
sg19
I2
sg20
I1
sg21
I1
sg22
I10
sg23
I6
sg24
I2
sg25
I6
sg26
I1
sg27
I1
sg28
I3
sg29
I1
sg30
I1
sssS'transpose'
p86
(dp87
g3
(dp88
g3
I1
sg5
I1
sg6
I1
sg7
I1
sg8
I1
sg9
I1
sg10
I1
sg11
I1
sg12
I1
sg13
I1
sg14
I1
sg15
I1
sg16
I1
sg17
I1
sg18
I1
sg19
I1
sg20
I1
sg21
I1
sg22
I1
sg23
I1
sg24
I1
sg25
I1
sg26
I1
sg27
I1
sg28
I1
sg29
I1
sg30
I1
ssg5
(dp89
g3
I1
sg5
I1
sg6
I4
sg7
I1
sg8
I1
sg9
I1
sg10
I1
sg11
I2
sg12
I4
sg13
I7
sg14
I1
sg15
I1
sg16
I3
sg17
I6
sg18
I4
sg19
I5
sg20
I1
sg21
I2
sg22
I1
sg23
I3
sg24
I7
sg25
I2
sg26
I2
sg27
I2
sg28
I1
sg29
I1
sg30
I1
ssg6
(dp90
g3
I1
sg5
I2
sg6
I1
sg7
I1
sg8
I1
sg9
I1
sg10
I1
sg11
I1
sg12
I9
sg13
I1
sg14
I1
sg15
I1
sg16
I1
sg17
I1
sg18
I2
sg19
I1
sg20
I1
sg21
I1
sg22
I1
sg23
I1
sg24
I2
sg25
I2
sg26
I1
sg27
I1
sg28
I1
sg29
I1
sg30
I1
ssg7
(dp91
g3
I1
sg5
I1
sg6
I1
sg7
I1
sg8
I1
sg9
I1
sg10
I1
sg11
I1
sg12
I2
sg13
I1
sg14
I1
sg15
I1
sg16
I3
sg17
I1
sg18
I2
sg19
I1
sg20
I1
sg21
I1
sg22
I1
sg23
I1
sg24
I1
sg25
I1
sg26
I1
sg27
I1
sg28
I1
sg29
I1
sg30
I1
ssg8
(dp92
g3
I1
sg5
I2
sg6
I1
sg7
I2
sg8
I1
sg9
I2
sg10
I2
sg11
I1
sg12
I4
sg13
I2
sg14
I2
sg15
I1
sg16
I5
sg17
I11
sg18
I1
sg19
I4
sg20
I1
sg21
I4
sg22
I8
sg23
I5
sg24
I2
sg25
I4
sg26
I1
sg27
I1
sg28
I1
sg29
I1
sg30
I1
ssg9
(dp93
g3
I1
sg5
I1
sg6
I1
sg7
I1
sg8
I1
sg9
I1
sg10
I1
sg11
I1
sg12
I2
sg13
I1
sg14
I1
sg15
I1
sg16
I1
sg17
I4
sg18
I1
sg19
I1
sg20
I1
sg21
I1
sg22
I1
sg23
I1
sg24
I1
sg25
I1
sg26
I1
sg27
I1
sg28
I1
sg29
I1
sg30
I1
ssg10
(dp94
g3
I1
sg5
I1
sg6
I1
sg7
I1
sg8
I1
sg9
I2
sg10
I1
sg11
I1
sg12
I5
sg13
I1
sg14
I1
sg15
I1
sg16
I1
sg17
I1
sg18
I1
sg19
I2
sg20
I1
sg21
I1
sg22
I1
sg23
I3
sg24
I1
sg25
I1
sg26
I1
sg27
I1
sg28
I1
sg29
I1
sg30
I1
ssg11
(dp95
g3
I1
sg5
I1
sg6
I1
sg7
I1
sg8
I1
sg9
I1
sg10
I1
sg11
I1
sg12
I2
sg13
I1
sg14
I1
sg15
I1
sg16
I1
sg17
I1
sg18
I1
sg19
I1
sg20
I1
sg21
I1
sg22
I1
sg23
I1
sg24
I1
sg25
I1
sg26
I1
sg27
I1
sg28
I1
sg29
I1
sg30
I1
ssg12
(dp96
g3
I1
sg5
I7
sg6
I3
sg7
I2
sg8
I6
sg9
I2
sg10
I2
sg11
I2
sg12
I1
sg13
I1
sg14
I1
sg15
I1
sg16
I2
sg17
I1
sg18
I1
sg19
I1
sg20
I1
sg21
I3
sg22
I2
sg23
I3
sg24
I2
sg25
I9
sg26
I2
sg27
I2
sg28
I1
sg29
I1
sg30
I1
ssg13
(dp97
g3
I1
sg5
I2
sg6
I2
sg7
I1
sg8
I1
sg9
I1
sg10
I1
sg11
I1
sg12
I1
sg13
I1
sg14
I1
sg15
I1
sg16
I1
sg17
I1
sg18
I1
sg19
I1
sg20
I1
sg21
I1
sg22
I2
sg23
I1
sg24
I1
sg25
I3
sg26
I1
sg27
I1
sg28
I1
sg29
I1
sg30
I1
ssg14
(dp98
g3
I1
sg5
I1
sg6
I1
sg7
I1
sg8
I1
sg9
I1
sg10
I1
sg11
I1
sg12
I1
sg13
I1
sg14
I1
sg15
I1
sg16
I1
sg17
I1
sg18
I1
sg19
I1
sg20
I1
sg21
I1
sg22
I1
sg23
I1
sg24
I1
sg25
I1
sg26
I1
sg27
I1
sg28
I1
sg29
I1
sg30
I1
ssg15
(dp99
g3
I1
sg5
I1
sg6
I1
sg7
I1
sg8
I1
sg9
I1
sg10
I1
sg11
I1
sg12
I1
sg13
I1
sg14
I1
sg15
I1
sg16
I1
sg17
I1
sg18
I1
sg19
I1
sg20
I1
sg21
I1
sg22
I1
sg23
I1
sg24
I1
sg25
I1
sg26
I1
sg27
I1
sg28
I1
sg29
I1
sg30
I1
ssg16
(dp100
g3
I1
sg5
I1
sg6
I1
sg7
I1
sg8
I2
sg9
I1
sg10
I1
sg11
I1
sg12
I5
sg13
I1
sg14
I1
sg15
I1
sg16
I1
sg17
I1
sg18
I2
sg19
I1
sg20
I1
sg21
I1
sg22
I2
sg23
I2
sg24
I1
sg25
I1
sg26
I1
sg27
I1
sg28
I1
sg29
I1
sg30
I1
ssg17
(dp101
g3
I1
sg5
I3
sg6
I6
sg7
I4
sg8
I8
sg9
I1
sg10
I1
sg11
I2
sg12
I1
sg13
I1
sg14
I1
sg15
I1
sg16
I1
sg17
I1
sg18
I2
sg19
I1
sg20
I1
sg21
I1
sg22
I1
sg23
I3
sg24
I4
sg25
I2
sg26
I1
sg27
I1
sg28
I1
sg29
I1
sg30
I1
ssg18
(dp102
g3
I1
sg5
I1
sg6
I4
sg7
I1
sg8
I2
sg9
I1
sg10
I3
sg11
I1
sg12
I2
sg13
I2
sg14
I1
sg15
I1
sg16
I1
sg17
I1
sg18
I1
sg19
I2
sg20
I1
sg21
I4
sg22
I5
sg23
I4
sg24
I2
sg25
I2
sg26
I2
sg27
I1
sg28
I1
sg29
I1
sg30
I1
ssg19
(dp103
g3
I1
sg5
I9
sg6
I1
sg7
I1
sg8
I5
sg9
I1
sg10
I1
sg11
I1
sg12
I5
sg13
I1
sg14
I1
sg15
I1
sg16
I1
sg17
I1
sg18
I2
sg19
I1
sg20
I1
sg21
I1
sg22
I2
sg23
I3
sg24
I5
sg25
I2
sg26
I2
sg27
I1
sg28
I1
sg29
I1
sg30
I1
ssg20
(dp104
g3
I1
sg5
I1
sg6
I1
sg7
I1
sg8
I2
sg9
I1
sg10
I1
sg11
I1
sg12
I1
sg13
I1
sg14
I1
sg15
I1
sg16
I1
sg17
I1
sg18
I1
sg19
I1
sg20
I1
sg21
I1
sg22
I1
sg23
I1
sg24
I1
sg25
I1
sg26
I1
sg27
I1
sg28
I1
sg29
I1
sg30
I1
ssg21
(dp105
g3
I1
sg5
I2
sg6
I1
sg7
I1
sg8
I1
sg9
I1
sg10
I1
sg11
I1
sg12
I4
sg13
I1
sg14
I1
sg15
I1
sg16
I2
sg17
I1
sg18
I3
sg19
I1
sg20
I1
sg21
I1
sg22
I3
sg23
I2
sg24
I1
sg25
I2
sg26
I1
sg27
I1
sg28
I1
sg29
I2
sg30
I1
ssg22
(dp106
g3
I1
sg5
I3
sg6
I1
sg7
I2
sg8
I3
sg9
I1
sg10
I1
sg11
I1
sg12
I10
sg13
I1
sg14
I1
sg15
I1
sg16
I1
sg17
I1
sg18
I1
sg19
I1
sg20
I1
sg21
I2
sg22
I1
sg23
I1
sg24
I5
sg25
I1
sg26
I1
sg27
I1
sg28
I1
sg29
I1
sg30
I1
ssg23
(dp107
g3
I1
sg5
I9
sg6
I1
sg7
I1
sg8
I15
sg9
I1
sg10
I1
sg11
I1
sg12
I4
sg13
I1
sg14
I1
sg15
I1
sg16
I1
sg17
I1
sg18
I7
sg19
I1
sg20
I1
sg21
I1
sg22
I1
sg23
I1
sg24
I3
sg25
I2
sg26
I1
sg27
I1
sg28
I1
sg29
I1
sg30
I1
ssg24
(dp108
g3
I1
sg5
I3
sg6
I1
sg7
I1
sg8
I3
sg9
I3
sg10
I2
sg11
I2
sg12
I1
sg13
I2
sg14
I1
sg15
I1
sg16
I1
sg17
I2
sg18
I3
sg19
I1
sg20
I6
sg21
I1
sg22
I2
sg23
I4
sg24
I1
sg25
I2
sg26
I1
sg27
I1
sg28
I1
sg29
I1
sg30
I1
ssg25
(dp109
g3
I1
sg5
I5
sg6
I2
sg7
I1
sg8
I2
sg9
I1
sg10
I1
sg11
I1
sg12
I9
sg13
I1
sg14
I1
sg15
I1
sg16
I1
sg17
I3
sg18
I2
sg19
I2
sg20
I1
sg21
I1
sg22
I3
sg23
I2
sg24
I3
sg25
I1
sg26
I1
sg27
I1
sg28
I1
sg29
I1
sg30
I1
ssg26
(dp110
g3
I1
sg5
I2
sg6
I1
sg7
I1
sg8
I1
sg9
I1
sg10
I1
sg11
I1
sg12
I1
sg13
I1
sg14
I1
sg15
I1
sg16
I1
sg17
I1
sg18
I3
sg19
I1
sg20
I1
sg21
I1
sg22
I1
sg23
I1
sg24
I1
sg25
I1
sg26
I1
sg27
I1
sg28
I1
sg29
I1
sg30
I1
ssg27
(dp111
g3
I1
sg5
I1
sg6
I1
sg7
I1
sg8
I1
sg9
I1
sg10
I1
sg11
I1
sg12
I3
sg13
I1
sg14
I1
sg15
I1
sg16
I1
sg17
I2
sg18
I1
sg19
I1
sg20
I1
sg21
I1
sg22
I1
sg23
I1
sg24
I1
sg25
I1
sg26
I1
sg27
I1
sg28
I1
sg29
I1
sg30
I1
ssg28
(dp112
g3
I1
sg5
I2
sg6
I2
sg7
I1
sg8
I1
sg9
I1
sg10
I1
sg11
I1
sg12
I1
sg13
I1
sg14
I2
sg15
I1
sg16
I1
sg17
I1
sg18
I2
sg19
I1
sg20
I1
sg21
I1
sg22
I1
sg23
I2
sg24
I1
sg25
I1
sg26
I1
sg27
I1
sg28
I1
sg29
I1
sg30
I1
ssg29
(dp113
g3
I1
sg5
I2
sg6
I1
sg7
I1
sg8
I1
sg9
I1
sg10
I1
sg11
I1
sg12
I2
sg13
I1
sg14
I1
sg15
I1
sg16
I1
sg17
I1
sg18
I1
sg19
I1
sg20
I1
sg21
I1
sg22
I1
sg23
I1
sg24
I1
sg25
I1
sg26
I1
sg27
I1
sg28
I1
sg29
I1
sg30
I1
ssg30
(dp114
g3
I1
sg5
I1
sg6
I1
sg7
I1
sg8
I1
sg9
I1
sg10
I1
sg11
I1
sg12
I1
sg13
I1
sg14
I1
sg15
I1
sg16
I1
sg17
I1
sg18
I1
sg19
I1
sg20
I1
sg21
I1
sg22
I1
sg23
I1
sg24
I1
sg25
I1
sg26
I1
sg27
I1
sg28
I1
sg29
I1
sg30
I1
sssS'delete'
p115
(dp116
g3
(dp117
g3
I1
sg5
I20
sg6
I39
sg7
I16
sg8
I21
sg9
I13
sg10
I11
sg11
I19
sg12
I13
sg13
I15
sg14
I15
sg15
I9
sg16
I23
sg17
I10
sg18
I7
sg19
I21
sg20
I6
sg21
I24
sg22
I23
sg23
I18
sg24
I14
sg25
I15
sg26
I12
sg27
I19
sg28
I4
sg29
I2
sg30
I4
ssg5
(dp118
g3
I1
sg5
I6
sg6
I8
sg7
I13
sg8
I4
sg9
I8
sg10
I5
sg11
I6
sg12
I15
sg13
I7
sg14
I4
sg15
I2
sg16
I18
sg17
I4
sg18
I3
sg19
I20
sg20
I4
sg21
I4
sg22
I16
sg23
I10
sg24
I8
sg25
I9
sg26
I4
sg27
I6
sg28
I3
sg29
I5
sg30
I2
ssg6
(dp119
g3
I1
sg5
I5
sg6
I7
sg7
I6
sg8
I6
sg9
I1
sg10
I2
sg11
I3
sg12
I8
sg13
I6
sg14
I1
sg15
I2
sg16
I1
sg17
I1
sg18
I7
sg19
I2
sg20
I2
sg21
I3
sg22
I9
sg23
I3
sg24
I2
sg25
I2
sg26
I1
sg27
I1
sg28
I2
sg29
I4
sg30
I3
ssg7
(dp120
g3
I1
sg5
I9
sg6
I6
sg7
I3
sg8
I3
sg9
I2
sg10
I3
sg11
I3
sg12
I5
sg13
I2
sg14
I5
sg15
I3
sg16
I2
sg17
I4
sg18
I2
sg19
I4
sg20
I1
sg21
I1
sg22
I4
sg23
I3
sg24
I2
sg25
I2
sg26
I1
sg27
I3
sg28
I1
sg29
I1
sg30
I1
ssg8
(dp121
g3
I1
sg5
I7
sg6
I11
sg7
I3
sg8
I9
sg9
I22
sg10
I3
sg11
I2
sg12
I6
sg13
I4
sg14
I7
sg15
I3
sg16
I4
sg17
I18
sg18
I4
sg19
I15
sg20
I3
sg21
I6
sg22
I38
sg23
I26
sg24
I6
sg25
I10
sg26
I4
sg27
I4
sg28
I8
sg29
I13
sg30
I1
ssg9
(dp122
g3
I1
sg5
I6
sg6
I9
sg7
I3
sg8
I10
sg9
I2
sg10
I2
sg11
I5
sg12
I11
sg13
I1
sg14
I2
sg15
I1
sg16
I1
sg17
I4
sg18
I5
sg19
I9
sg20
I2
sg21
I3
sg22
I19
sg23
I4
sg24
I3
sg25
I3
sg26
I2
sg27
I3
sg28
I3
sg29
I1
sg30
I1
ssg10
(dp123
g3
I1
sg5
I3
sg6
I1
sg7
I2
sg8
I2
sg9
I2
sg10
I1
sg11
I1
sg12
I4
sg13
I2
sg14
I1
sg15
I1
sg16
I1
sg17
I1
sg18
I1
sg19
I1
sg20
I1
sg21
I1
sg22
I26
sg23
I4
sg24
I2
sg25
I1
sg26
I1
sg27
I1
sg28
I1
sg29
I1
sg30
I2
ssg11
(dp124
g3
I1
sg5
I1
sg6
I4
sg7
I1
sg8
I2
sg9
I2
sg10
I3
sg11
I3
sg12
I3
sg13
I1
sg14
I1
sg15
I1
sg16
I1
sg17
I2
sg18
I2
sg19
I1
sg20
I1
sg21
I3
sg22
I4
sg23
I4
sg24
I1
sg25
I1
sg26
I1
sg27
I2
sg28
I1
sg29
I1
sg30
I1
ssg12
(dp125
g3
I1
sg5
I4
sg6
I8
sg7
I4
sg8
I4
sg9
I1
sg10
I4
sg11
I1
sg12
I7
sg13
I2
sg14
I1
sg15
I1
sg16
I7
sg17
I6
sg18
I18
sg19
I15
sg20
I1
sg21
I2
sg22
I11
sg23
I3
sg24
I7
sg25
I13
sg26
I1
sg27
I1
sg28
I1
sg29
I1
sg30
I1
ssg13
(dp126
g3
I1
sg5
I3
sg6
I3
sg7
I4
sg8
I6
sg9
I2
sg10
I3
sg11
I3
sg12
I3
sg13
I5
sg14
I1
sg15
I2
sg16
I1
sg17
I1
sg18
I5
sg19
I2
sg20
I1
sg21
I3
sg22
I4
sg23
I6
sg24
I1
sg25
I2
sg26
I3
sg27
I1
sg28
I2
sg29
I2
sg30
I1
ssg14
(dp127
g3
I1
sg5
I6
sg6
I2
sg7
I1
sg8
I7
sg9
I1
sg10
I1
sg11
I1
sg12
I3
sg13
I1
sg14
I2
sg15
I2
sg16
I2
sg17
I3
sg18
I2
sg19
I2
sg20
I1
sg21
I1
sg22
I1
sg23
I2
sg24
I2
sg25
I1
sg26
I1
sg27
I1
sg28
I2
sg29
I1
sg30
I2
ssg15
(dp128
g3
I1
sg5
I1
sg6
I1
sg7
I1
sg8
I1
sg9
I1
sg10
I1
sg11
I1
sg12
I1
sg13
I1
sg14
I1
sg15
I1
sg16
I2
sg17
I1
sg18
I1
sg19
I1
sg20
I1
sg21
I1
sg22
I1
sg23
I1
sg24
I1
sg25
I1
sg26
I1
sg27
I2
sg28
I1
sg29
I1
sg30
I1
ssg16
(dp129
g3
I1
sg5
I8
sg6
I12
sg7
I4
sg8
I4
sg9
I3
sg10
I6
sg11
I5
sg12
I7
sg13
I4
sg14
I6
sg15
I1
sg16
I3
sg17
I2
sg18
I3
sg19
I7
sg20
I1
sg21
I4
sg22
I9
sg23
I2
sg24
I2
sg25
I4
sg26
I1
sg27
I1
sg28
I2
sg29
I3
sg30
I1
ssg17
(dp130
g3
I1
sg5
I3
sg6
I3
sg7
I5
sg8
I19
sg9
I5
sg10
I1
sg11
I2
sg12
I10
sg13
I2
sg14
I4
sg15
I1
sg16
I3
sg17
I12
sg18
I6
sg19
I3
sg20
I1
sg21
I3
sg22
I15
sg23
I2
sg24
I1
sg25
I5
sg26
I1
sg27
I1
sg28
I5
sg29
I2
sg30
I1
ssg18
(dp131
g3
I1
sg5
I1
sg6
I6
sg7
I3
sg8
I8
sg9
I2
sg10
I2
sg11
I5
sg12
I9
sg13
I2
sg14
I4
sg15
I3
sg16
I7
sg17
I6
sg18
I6
sg19
I5
sg20
I1
sg21
I15
sg22
I8
sg23
I5
sg24
I38
sg25
I5
sg26
I4
sg27
I5
sg28
I3
sg29
I3
sg30
I1
ssg19
(dp132
g3
I1
sg5
I13
sg6
I8
sg7
I2
sg8
I14
sg9
I7
sg10
I8
sg11
I7
sg12
I11
sg13
I3
sg14
I3
sg15
I1
sg16
I10
sg17
I4
sg18
I7
sg19
I11
sg20
I2
sg21
I3
sg22
I36
sg23
I3
sg24
I1
sg25
I8
sg26
I5
sg27
I5
sg28
I3
sg29
I2
sg30
I3
ssg20
(dp133
g3
I1
sg5
I1
sg6
I1
sg7
I1
sg8
I1
sg9
I1
sg10
I1
sg11
I1
sg12
I1
sg13
I1
sg14
I1
sg15
I1
sg16
I1
sg17
I1
sg18
I1
sg19
I1
sg20
I2
sg21
I1
sg22
I1
sg23
I1
sg24
I1
sg25
I1
sg26
I1
sg27
I1
sg28
I1
sg29
I1
sg30
I1
ssg21
(dp134
g3
I1
sg5
I2
sg6
I7
sg7
I3
sg8
I5
sg9
I3
sg10
I3
sg11
I2
sg12
I5
sg13
I4
sg14
I1
sg15
I1
sg16
I4
sg17
I1
sg18
I8
sg19
I3
sg20
I1
sg21
I2
sg22
I3
sg23
I5
sg24
I3
sg25
I6
sg26
I2
sg27
I2
sg28
I1
sg29
I1
sg30
I3
ssg22
(dp135
g3
I1
sg5
I12
sg6
I10
sg7
I3
sg8
I10
sg9
I9
sg10
I4
sg11
I6
sg12
I11
sg13
I3
sg14
I2
sg15
I1
sg16
I4
sg17
I7
sg18
I8
sg19
I8
sg20
I1
sg21
I2
sg22
I13
sg23
I5
sg24
I5
sg25
I13
sg26
I3
sg27
I1
sg28
I3
sg29
I5
sg30
I3
ssg23
(dp136
g3
I1
sg5
I7
sg6
I6
sg7
I6
sg8
I29
sg9
I2
sg10
I5
sg11
I6
sg12
I13
sg13
I5
sg14
I3
sg15
I4
sg16
I1
sg17
I4
sg18
I4
sg19
I4
sg20
I1
sg21
I3
sg22
I38
sg23
I13
sg24
I2
sg25
I12
sg26
I3
sg27
I3
sg28
I7
sg29
I2
sg30
I5
ssg24
(dp137
g3
I1
sg5
I5
sg6
I2
sg7
I2
sg8
I5
sg9
I1
sg10
I1
sg11
I1
sg12
I7
sg13
I2
sg14
I1
sg15
I1
sg16
I2
sg17
I6
sg18
I1
sg19
I7
sg20
I1
sg21
I2
sg22
I5
sg23
I8
sg24
I1
sg25
I6
sg26
I1
sg27
I2
sg28
I5
sg29
I1
sg30
I1
ssg25
(dp138
g3
I1
sg5
I11
sg6
I10
sg7
I2
sg8
I14
sg9
I3
sg10
I6
sg11
I2
sg12
I7
sg13
I7
sg14
I1
sg15
I2
sg16
I5
sg17
I4
sg18
I8
sg19
I7
sg20
I1
sg21
I4
sg22
I19
sg23
I9
sg24
I3
sg25
I9
sg26
I3
sg27
I4
sg28
I3
sg29
I5
sg30
I7
ssg26
(dp139
g3
I1
sg5
I4
sg6
I3
sg7
I1
sg8
I3
sg9
I1
sg10
I1
sg11
I1
sg12
I1
sg13
I2
sg14
I1
sg15
I2
sg16
I1
sg17
I2
sg18
I1
sg19
I2
sg20
I2
sg21
I2
sg22
I3
sg23
I1
sg24
I1
sg25
I2
sg26
I2
sg27
I1
sg28
I1
sg29
I1
sg30
I1
ssg27
(dp140
g3
I1
sg5
I1
sg6
I3
sg7
I2
sg8
I5
sg9
I1
sg10
I1
sg11
I1
sg12
I2
sg13
I1
sg14
I1
sg15
I1
sg16
I2
sg17
I1
sg18
I1
sg19
I1
sg20
I1
sg21
I1
sg22
I2
sg23
I1
sg24
I1
sg25
I1
sg26
I2
sg27
I1
sg28
I1
sg29
I1
sg30
I1
ssg28
(dp141
g3
I1
sg5
I6
sg6
I2
sg7
I3
sg8
I5
sg9
I1
sg10
I3
sg11
I3
sg12
I2
sg13
I2
sg14
I1
sg15
I1
sg16
I4
sg17
I1
sg18
I2
sg19
I2
sg20
I1
sg21
I3
sg22
I11
sg23
I3
sg24
I3
sg25
I2
sg26
I1
sg27
I1
sg28
I1
sg29
I2
sg30
I1
ssg29
(dp142
g3
I1
sg5
I1
sg6
I5
sg7
I1
sg8
I1
sg9
I1
sg10
I1
sg11
I1
sg12
I3
sg13
I1
sg14
I1
sg15
I2
sg16
I2
sg17
I1
sg18
I2
sg19
I1
sg20
I1
sg21
I2
sg22
I1
sg23
I1
sg24
I2
sg25
I2
sg26
I1
sg27
I1
sg28
I1
sg29
I1
sg30
I1
ssg30
(dp143
g3
I1
sg5
I1
sg6
I1
sg7
I1
sg8
I1
sg9
I1
sg10
I1
sg11
I1
sg12
I1
sg13
I1
sg14
I1
sg15
I1
sg16
I2
sg17
I1
sg18
I1
sg19
I1
sg20
I1
sg21
I1
sg22
I1
sg23
I1
sg24
I1
sg25
I1
sg26
I1
sg27
I1
sg28
I1
sg29
I1
sg30
I1
sssccopy_reg
_reconstructor
p144
(cnltk.probability
FreqDist
p145
c__builtin__
dict
p146
(dp147
S'G7'
p148
I2
sS'G>'
p149
I216
sS"G'"
p150
I19
sS'G&'
p151
I3
sS'G"'
p152
I2
sS'G '
p153
I1837
sS'G/'
p154
I6
sS'G.'
p155
I145
sS'G-'
p156
I205
sS'G,'
p157
I42
sS'-O'
p158
I113
sS'G)'
p159
I12
sS'GW'
p160
I23
sS'GV'
p161
I8
sS'GU'
p162
I320
sS'GT'
p163
I123
sS'GS'
p164
I434
sS'GR'
p165
I1091
sS'GQ'
p166
I2
sS'GP'
p167
I35
sS'-I'
p168
I109
sS'GZ'
p169
I6
sS'GY'
p170
I191
sS'GX'
p171
I4
sS'GG'
p172
I53
sS'GF'
p173
I17
sS'GE'
p174
I1693
sS'GD'
p175
I153
sS'GC'
p176
I104
sS'GB'
p177
I9
sS'GA'
p178
I1139
sS'GO'
p179
I439
sS'GN'
p180
I349
sS'GM'
p181
I146
sS'GL'
p182
I220
sS'GK'
p183
I8
sS'GJ'
p184
I1
sS'GI'
p185
I363
sS'GH'
p186
I513
sS'Gw'
p187
I3
sS'tN'
p188
I4
sS'Gu'
p189
I723
sS'Gr'
p190
I1495
sS'-W'
p191
I206
sS'Gy'
p192
I4
sS'Ge'
p193
I1861
sS'Ga'
p194
I441
sS'Go'
p195
I629
sS'Gn'
p196
I1
sS'Gm'
p197
I13
sS'Gl'
p198
I150
sS'Gi'
p199
I183
sS'Gh'
p200
I48
sS'-S'
p201
I229
sS'-R'
p202
I86
sS'&a'
p203
I10
sS'&l'
p204
I8694
sS'Z,'
p205
I4
sS'Z-'
p206
I4
sS'Z.'
p207
I96
sS'+'
p208
I15
sS"Z'"
p209
I5
sS'Z '
p210
I89
sS'-X'
p211
I22
sS'Z>'
p212
I67
sS'g,'
p213
I1160
sS'tA'
p214
I1
sS'Z0'
p215
I1
sS'ZL'
p216
I13
sS'ZM'
p217
I5
sS'ZN'
p218
I4
sS'ZO'
p219
I42
sS'ZI'
p220
I192
sS' '
p221
I1768415
sS'ZD'
p222
I1
sS'ZE'
p223
I135
sS'ZF'
p224
I11
sS'ZA'
p225
I119
sS'ZB'
p226
I9
sS'ZC'
p227
I20
sS'ZY'
p228
I24
sS'ZZ'
p229
I22
sS'ZT'
p230
I4
sS'ZU'
p231
I31
sS'ZV'
p232
I2
sS'ZW'
p233
I5
sS'ZP'
p234
I2
sS'ZR'
p235
I5
sS'ZS'
p236
I2
sS'bj'
p237
I493
sS'Zo'
p238
I36
sS'Zh'
p239
I15
sS'Zi'
p240
I91
sS'Zd'
p241
I1
sS'Ze'
p242
I163
sg14
I35840
sS'-b'
p243
I518
sS'Za'
p244
I102
sS'-m'
p245
I429
sS'tw'
p246
I3838
sS'Zu'
p247
I29
sS'Zv'
p248
I2
sS'Zw'
p249
I1
sS'tt'
p250
I4976
sS'9i'
p251
I1
sS'iy'
p252
I189
sS'tu'
p253
I6764
sS'ix'
p254
I1691
sS'tr'
p255
I20950
sS'9c'
p256
I2
sS'ts'
p257
I32910
sS'iz'
p258
I1663
sS'tp'
p259
I693
sS'9p'
p260
I28
sS'9t'
p261
I5
sS'tn'
p262
I657
sS"m'"
p263
I129
sS'm '
p264
I14054
sS'm"'
p265
I15
sS'm-'
p266
I82
sS'm,'
p267
I687
sS'm/'
p268
I10
sS'm.'
p269
I512
sS'm)'
p270
I25
sS'9D'
p271
I1
sS'iq'
p272
I439
sS'tm'
p273
I2596
sS'm3'
p274
I2
sS'ip'
p275
I3820
sS'9P'
p276
I2
sS'm>'
p277
I3
sS'is'
p278
I34431
sS'm:'
p279
I1
sS'9)'
p280
I26
sS'mD'
p281
I1
sS'ir'
p282
I11286
sS'9-'
p283
I192
sS'9,'
p284
I1794
sS'9/'
p285
I301
sS'9.'
p286
I2045
sS'9 '
p287
I4218
sS'mO'
p288
I2
sS'ti'
p289
I49691
sS'it'
p290
I50694
sS'99'
p291
I837
sS'98'
p292
I10074
sS'9;'
p293
I1
sS'9:'
p294
I8
sS'iw'
p295
I313
sS'mS'
p296
I3
sS'V'
p297
I5442
sS'91'
p298
I626
sS'90'
p299
I1184
sS'93'
p300
I614
sS'92'
p301
I785
sS'95'
p302
I777
sS'94'
p303
I581
sS'97'
p304
I720
sS'96'
p305
I636
sS'me'
p306
I31220
sS'ii'
p307
I79
sS'mg'
p308
I14
sS'mf'
p309
I44
sS'ma'
p310
I21837
sS'mc'
p311
I56
sS'mb'
p312
I4126
sS'mm'
p313
I6056
sS'ml'
p314
I18154
sS'mo'
p315
I11876
sS'mn'
p316
I98
sS'mi'
p317
I11774
sS'ik'
p318
I1475
sS'mk'
p319
I3
sS'tc'
p320
I795
sS'mu'
p321
I2604
sS'mt'
p322
I960
sS'mw'
p323
I6
sS'ij'
p324
I38
sS'mp'
p325
I14446
sS'ms'
p326
I2617
sS'mr'
p327
I60
sS'im'
p328
I9093
sS'ta'
p329
I25114
sS'my'
p330
I685
sS'il'
p331
I30978
sS'Ld'
p332
I1
sS'Le'
p333
I548
sS'"r'
p334
I57
sS'La'
p335
I1138
sS'Lo'
p336
I1117
sS'Ll'
p337
I74
sS'in'
p338
I108621
sS'Li'
p339
I654
sS'Lt'
p340
I1211
sS'Lu'
p341
I215
sS'Ls'
p342
I1
sS'-a'
p343
I426
sS'Ly'
p344
I316
sS'LF'
p345
I182
sS'LG'
p346
I94
sS'LD'
p347
I827
sS'LE'
p348
I2038
sS'LB'
p349
I144
sS'LC'
p350
I362
sS'LA'
p351
I1730
sS'LN'
p352
I646
sS'LO'
p353
I1747
sS'LL'
p354
I2162
sS'LM'
p355
I243
sS'LJ'
p356
I7
sS'LK'
p357
I210
sS'LH'
p358
I16
sS'LI'
p359
I2005
sS'LV'
p360
I80
sS'LW'
p361
I54
sS'LT'
p362
I656
sS'LU'
p363
I305
sS'LR'
p364
I706
sS'LS'
p365
I707
sS'LP'
p366
I197
sS'LQ'
p367
I2
sS'LZ'
p368
I20
sS'LX'
p369
I51
sS'LY'
p370
I791
sS'A'
p371
I52624
sS"L'"
p372
I41
sS'L '
p373
I3795
sS'"E'
p374
I51
sS'L.'
p375
I254
sS'L/'
p376
I15
sS'L,'
p377
I103
sS'L-'
p378
I45
sS'"F'
p379
I72
sS'L)'
p380
I27
sS'L4'
p381
I6
sS'L2'
p382
I3
sS'L>'
p383
I590
sS'"C'
p384
I98
sS'"L'
p385
I23
sS'V)'
p386
I4
sS'"H'
p387
I56
sS'1S'
p388
I527
sS'"I'
p389
I920
sS'"J'
p390
I30
sS'xo'
p391
I255
sS'"T'
p392
I1286
sS'xl'
p393
I10
sS','
p394
I77632
sS'"W'
p395
I697
sS'_j'
p396
I1
sS'"P'
p397
I56
sS'"R'
p398
I31
sS't;'
p399
I8694
sg17
I265031
sS'xy'
p400
I49
sS'V>'
p401
I105
sS'rT'
p402
I1
sS'+B'
p403
I1
sS'rV'
p404
I9
sS'rW'
p405
I4
sS'rS'
p406
I3
sS'rE'
p407
I1
sS'rF'
p408
I5
sS'rA'
p409
I1
sS'rC'
p410
I20
sS'.8'
p411
I2749
sS'" '
p412
I5916
sS'rK'
p413
I1
sS'rt'
p414
I21084
sS'ru'
p415
I5731
sS'rv'
p416
I3557
sS'rw'
p417
I589
sS'rp'
p418
I5017
sS'rq'
p419
I3
sS'rr'
p420
I6832
sS'rs'
p421
I30620
sS'.3'
p422
I2947
sS'i>'
p423
I8
sS'rx'
p424
I9
sS'ry'
p425
I12081
sS'rz'
p426
I34
sS'rd'
p427
I8532
sS're'
p428
I85380
sS'rf'
p429
I465
sS'rg'
p430
I5959
sS'ra'
p431
I33458
sS'rb'
p432
I781
sS'rc'
p433
I7030
sS'rl'
p434
I4997
sS'rm'
p435
I8160
sS'rn'
p436
I9031
sS'ro'
p437
I41109
sS'rh'
p438
I211
sS'ri'
p439
I32120
sS'rj'
p440
I26
sS'rk'
p441
I6988
sS'VL'
p442
I35
sS't)'
p443
I132
sS'VM'
p444
I25
sS'W'
p445
I10175
sS'+ '
p446
I2
sS'-9'
p447
I29
sS'r>'
p448
I9
sS'r:'
p449
I1
sS'r;'
p450
I4
sS'+3'
p451
I1
sS'+2'
p452
I2
sS'+1'
p453
I6
sS"r'"
p454
I868
sS'r '
p455
I69415
sS'r"'
p456
I46
sS'r,'
p457
I4329
sS'r-'
p458
I1326
sS'r.'
p459
I3110
sS'r/'
p460
I71
sS'r)'
p461
I49
sS'i,'
p462
I174
sS'VV'
p463
I1
sS'>1'
p464
I2
sS'>2'
p465
I2
sS'"3'
p466
I1
sS'>4'
p467
I7
sS'>('
p468
I1
sS'>)'
p469
I2
sS't.'
p470
I3832
sS'>,'
p471
I766
sS'>-'
p472
I6
sS'>.'
p473
I396
sS'i '
p474
I1534
sS'> '
p475
I7449
sS">'"
p476
I26
sS'2'
p477
I29541
sS'B'
p478
I19007
sS'>P'
p479
I6
sS'>R'
p480
I1
sS'>S'
p481
I3
sS'>T'
p482
I1
sS'>U'
p483
I1
sS'>V'
p484
I1
sS'>W'
p485
I1
sS'>H'
p486
I1
sS'>A'
p487
I2
sS'>B'
p488
I4
sS'>C'
p489
I2
sS'>D'
p490
I2
sS'>G'
p491
I1
sS'Q5'
p492
I1
sS'Q4'
p493
I1
sS'Q>'
p494
I15
sS'Q '
p495
I68
sS"Q'"
p496
I3
sS'Q-'
p497
I2
sS'Q,'
p498
I4
sS'Q.'
p499
I1
sS't/'
p500
I44
sS'-'
p501
I15633
sS'Qu'
p502
I198
sS'Qt'
p503
I563
sS'VH'
p504
I13
sS'Kn'
p505
I34
sS'Qa'
p506
I46
sS' a'
p507
I109582
sS'Qi'
p508
I27
sS'Ql'
p509
I1
sS'QQ'
p510
I1
sS'QP'
p511
I7
sS'QS'
p512
I3
sS'QR'
p513
I7
sS'QU'
p514
I884
sS'QT'
p515
I2154
sS'QW'
p516
I1
sg16
I142327
sS'QA'
p517
I9
sS'QC'
p518
I4
sS'QB'
p519
I6
sS'QE'
p520
I5
sS'QD'
p521
I1
sS'QI'
p522
I10
sS'QK'
p523
I4
sS'QM'
p524
I4
sS'QL'
p525
I4
sS'QN'
p526
I2
sS'd.'
p527
I11050
sS'd/'
p528
I32
sS'd,'
p529
I3362
sS'd-'
p530
I662
sS'd)'
p531
I105
sS"d'"
p532
I472
sS'd"'
p533
I62
sS'd '
p534
I117538
sS'd>'
p535
I364
sS'd?'
p536
I1
sS'd:'
p537
I101
sS'd;'
p538
I4
sS'A/'
p539
I62
sS't,'
p540
I4379
sS'dn'
p541
I363
sS'do'
p542
I6920
sS'dl'
p543
I13722
sS'dm'
p544
I748
sS'dj'
p545
I733
sS'dk'
p546
I10
sS'dh'
p547
I108
sS'di'
p548
I21033
sS'df'
p549
I38
sS'dg'
p550
I979
sS'dd'
p551
I2613
sS'de'
p552
I36672
sS'db'
p553
I45
sS'dc'
p554
I106
sS'.A'
p555
I240
sS'da'
p556
I7934
sS'dz'
p557
I5
sS'dx'
p558
I1
sS'dy'
p559
I1292
sS'dv'
p560
I659
sS'X'
p561
I2102
sS'dt'
p562
I111
sS'du'
p563
I10387
sS'dr'
p564
I2087
sS'ds'
p565
I4227
sS'dp'
p566
I19
sS'dq'
p567
I61
sS'dO'
p568
I1
sS'dM'
p569
I6
sS'dF'
p570
I2
sS'dD'
p571
I1
sS'dE'
p572
I1
sS'dA'
p573
I8
sS'dV'
p574
I1
sS'dT'
p575
I4
sS'dS'
p576
I2
sS"w'"
p577
I43
sS'w"'
p578
I5
sS'w '
p579
I7214
sS'w/'
p580
I3
sS'w.'
p581
I404
sS'w-'
p582
I72
sS'w,'
p583
I301
sS'w)'
p584
I10
sS'w?'
p585
I2
sS'w;'
p586
I1
sS'w:'
p587
I1
sS'02'
p588
I560
sS'03'
p589
I685
sS'00'
p590
I25152
sS'01'
p591
I535
sS'06'
p592
I544
sS'07'
p593
I476
sS'04'
p594
I713
sS'05'
p595
I668
sS'0:'
p596
I4
sS'0;'
p597
I2
sS'08'
p598
I527
sS'09'
p599
I790
sS'0?'
p600
I1
sS'0"'
p601
I1
sS'0 '
p602
I23390
sg23
I409078
sS"0'"
p603
I18
sS'0)'
p604
I143
sS'0.'
p605
I3643
sS'0/'
p606
I283
sS'0,'
p607
I4034
sS'0-'
p608
I466
sS'wg'
p609
I1
sS'wf'
p610
I17
sS'C'
p611
I42810
sS'wd'
p612
I60
sS'wc'
p613
I12
sS'wb'
p614
I22
sS'wa'
p615
I10599
sS'0U'
p616
I1
sS'wo'
p617
I10034
sS'wn'
p618
I3320
sS'wm'
p619
I114
sS'wl'
p620
I248
sS'wk'
p621
I47
sS'wi'
p622
I15343
sS'wh'
p623
I8478
sS'ww'
p624
I2
sS'0C'
p625
I1
sS'wu'
p626
I4
sS'wt'
p627
I1110
sS'ws'
p628
I1360
sS'wr'
p629
I408
sS'0D'
p630
I3
sS'wp'
p631
I13
sS'0N'
p632
I1
sS'wy'
p633
I37
sS'0M'
p634
I1
sS'0s'
p635
I91
sS'0p'
p636
I58
sS'0t'
p637
I15
sS'0g'
p638
I1
sS' g'
p639
I12696
sS'C)'
p640
I261
sS'C/'
p641
I9
sS'C.'
p642
I329
sS'C-'
p643
I33
sS'C,'
p644
I153
sS'C"'
p645
I15
sS'C '
p646
I4126
sS"C'"
p647
I204
sS'C&'
p648
I12
sS'.'
p649
I99809
sS'C>'
p650
I704
sS'C3'
p651
I1
sS'C2'
p652
I1
sS'CK'
p653
I609
sS'CJ'
p654
I7
sS'CI'
p655
I1130
sS'CH'
p656
I1726
sS'CO'
p657
I5071
sS'CN'
p658
I107
sS'CM'
p659
I147
sS'CL'
p660
I447
sS'CC'
p661
I872
sS'CB'
p662
I161
sS'CA'
p663
I2010
sS'CG'
p664
I108
sS'CF'
p665
I95
sS'CE'
p666
I1679
sS'CD'
p667
I253
sS'CZ'
p668
I18
sS'CY'
p669
I286
sS'CX'
p670
I31
sS'CS'
p671
I476
sS'CR'
p672
I837
sS'CQ'
p673
I431
sS'CP'
p674
I246
sS'CW'
p675
I53
sS'CV'
p676
I29
sS'CU'
p677
I748
sS'CT'
p678
I2348
sS'Ci'
p679
I444
sS'Ch'
p680
I2014
sS'Co'
p681
I9551
sS'Cl'
p682
I415
sS'Ca'
p683
I2858
sS'Ce'
p684
I519
sg19
I422797
sS'Cz'
p685
I27
sS'Cy'
p686
I244
sS'Cs'
p687
I26
sS'Cr'
p688
I505
sS'xx'
p689
I87
sS'Cp'
p690
I1
sS'Cw'
p691
I2
sS'Cu'
p692
I427
sS'Ct'
p693
I4
sS'"d'
p694
I52
sS'"e'
p695
I50
sS'"f'
p696
I51
sS'"g'
p697
I34
sS'"a'
p698
I187
sS'"b'
p699
I71
sS'"c'
p700
I80
sS'"l'
p701
I33
sS'"m'
p702
I115
sS'"n'
p703
I59
sS'"o'
p704
I74
sS'iu'
p705
I582
sS'"i'
p706
I121
sS'"j'
p707
I7
sS'"k'
p708
I2
sS'"t'
p709
I213
sS'ih'
p710
I42
sS'"v'
p711
I27
sS'"w'
p712
I126
sS'"p'
p713
I70
sS'"q'
p714
I6
sS'io'
p715
I37107
sS'"s'
p716
I170
sS'ia'
p717
I14593
sS'ic'
p718
I28158
sS'ib'
p719
I2607
sS'ie'
p720
I13717
sS'id'
p721
I36010
sS'ig'
p722
I9731
sS'if'
p723
I4703
sS'V '
p724
I292
sS'iX'
p725
I11
sS'V"'
p726
I1
sS'"G'
p727
I32
sS'"A'
p728
I264
sS'"B'
p729
I213
sS"V'"
p730
I3
sS'iQ'
p731
I2
sS'"M'
p732
I86
sS'"N'
p733
I70
sS'"O'
p734
I128
sS'V,'
p735
I18
sS'iT'
p736
I12
sS'V.'
p737
I59
sS'"K'
p738
I5
sS'iI'
p739
I3
sS'"U'
p740
I28
sS'V2'
p741
I1
sS'iJ'
p742
I1
sS'iM'
p743
I5
sS'"Q'
p744
I1
sS'iO'
p745
I1
sS'"S'
p746
I123
sS'iA'
p747
I2
sS'iC'
p748
I11
sS'iB'
p749
I7
sS'"Y'
p750
I36
sS'iG'
p751
I1
sS'VA'
p752
I305
sS'VB'
p753
I17
sS'VC'
p754
I23
sS'VD'
p755
I9
sS'VE'
p756
I1627
sS'VF'
p757
I11
sS'VG'
p758
I13
sS'",'
p759
I8
sS'VI'
p760
I1033
sS'".'
p761
I13
sS'VK'
p762
I2
sS'"('
p763
I8
sS'")'
p764
I8
sS'VN'
p765
I18
sS'VO'
p766
I212
sS'VP'
p767
I2
sS'"5'
p768
I1
sS'VR'
p769
I57
sS'VS'
p770
I281
sS'VT'
p771
I28
sS'VU'
p772
I12
sS'"2'
p773
I1
sS'i.'
p774
I26
sS'VX'
p775
I27
sS'VY'
p776
I36
sS'VZ'
p777
I5
sS"i'"
p778
I34
sS'Va'
p779
I211
sS'Ve'
p780
I334
sS'Vi'
p781
I410
sS'Vl'
p782
I1
sS'Vo'
p783
I152
sS'Vr'
p784
I6
sS'Vs'
p785
I2
sS'Vt'
p786
I7
sS'Vu'
p787
I11
sS't-'
p788
I720
sS'5T'
p789
I1
sS'5P'
p790
I1
sS'5M'
p791
I2
sS'5E'
p792
I1
sS'5C'
p793
I1
sS'5t'
p794
I6
sS'5p'
p795
I110
sS'5c'
p796
I2
sS'5b'
p797
I1
sS'D'
p798
I22510
sg9
I244959
sS'59'
p799
I609
sS'58'
p800
I683
sS'5;'
p801
I1
sS'5:'
p802
I12
sS'55'
p803
I920
sS'54'
p804
I758
sS'57'
p805
I679
sS'56'
p806
I718
sS'51'
p807
I906
sS'50'
p808
I3583
sS'53'
p809
I756
sS'52'
p810
I847
sS'5-'
p811
I231
sS'5,'
p812
I2794
sS'5/'
p813
I453
sS'5.'
p814
I3360
sS'5)'
p815
I50
sS'5('
p816
I2
sS"5'"
p817
I38
sS'5 '
p818
I8930
sS'HZ'
p819
I3
sS'HX'
p820
I4
sS'HY'
p821
I50
sS'HR'
p822
I409
sS'HS'
p823
I138
sS'HP'
p824
I80
sS'HQ'
p825
I1
sS'HV'
p826
I37
sS'HW'
p827
I49
sS'HT'
p828
I257
sS'HU'
p829
I193
sS'HJ'
p830
I11
sS'HK'
p831
I71
sS'HH'
p832
I21
sS'HI'
p833
I924
sS'HN'
p834
I152
sS'HO'
p835
I838
sS'HL'
p836
I154
sS'HM'
p837
I87
sS'HB'
p838
I50
sS'HC'
p839
I57
sS'HA'
p840
I1519
sS'HF'
p841
I39
sS'HG'
p842
I20
sS'HD'
p843
I33
sS'HE'
p844
I1345
sS'Hy'
p845
I26
sS'Hr'
p846
I3
sS'Hs'
p847
I2
sS'Hv'
p848
I1
sS'Hw'
p849
I3
sS'/'
p850
I4521
sS'Hu'
p851
I448
sS'Hk'
p852
I14
sS'Hi'
p853
I287
sS'Ho'
p854
I1919
sS'Ha'
p855
I913
sS'He'
p856
I2333
sS'H>'
p857
I136
sg18
I420880
sS'9A'
p858
I1
sS'H)'
p859
I5
sS'H.'
p860
I179
sS'H/'
p861
I6
sS'H,'
p862
I10
sS'H-'
p863
I19
sS'H '
p864
I1997
sS'H&'
p865
I2
sS"H'"
p866
I7
sS'[G'
p867
I1
sS'[O'
p868
I2
sS'R'
p869
I44068
sS'Z'
p870
I1354
sS'vu'
p871
I32
sS'\xfcs'
p872
I1
sS'nA'
p873
I7
sS'nC'
p874
I136
sS'nD'
p875
I1
sS"'8"
p876
I14
sS"''"
p877
I1
sS"'&"
p878
I1
sS'\'"'
p879
I4
sS"' "
p880
I754
sS'nP'
p881
I1
sS"'."
p882
I1
sS"',"
p883
I5
sS'nT'
p884
I2
sS"')"
p885
I4
sS'nW'
p886
I4
sS'nh'
p887
I330
sS'ni'
p888
I15611
sS'nj'
p889
I217
sS'nk'
p890
I6473
sS'nl'
p891
I1646
sS'nm'
p892
I2096
sS'nn'
p893
I6534
sS'no'
p894
I14771
sS'na'
p895
I17408
sS'nb'
p896
I333
sS'nc'
p897
I22194
sS'nd'
p898
I49435
sS'ne'
p899
I33584
sS'nf'
p900
I2231
sS'ng'
p901
I41317
sS'nx'
p902
I20
sS'ny'
p903
I6789
sS'nz'
p904
I153
sS'mL'
p905
I53
sS'np'
p906
I131
sS'nq'
p907
I111
sS'nr'
p908
I318
sS'ns'
p909
I18902
sS'nt'
p910
I47432
sS'nu'
p911
I5869
sS'nv'
p912
I2926
sS'nw'
p913
I352
sS"'v"
p914
I75
sS"'u"
p915
I1
sS"'t"
p916
I406
sS'E'
p917
I53695
sS"'r"
p918
I133
sS"'p"
p919
I2
sS"'g"
p920
I2
sS"'f"
p921
I2
sS"'e"
p922
I1
sS"'d"
p923
I21
sS"'c"
p924
I2
sS"'b"
p925
I1
sS"'a"
p926
I3
sS"'o"
p927
I1
sS"'n"
p928
I3
sS"'m"
p929
I45
sS"'l"
p930
I39
sS"'i"
p931
I3
sS"'W"
p932
I2
sS'n)'
p933
I108
sS"'T"
p934
I8
sS'n,'
p935
I4134
sS'n-'
p936
I1205
sS'n.'
p937
I3040
sS'n/'
p938
I84
sS'n '
p939
I115089
sS'n"'
p940
I63
sS"n'"
p941
I1697
sS"'G"
p942
I1
sS'n:'
p943
I9
sS'n;'
p944
I6
sS"'C"
p945
I6
sS"'B"
p946
I5
sS'n>'
p947
I22
sS'n?'
p948
I3
sS"'O"
p949
I7
sS"'N"
p950
I35
sS"'M"
p951
I1
sS"'L"
p952
I50
sS"'K"
p953
I9
sS"'I"
p954
I5
sS"'H"
p955
I1
sS': '
p956
I1530
sS':"'
p957
I1
sS':4'
p958
I15
sS':5'
p959
I10
sS':0'
p960
I14
sS':1'
p961
I73
sS':2'
p962
I14
sS':3'
p963
I23
sS'0'
p964
I62811
sS'md'
p965
I64
sS':e'
p966
I1
sS'we'
p967
I12506
sS':t'
p968
I6
sS':I'
p969
I1
sS':D'
p970
I1
sS':F'
p971
I4
sS':B'
p972
I1
sS':C'
p973
I1
sg21
I136587
sS':Y'
p974
I1
sS':T'
p975
I1
sS':P'
p976
I1
sS':Q'
p977
I2
sS':S'
p978
I3
sS"M'"
p979
I31
sS'M '
p980
I1120
sS'M"'
p981
I1
sS'M-'
p982
I284
sS'M,'
p983
I42
sS'M/'
p984
I8
sS'M.'
p985
I135
sS'M)'
p986
I29
sS'mh'
p987
I10
sS'M7'
p988
I2
sS'M1'
p989
I17
sS'M0'
p990
I27
sS'M3'
p991
I45
sS'M2'
p992
I15
sS'M>'
p993
I232
sS'mv'
p994
I4
sS'Me'
p995
I1019
sS'Md'
p996
I3
sS'Mf'
p997
I2
sS'Ma'
p998
I4937
sS'Mc'
p999
I218
sS'Mb'
p1000
I1
sS'Ml'
p1001
I10
sS'Mo'
p1002
I1536
sS'SL'
p1003
I238
sS'Mi'
p1004
I2313
sS'Mk'
p1005
I2
sS'Mu'
p1006
I244
sS'Mt'
p1007
I92
sS'Mp'
p1008
I1
sS'Ms'
p1009
I5
sS'Mr'
p1010
I25
sS'['
p1011
I3
sS'My'
p1012
I54
sS'ME'
p1013
I2269
sS'MD'
p1014
I66
sS'MG'
p1015
I45
sS'MF'
p1016
I150
sS'MA'
p1017
I2291
sS'MC'
p1018
I396
sS'MB'
p1019
I277
sS'MM'
p1020
I374
sS'ML'
p1021
I669
sS'MO'
p1022
I1084
sS'MN'
p1023
I59
sS'MI'
p1024
I1192
sS'MH'
p1025
I55
sS'MK'
p1026
I21
sS'MJ'
p1027
I17
sS'MU'
p1028
I225
sS'MT'
p1029
I279
sS'MW'
p1030
I15
sS'MV'
p1031
I6
sS'MP'
p1032
I793
sS'MS'
p1033
I487
sS'MR'
p1034
I88
sS'mz'
p1035
I1
sS'MY'
p1036
I68
sS'MX'
p1037
I29
sS'uf'
p1038
I1038
sS'F'
p1039
I17989
sS's;'
p1040
I22
sS's:'
p1041
I52
sS',"'
p1042
I3449
sS's>'
p1043
I73
sS', '
p1044
I50178
sS',.'
p1045
I2
sS',,'
p1046
I1
sS',-'
p1047
I1
sS'1'
p1048
I51589
sS',7'
p1049
I1271
sS',4'
p1050
I1388
sS's('
p1051
I1
sS',2'
p1052
I1385
sS',3'
p1053
I1433
sS',0'
p1054
I11660
sS's,'
p1055
I11930
sS',>'
p1056
I1
sS's"'
p1057
I130
sS's!'
p1058
I1
sS's '
p1059
I172202
sS"s'"
p1060
I708
sS',;'
p1061
I1
sS',8'
p1062
I1318
sS',9'
p1063
I1249
sS',F'
p1064
I1
sS',D'
p1065
I2
sS'sX'
p1066
I1
sS',C'
p1067
I1
sS',O'
p1068
I1
sS',M'
p1069
I1
sS',W'
p1070
I2
sS',T'
p1071
I3
sS'?,'
p1072
I1
sS',S'
p1073
I2
sS'sL'
p1074
I13
sS'sC'
p1075
I53
sS'sB'
p1076
I1
sS'sA'
p1077
I22
sS'?"'
p1078
I17
sS'? '
p1079
I9
sS'sz'
p1080
I4
sS',d'
p1081
I1
sS'sx'
p1082
I1
sS',a'
p1083
I1
sS'ss'
p1084
I17888
sS'sr'
p1085
I120
sS'sq'
p1086
I53
sS'sp'
p1087
I6485
sS'sw'
p1088
I509
sS'sv'
p1089
I20
sS'su'
p1090
I13650
sS'st'
p1091
I52107
sg20
I9166
sS'sj'
p1092
I1
sS'si'
p1093
I20021
sS'sh'
p1094
I17150
sS'so'
p1095
I11995
sS'sn'
p1096
I251
sS'sm'
p1097
I2015
sS'sl'
p1098
I2238
sS'sc'
p1099
I3828
sS'sb'
p1100
I500
sS'sa'
p1101
I32897
sS'sg'
p1102
I26
sS'sf'
p1103
I476
sS'se'
p1104
I34425
sS'sd'
p1105
I458
sS'Ru'
p1106
I183
sS'Rw'
p1107
I3
sS'Rs'
p1108
I8
sS'Rx'
p1109
I7
sS'Ry'
p1110
I27
sS'Re'
p1111
I5877
sS'Ra'
p1112
I404
sS'Rc'
p1113
I1
sS'Ro'
p1114
I921
sS'Rh'
p1115
I60
sS'Ri'
p1116
I476
sS'Rj'
p1117
I1
sS'RT'
p1118
I1852
sS'RU'
p1119
I740
sS'RV'
p1120
I359
sS'RW'
p1121
I63
sS'RP'
p1122
I1385
sS'RQ'
p1123
I4
sS'RR'
p1124
I493
sS'RS'
p1125
I1973
sS'R^'
p1126
I11
sS'RX'
p1127
I23
sS'RY'
p1128
I786
sS'RZ'
p1129
I18
sS'RD'
p1130
I1132
sS'RE'
p1131
I4990
sS'RF'
p1132
I38
sS'RG'
p1133
I769
sS'RA'
p1134
I3381
sS'RB'
p1135
I153
sS'RC'
p1136
I834
sS'RL'
p1137
I505
sS'RM'
p1138
I753
sS'RN'
p1139
I807
sS'RO'
p1140
I2930
sS'RH'
p1141
I45
sS'RI'
p1142
I2882
sS'RJ'
p1143
I34
sS'RK'
p1144
I606
sS'R6'
p1145
I1
sS'R1'
p1146
I2
sS'R>'
p1147
I331
sS'R&'
p1148
I10
sS"R'"
p1149
I40
sS'R '
p1150
I7651
sS'R"'
p1151
I1
sS'R,'
p1152
I65
sS'R-'
p1153
I250
sS'R.'
p1154
I137
sS'R/'
p1155
I24
sS'R)'
p1156
I22
sS'em'
p1157
I14408
sS'L&'
p1158
I11
sS'eo'
p1159
I1351
sS'en'
p1160
I53146
sS'ei'
p1161
I6215
sS'eh'
p1162
I1729
sS'ek'
p1163
I2725
sS'ej'
p1164
I233
sS'ee'
p1165
I18834
sS'ed'
p1166
I54106
sS'eg'
p1167
I4299
sS'ef'
p1168
I6759
sS'ea'
p1169
I32403
sS'ec'
p1170
I25035
sS'eb'
p1171
I3497
sS'ey'
p1172
I5017
sS'ex'
p1173
I12806
sS'e{'
p1174
I1
sS'ez'
p1175
I365
sS'eu'
p1176
I1518
sS'et'
p1177
I24933
sS'ew'
p1178
I4814
sS'ev'
p1179
I11415
sS'eq'
p1180
I1815
sS'ep'
p1181
I8314
sS'es'
p1182
I65552
sS'er'
p1183
I91158
sS'eM'
p1184
I3
sS'eL'
p1185
I9
sS'eN'
p1186
I1
sS'eK'
p1187
I2
sS'eJ'
p1188
I1
sS'eG'
p1189
I2
sS'eF'
p1190
I1
sS'eC'
p1191
I2
sS'eB'
p1192
I12
sS'eW'
p1193
I27
sS'eP'
p1194
I4
sS'eS'
p1195
I2
sS'eR'
p1196
I7
sS'e-'
p1197
I1593
sS'e,'
p1198
I4705
sS'e/'
p1199
I31
sS'e.'
p1200
I3902
sS'e)'
p1201
I115
sS'G'
p1202
I15484
sS"e'"
p1203
I696
sS'e '
p1204
I179125
sS'e"'
p1205
I102
sS'e?'
p1206
I4
sS'e>'
p1207
I28
sS'e;'
p1208
I7
sS'e:'
p1209
I321
sS'e4'
p1210
I1
sS'e2'
p1211
I1
sS'u:'
p1212
I1
sS'1P'
p1213
I1
sS'xh'
p1214
I30
sS'xi'
p1215
I782
sS'xn'
p1216
I24
sS'1T'
p1217
I1
sS'1W'
p1218
I1
sS'xm'
p1219
I19
sS'xb'
p1220
I1
sS'xc'
p1221
I2851
sS'xa'
p1222
I660
sS'xf'
p1223
I5
sS'xd'
p1224
I2
sS'xe'
p1225
I1101
sS'1A'
p1226
I3
sS'1C'
p1227
I1
sS'1B'
p1228
I2
sS'1E'
p1229
I1
sS'1G'
p1230
I1
sS'xs'
p1231
I9
sS'xp'
p1232
I6847
sS'xw'
p1233
I18
sS'xt'
p1234
I2019
sS'xu'
p1235
I9
sS'1p'
p1236
I36
sS'1s'
p1237
I93
sS'xI'
p1238
I1
sS'1t'
p1239
I3
sS'.9'
p1240
I2579
sS'Pu'
p1241
I314
sS'1b'
p1242
I3
sS'x)'
p1243
I12
sS'x.'
p1244
I84
sS'x/'
p1245
I2
sS'x,'
p1246
I157
sS'x-'
p1247
I116
sS'x"'
p1248
I2
sS'x '
p1249
I3291
sS"x'"
p1250
I22
sS'Aj'
p1251
I8
sS'x>'
p1252
I1
sS"u'"
p1253
I63
sS'11'
p1254
I2208
sS'10'
p1255
I4335
sS'13'
p1256
I2095
sS'12'
p1257
I2582
sS'15'
p1258
I2881
sS'14'
p1259
I2137
sS'17'
p1260
I1836
sS'16'
p1261
I2015
sS'19'
p1262
I11619
sS'18'
p1263
I1743
sS'1;'
p1264
I1
sS'1:'
p1265
I15
sS'u '
p1266
I642
sS'1 '
p1267
I5826
sS'1"'
p1268
I1
sS"1'"
p1269
I1
sS'1)'
p1270
I30
sS'1-'
p1271
I245
sS'1,'
p1272
I4199
sS'1/'
p1273
I707
sS'1.'
p1274
I6440
sS'DN'
p1275
I80
sS'DO'
p1276
I640
sS'DL'
p1277
I764
sS'DM'
p1278
I97
sS'DJ'
p1279
I41
sS'DK'
p1280
I10
sS'DH'
p1281
I23
sS'DI'
p1282
I1774
sS'DF'
p1283
I21
sS'DG'
p1284
I75
sS'DD'
p1285
I142
sS'DE'
p1286
I2917
sS'DB'
p1287
I64
sS'DC'
p1288
I123
sS'DA'
p1289
I1433
sS'DZ'
p1290
I1
sS'DX'
p1291
I21
sS'DY'
p1292
I162
sS'DV'
p1293
I100
sS'DW'
p1294
I34
sS'DT'
p1295
I52
sS'DU'
p1296
I744
sS'DR'
p1297
I262
sS'DS'
p1298
I543
sS'DP'
p1299
I194
sS'DQ'
p1300
I2
sS'Do'
p1301
I747
sS'Dl'
p1302
I172
sS'Dj'
p1303
I2
sS'Dh'
p1304
I21
sS'Di'
p1305
I798
sS'De'
p1306
I3047
sS'Da'
p1307
I807
sS'Dy'
p1308
I47
sS'Dw'
p1309
I1
sS'Dt'
p1310
I1
sS'Du'
p1311
I480
sS'Dr'
p1312
I181
sS'Ds'
p1313
I24
sS'uP'
p1314
I7
sS'.G'
p1315
I18
sS']'
p1316
I3
sS'D.'
p1317
I126
sS'D/'
p1318
I5
sS'D,'
p1319
I45
sS'D-'
p1320
I116
sS'D)'
p1321
I52
sS'D&'
p1322
I9
sS"D'"
p1323
I67
sS'D"'
p1324
I1
sS'D '
p1325
I5134
sS'D>'
p1326
I306
sS'D:'
p1327
I1
sS'D1'
p1328
I1
sS'WG'
p1329
I38
sS'WF'
p1330
I29
sS'WE'
p1331
I820
sS'WD'
p1332
I14
sS'WC'
p1333
I62
sS'WB'
p1334
I53
sS'WA'
p1335
I864
sS'WO'
p1336
I444
sS'WN'
p1337
I188
sS'WM'
p1338
I55
sS'WL'
p1339
I52
sS'WK'
p1340
I25
sS'WJ'
p1341
I10
sS'WI'
p1342
I579
sS'WH'
p1343
I275
sS'WW'
p1344
I19
sS'WV'
p1345
I6
sS'WU'
p1346
I11
sS'WT'
p1347
I259
sS'WS'
p1348
I194
sS'WR'
p1349
I42
sS'WP'
p1350
I38
sS'WY'
p1351
I8
sS'WX'
p1352
I7
sS'We'
p1353
I2399
sS'Wa'
p1354
I1096
sS'Wo'
p1355
I568
sS'Wl'
p1356
I1
sS'Wk'
p1357
I47
sS'Wi'
p1358
I637
sS'Wh'
p1359
I476
sS'Wu'
p1360
I4
sS'Wr'
p1361
I37
sS'Wy'
p1362
I32
sS'H'
p1363
I14852
sS'ux'
p1364
I105
sS"W'"
p1365
I8
sS'W&'
p1366
I1
sS'W '
p1367
I592
sS'W/'
p1368
I1
sS'W.'
p1369
I68
sS'W-'
p1370
I1
sS'W,'
p1371
I12
sS'W)'
p1372
I8
sS'W5'
p1373
I1
sS'W2'
p1374
I1
sS'W1'
p1375
I1
sS'ut'
p1376
I19045
sS'W>'
p1377
I92
sS'uw'
p1378
I242
sS'uv'
p1379
I185
sS'j9'
p1380
I1
sS'up'
p1381
I6588
sS'VW'
p1382
I28
sS'j '
p1383
I15
sS'ul'
p1384
I15126
sS'3'
p1385
I25065
sS'ju'
p1386
I1384
sS'js'
p1387
I1
sS'ue'
p1388
I6655
sS'jn'
p1389
I5
sS'jo'
p1390
I1800
sS'ji'
p1391
I127
sS'jk'
p1392
I4
sS'je'
p1393
I1296
sS'ja'
p1394
I93
sg30
I4354
sS'ua'
p1395
I8924
sS'S'
p1396
I61685
sg22
I416068
sS'iv'
p1397
I11149
sS'Ad'
p1398
I282
sS'ub'
p1399
I3889
sS'6 '
p1400
I7184
sS'ys'
p1401
I3828
sS"6'"
p1402
I36
sS'6('
p1403
I1
sS'6)'
p1404
I37
sS'6,'
p1405
I2801
sS'6-'
p1406
I227
sS'6.'
p1407
I3227
sS'6/'
p1408
I518
sS'60'
p1409
I1570
sS'61'
p1410
I669
sS'62'
p1411
I661
sS'63'
p1412
I625
sS'64'
p1413
I754
sS'65'
p1414
I882
sS'66'
p1415
I689
sS'67'
p1416
I633
sS'68'
p1417
I659
sS'69'
p1418
I639
sS'6:'
p1419
I14
sS'6;'
p1420
I2
sS"'2"
p1421
I1
sS'mC'
p1422
I4
sS'6m'
p1423
I1
sS'6p'
p1424
I29
sS'6t'
p1425
I4
sS'nG'
p1426
I3
sS'^'
p1427
I17
sS'mB'
p1428
I5
sS'6K'
p1429
I4
sS'6N'
p1430
I1
sS'6T'
p1431
I1
sS'6W'
p1432
I1
sS'yh'
p1433
I23
sS'"h'
p1434
I36
sS'I>'
p1435
I329
sS'I)'
p1436
I59
sS'I-'
p1437
I52
sS'I,'
p1438
I41
sS'I.'
p1439
I105
sS'I '
p1440
I1316
sS"I'"
p1441
I99
sS'IY'
p1442
I32
sS'IX'
p1443
I146
sS'IZ'
p1444
I123
sS'I]'
p1445
I3
sS'I'
p1446
I43969
sS'IP'
p1447
I343
sS'IS'
p1448
I2356
sS'IR'
p1449
I1165
sS'IU'
p1450
I66
sS'IT'
p1451
I3148
sS'IW'
p1452
I116
sS'IV'
p1453
I902
sS'II'
p1454
I127
sS'IH'
p1455
I12
sS'IK'
p1456
I201
sS'IJ'
p1457
I7
sS'IM'
p1458
I761
sS'IL'
p1459
I2096
sS'IO'
p1460
I1931
sS'IN'
p1461
I8396
sS'IA'
p1462
I1613
sS'IC'
p1463
I2876
sS'IB'
p1464
I292
sS'IE'
p1465
I1063
sS'ID'
p1466
I1225
sS'IG'
p1467
I645
sS'IF'
p1468
I405
sS'Iz'
p1469
I5
sS'TX'
p1470
I92
sS'Ip'
p1471
I5
sS'Is'
p1472
I191
sS'Ir'
p1473
I749
sS'It'
p1474
I2408
sS'Iv'
p1475
I86
sS'Ii'
p1476
I8
sS'A)'
p1477
I127
sS'Ik'
p1478
I3
sS'Im'
p1479
I250
sS'Il'
p1480
I115
sS'Io'
p1481
I53
sS'In'
p1482
I7540
sS'Ia'
p1483
I16
sS'Ic'
p1484
I72
sS'Ib'
p1485
I9
sS'Ie'
p1486
I2
sS'Id'
p1487
I25
sS'Ig'
p1488
I12
sS'If'
p1489
I331
sS'(z'
p1490
I2
sS'(r'
p1491
I34
sS'(s'
p1492
I30
sS'(p'
p1493
I22
sS'(q'
p1494
I1
sS'(v'
p1495
I4
sS'(w'
p1496
I18
sS'(t'
p1497
I96
sS'(u'
p1498
I15
sS'(k'
p1499
I6
sS'(h'
p1500
I4
sS'(i'
p1501
I40
sS'(n'
p1502
I50
sS'(o'
p1503
I53
sS'(l'
p1504
I13
sS'(m'
p1505
I31
sS'(b'
p1506
I109
sS'(c'
p1507
I46
sS'(a'
p1508
I42
sS'(f'
p1509
I31
sS'(g'
p1510
I19
sS'(d'
p1511
I13
sS'(e'
p1512
I27
sS'(Z'
p1513
I3
sS'TN'
p1514
I120
sS'(X'
p1515
I2
sS'(Y'
p1516
I2
sS'(R'
p1517
I37
sS'(S'
p1518
I94
sS'(P'
p1519
I76
sS'(Q'
p1520
I4
sS'(V'
p1521
I4
sS'(W'
p1522
I18
sS'(T'
p1523
I31
sS'(U'
p1524
I61
sS'"u'
p1525
I27
sS'(K'
p1526
I17
sS'(H'
p1527
I20
sS'(I'
p1528
I175
sS'(N'
p1529
I74
sS'(O'
p1530
I61
sS'(L'
p1531
I42
sS'(M'
p1532
I83
sS'(B'
p1533
I39
sS'(C'
p1534
I185
sS'(A'
p1535
I95
sS'(F'
p1536
I55
sS'(G'
p1537
I166
sS'(D'
p1538
I67
sS'(E'
p1539
I166
sS'(8'
p1540
I15
sS'(9'
p1541
I26
sS'(2'
p1542
I82
sS'(3'
p1543
I63
sS'(0'
p1544
I27
sS'(1'
p1545
I168
sS'(6'
p1546
I31
sS'(7'
p1547
I15
sS'(4'
p1548
I66
sS'(5'
p1549
I39
sS'(+'
p1550
I7
sS'(-'
p1551
I7
sS'("'
p1552
I4
sS'cd'
p1553
I5
sS'TE'
p1554
I5662
sS'vd'
p1555
I8
sg25
I503830
sS'TA'
p1556
I2368
sS';s'
p1557
I2
sS'AA'
p1558
I71
sS';u'
p1559
I1
sS';c'
p1560
I1
sS';a'
p1561
I1
sS';e'
p1562
I2
sS"'s"
p1563
I9261
sS';m'
p1564
I1
sS';S'
p1565
I779
sS';R'
p1566
I346
sS'o-'
p1567
I562
sS'o,'
p1568
I792
sS';W'
p1569
I246
sS';V'
p1570
I139
sS';U'
p1571
I233
sS';T'
p1572
I464
sS"o'"
p1573
I190
sS';Z'
p1574
I27
sS';Y'
p1575
I17
sS';X'
p1576
I69
sS'o"'
p1577
I6
sS'o '
p1578
I47670
sS';C'
p1579
I968
sS'o>'
p1580
I87
sS';A'
p1581
I711
sS';G'
p1582
I394
sS';F'
p1583
I346
sS';E'
p1584
I242
sS';D'
p1585
I391
sS';K'
p1586
I142
sS';J'
p1587
I104
sS';I'
p1588
I266
sS';H'
p1589
I383
sS';O'
p1590
I136
sS';N'
p1591
I381
sS';M'
p1592
I568
sS';L'
p1593
I193
sS'oM'
p1594
I2
sS'oL'
p1595
I1
sS';7'
p1596
I1
sS';5'
p1597
I2
sS'oG'
p1598
I1
sS'oF'
p1599
I2
sS'mV'
p1600
I1
sS'oC'
p1601
I1
sS'AL'
p1602
I3938
sS'; '
p1603
I68
sS'AN'
p1604
I6268
sS'oS'
p1605
I3
sS'oR'
p1606
I4
sS'_'
p1607
I1
sS'oo'
p1608
I4669
sS'on'
p1609
I78730
sS'om'
p1610
I32026
sS'ol'
p1611
I15101
sS'ok'
p1612
I2719
sS'oj'
p1613
I435
sS'oi'
p1614
I5006
sS'oh'
p1615
I403
sS'og'
p1616
I1679
sS'of'
p1617
I45852
sS'oe'
p1618
I927
sS'od'
p1619
I9524
sS'oc'
p1620
I6941
sS'ob'
p1621
I2513
sS'oa'
p1622
I4006
sS'AR'
p1623
I4768
sS'oz'
p1624
I108
sS'oy'
p1625
I1608
sS'ox'
p1626
I297
sS'ow'
p1627
I13154
sS'ov'
p1628
I10535
sS'ou'
p1629
I33651
sS'ot'
p1630
I14687
sS'os'
p1631
I16985
sS'or'
p1632
I58665
sS'oq'
p1633
I7
sS'op'
p1634
I10709
sS'Nh'
p1635
I2
sS'Ni'
p1636
I901
sS'No'
p1637
I1817
sS'Na'
p1638
I1066
sS'AV'
p1639
I400
sS'Nd'
p1640
I2
sS'Ne'
p1641
I4756
sS'Ng'
p1642
I1
sS'AY'
p1643
I1787
sS'AX'
p1644
I216
sS'Ns'
p1645
I1
sS'Nt'
p1646
I5
sS'Nu'
p1647
I57
sS'Nv'
p1648
I3
sS'NH'
p1649
I37
sS'NI'
p1650
I1675
sS'NJ'
p1651
I16
sS'NK'
p1652
I801
sS'NL'
p1653
I129
sS'NM'
p1654
I90
sS'NN'
p1655
I396
sS'NO'
p1656
I2057
sS'NA'
p1657
I1933
sS'NB'
p1658
I114
sS'NC'
p1659
I2717
sS'ND'
p1660
I2780
sS'NE'
p1661
I4184
sS'NF'
p1662
I182
sS'NG'
p1663
I2272
sS'NX'
p1664
I6
sS'NY'
p1665
I197
sS'NZ'
p1666
I105
sS'NP'
p1667
I239
sS'NQ'
p1668
I11
sS'NR'
p1669
I121
sS'NS'
p1670
I1512
sS'NT'
p1671
I2621
sS'NU'
p1672
I367
sS'NV'
p1673
I274
sS'NW'
p1674
I77
sS'N)'
p1675
I15
sS'N,'
p1676
I114
sS'N-'
p1677
I54
sS'N.'
p1678
I392
sS'N/'
p1679
I40
sS'N '
p1680
I7679
sS'j,'
p1681
I3
sS'J'
p1682
I8490
sS'N&'
p1683
I13
sS"N'"
p1684
I112
sS'N>'
p1685
I406
sS"'S"
p1686
I382
sS'N2'
p1687
I1
sS'N6'
p1688
I1
sS"'R"
p1689
I9
sS"'P"
p1690
I3
sS'>'
p1691
I8687
sS'aa'
p1692
I99
sS'ac'
p1693
I15056
sS'ab'
p1694
I8537
sS'ae'
p1695
I346
sS'ad'
p1696
I18061
sS'ag'
p1697
I11207
sS'af'
p1698
I3288
sS'ai'
p1699
I39885
sS'ah'
p1700
I595
sS'ak'
p1701
I5419
sS'aj'
p1702
I1139
sS'am'
p1703
I6229
sS'al'
p1704
I47401
sS'ao'
p1705
I461
sS'an'
p1706
I90868
sS'aq'
p1707
I209
sS'ap'
p1708
I7604
sS'as'
p1709
I36059
sS'ar'
p1710
I65045
sS'au'
p1711
I3807
sS'at'
p1712
I52739
sS'aw'
p1713
I1829
sS'av'
p1714
I6435
sS'"y'
p1715
I4
sS'ax'
p1716
I2067
sS'az'
p1717
I1070
sS'a~'
p1718
I1
sS'aA'
p1719
I5
sS'aC'
p1720
I17
sS'aB'
p1721
I1
sS'aG'
p1722
I2
sS'aF'
p1723
I1
sS"'E"
p1724
I11
sS'aN'
p1725
I1
sS'aP'
p1726
I1
sS'aS'
p1727
I2
sS'aR'
p1728
I2
sS'5'
p1729
I26455
sS'aW'
p1730
I2
sS'aV'
p1731
I1
sS'Au'
p1732
I932
sS'a '
p1733
I30072
sS'a"'
p1734
I35
sS"'A"
p1735
I10
sS"a'"
p1736
I791
sS'a)'
p1737
I35
sS'a('
p1738
I1
sS'a-'
p1739
I158
sS'a,'
p1740
I1182
sS'a/'
p1741
I34
sS'a.'
p1742
I613
sS'a:'
p1743
I2
sS'a>'
p1744
I28
sS'"D'
p1745
I38
sg24
I149903
sS'-E'
p1746
I79
sS'-D'
p1747
I127
sS'-G'
p1748
I97
sS'-F'
p1749
I215
sS'-A'
p1750
I237
sS'-C'
p1751
I252
sS'-B'
p1752
I145
sS'-M'
p1753
I223
sS'-L'
p1754
I83
sS'tT'
p1755
I1
sS'-N'
p1756
I41
sS'tR'
p1757
I5
sS'-H'
p1758
I64
sS'-K'
p1759
I58
sS'-J'
p1760
I128
sS'-U'
p1761
I70
sS'-T'
p1762
I131
sS'tL'
p1763
I9
sS'-V'
p1764
I23
sS'-Q'
p1765
I19
sS'-P'
p1766
I136
sS'tH'
p1767
I1
sS'tI'
p1768
I1
sS' f'
p1769
I45538
sS'-Y'
p1770
I24
sS'tC'
p1771
I5
sS'-Z'
p1772
I14
sS'-e'
p1773
I259
sS'-d'
p1774
I448
sS'-g'
p1775
I73
sS'-f'
p1776
I582
sS'tz'
p1777
I277
sS'-c'
p1778
I351
sS'ty'
p1779
I4983
sS'tv'
p1780
I16
sS'-l'
p1781
I147
sS'-o'
p1782
I822
sS'-n'
p1783
I68
sS'-i'
p1784
I139
sS'-h'
p1785
I175
sS'-k'
p1786
I35
sS'-j'
p1787
I6
sS'-u'
p1788
I135
sS'-t'
p1789
I1040
sS'tl'
p1790
I3415
sS'-v'
p1791
I37
sS'-q'
p1792
I62
sS'tk'
p1793
I15
sS'-s'
p1794
I389
sS'-r'
p1795
I299
sS'tf'
p1796
I333
sS'tg'
p1797
I1289
sS'td'
p1798
I1258
sS'te'
p1799
I55269
sS'-y'
p1800
I450
sS'-x'
p1801
I15
sS'-z'
p1802
I10
sS' o'
p1803
I72164
sS' l'
p1804
I22900
sS'/C'
p1805
I45
sS' m'
p1806
I46984
sS't>'
p1807
I8
sS't?'
p1808
I6
sS'-&'
p1809
I2
sS't:'
p1810
I10
sS'- '
p1811
I1957
sS' s'
p1812
I85799
sS'--'
p1813
I875
sS'-.'
p1814
I1
sS'-)'
p1815
I1
sS'ge'
p1816
I14987
sS'-5'
p1817
I114
sS'-4'
p1818
I36
sS'-7'
p1819
I193
sS'-6'
p1820
I51
sS'-1'
p1821
I1264
sS'-0'
p1822
I10
sS'-3'
p1823
I404
sS'-2'
p1824
I190
sS'/B'
p1825
I81
sS"t'"
p1826
I862
sS't"'
p1827
I82
sS'-8'
p1828
I62
sS't '
p1829
I112670
sS' w'
p1830
I44128
sS' t'
p1831
I140036
sS'go'
p1832
I5648
sS'/A'
p1833
I45
sS'gm'
p1834
I158
sS' y'
p1835
I8986
sS'cn'
p1836
I13
sS'K'
p1837
I7641
sS'vy'
p1838
I313
sS'gP'
p1839
I8
sS'S:'
p1840
I12
sS'S>'
p1841
I457
sS'va'
p1842
I4117
sS'S1'
p1843
I1
sS'S0'
p1844
I1
sS'S4'
p1845
I1
sS'S)'
p1846
I47
sS'vc'
p1847
I10
sS'S/'
p1848
I148
sS'S.'
p1849
I5943
sS'S-'
p1850
I72
sS'S,'
p1851
I231
sS'S"'
p1852
I2
sS'S '
p1853
I15031
sS"S'"
p1854
I28
sS'S&'
p1855
I19
sS've'
p1856
I33059
sS'vg'
p1857
I1100
sS'6'
p1858
I21869
sS'Sz'
p1859
I3
sS'Sy'
p1860
I347
sS'Sr'
p1861
I47
sS'Sq'
p1862
I17
sS'Sp'
p1863
I574
sS'Sw'
p1864
I378
sS'Sv'
p1865
I5
sS'Su'
p1866
I946
sS'St'
p1867
I2522
sS'Sk'
p1868
I21
sS'Si'
p1869
I807
sS'Sh'
p1870
I4250
sS'So'
p1871
I1997
sS'Sn'
p1872
I35
sS'Sm'
p1873
I153
sS'Sl'
p1874
I64
sS'Sc'
p1875
I346
sS'Sa'
p1876
I2424
sS'Se'
p1877
I2629
sS'Sd'
p1878
I2
sS'SZ'
p1879
I18
sS'SY'
p1880
I249
sS'SX'
p1881
I83
sS'SS'
p1882
I1567
sS'SR'
p1883
I330
sS'SQ'
p1884
I11
sS'SP'
p1885
I698
sS'SW'
p1886
I175
sS'SV'
p1887
I25
sS'SU'
p1888
I1141
sS'ST'
p1889
I5193
sS'SK'
p1890
I110
sS'SJ'
p1891
I8
sS'SI'
p1892
I1341
sS'SH'
p1893
I1243
sS'SO'
p1894
I1209
sS'SN'
p1895
I100
sS'SM'
p1896
I226
sg27
I67596
sS'SC'
p1897
I463
sS'SB'
p1898
I201
sS'SA'
p1899
I2355
sS'SG'
p1900
I70
sS'SF'
p1901
I86
sS'SE'
p1902
I4348
sS'SD'
p1903
I637
sS'vv'
p1904
I1
sS'f:'
p1905
I1
sS'  '
p1906
I390263
sS'f '
p1907
I39986
sS'f"'
p1908
I2
sS"f'"
p1909
I19
sS'f)'
p1910
I6
sS'f,'
p1911
I185
sS'f-'
p1912
I122
sS'f.'
p1913
I242
sS'f/'
p1914
I3
sS'!'
p1915
I3
sS'TL'
p1916
I377
sS' +'
p1917
I6
sS'+7'
p1918
I1
sS'fp'
p1919
I1
sS'fr'
p1920
I9780
sS'fs'
p1921
I648
sS'ft'
p1922
I3177
sS'+5'
p1923
I1
sS'fv'
p1924
I3
sS'fw'
p1925
I4
sS'fy'
p1926
I251
sS'fz'
p1927
I1
sS'g:'
p1928
I13
sS'fa'
p1929
I4900
sS'fb'
p1930
I3
sS'fc'
p1931
I3
sS'fd'
p1932
I2
sS'fe'
p1933
I9052
sS'ff'
p1934
I9848
sS'fg'
p1935
I4
sS'fh'
p1936
I4
sS'fi'
p1937
I18722
sS'fj'
p1938
I5
sS'fk'
p1939
I16
sS'fl'
p1940
I2352
sS'fm'
p1941
I31
sS'fn'
p1942
I6
sS'fo'
p1943
I21365
sg5
I469854
sS"g'"
p1944
I89
sS'P'
p1945
I23473
sS')'
p1946
I2884
sS'fG'
p1947
I10
sS'r+'
p1948
I1
sS' 7'
p1949
I3963
sS'y)'
p1950
I40
sS'y-'
p1951
I514
sS'y,'
p1952
I4000
sS'y/'
p1953
I89
sS'y.'
p1954
I3089
sS'y '
p1955
I53808
sS'y"'
p1956
I72
sS"y'"
p1957
I1782
sS'"V'
p1958
I2
sS'g/'
p1959
I20
sS'y;'
p1960
I1
sS'y:'
p1961
I3
sS'y?'
p1962
I2
sS'y>'
p1963
I7
sS'g-'
p1964
I383
sS'24'
p1965
I1353
sS'25'
p1966
I2321
sS'26'
p1967
I1180
sS'27'
p1968
I1259
sS'20'
p1969
I2914
sS'21'
p1970
I1288
sS'22'
p1971
I1451
sS'23'
p1972
I1349
sS'28'
p1973
I1498
sS'29'
p1974
I1081
sS'2:'
p1975
I4
sS"2'"
p1976
I1
sS'2 '
p1977
I5938
sS'2,'
p1978
I3046
sS'2-'
p1979
I216
sS'2.'
p1980
I4201
sS'2/'
p1981
I75
sS'2('
p1982
I2
sS'2)'
p1983
I36
sS'yi'
p1984
I1457
sS'2U'
p1985
I2
sS'yk'
p1986
I14
sS'>3'
p1987
I2
sS'ym'
p1988
I1170
sS'yl'
p1989
I236
sS'yo'
p1990
I854
sS'yn'
p1991
I567
sS'ya'
p1992
I975
sS'yc'
p1993
I265
sS'yb'
p1994
I521
sS'ye'
p1995
I9887
sS'yd'
p1996
I182
sS'yg'
p1997
I12
sS'yf'
p1998
I133
sS'yx'
p1999
I7
sS'yz'
p2000
I26
sS'2A'
p2001
I3
sS'2B'
p2002
I1
sS'2C'
p2003
I1
sS'yq'
p2004
I7
sS'yp'
p2005
I205
sS'2N'
p2006
I237
sS'yr'
p2007
I174
sS'yu'
p2008
I38
sS'2I'
p2009
I1
sS'yw'
p2010
I88
sS'yv'
p2011
I5
sS'2t'
p2012
I9
sS'2p'
p2013
I42
sS'yO'
p2014
I2
sS'+9'
p2015
I1
sS'yC'
p2016
I1
sS'yB'
p2017
I2
sS'yF'
p2018
I2
sS'2c'
p2019
I1
sS'2n'
p2020
I31
sS'yT'
p2021
I4
sS'>/'
p2022
I2
sS'E-'
p2023
I94
sS'E,'
p2024
I127
sS'E/'
p2025
I15
sS'E.'
p2026
I211
sS'E)'
p2027
I43
sS"E'"
p2028
I38
sS'E&'
p2029
I10
sS'E '
p2030
I6979
sS'E"'
p2031
I4
sS'IQ'
p2032
I38
sS'E>'
p2033
I226
sS'7'
p2034
I20395
sS'E:'
p2035
I1064
sS'E1'
p2036
I3
sS'EM'
p2037
I960
sS'EL'
p2038
I1850
sS'EO'
p2039
I196
sS'EN'
p2040
I3743
sS'EI'
p2041
I372
sS'EH'
p2042
I78
sS'EK'
p2043
I366
sS'EJ'
p2044
I62
sS'EE'
p2045
I1862
sS'ED'
p2046
I2178
sS'EG'
p2047
I396
sS'EF'
p2048
I432
sS'EA'
p2049
I2515
sS'EC'
p2050
I3502
sS'EB'
p2051
I626
sS'"'
p2052
I11978
sS'EY'
p2053
I486
sS'EX'
p2054
I1005
sS'EZ'
p2055
I36
sS'EU'
p2056
I237
sS'ET'
p2057
I3704
sS'EW'
p2058
I373
sS'EV'
p2059
I370
sS'EQ'
p2060
I77
sS'EP'
p2061
I760
sS'ES'
p2062
I6074
sS'ER'
p2063
I6757
sS'Em'
p2064
I194
sS'El'
p2065
I308
sS'En'
p2066
I962
sS'Ei'
p2067
I50
sS'Ek'
p2068
I9
sS'Ed'
p2069
I233
sS'Eg'
p2070
I76
sS'Ef'
p2071
I11
sS'Ea'
p2072
I543
sS'Ec'
p2073
I704
sS'Eb'
p2074
I7
sS'Ey'
p2075
I16
sS'Ex'
p2076
I1315
sg26
I71792
sS'Ez'
p2077
I1
sS'Eu'
p2078
I941
sS'Et'
p2079
I26
sS'Ew'
p2080
I4
sS'Ev'
p2081
I100
sS'Eq'
p2082
I134
sS'Ep'
p2083
I5
sS'Es'
p2084
I145
sS'fu'
p2085
I3605
sS'zo'
p2086
I198
sS'X)'
p2087
I13
sS'X.'
p2088
I41
sS'X,'
p2089
I27
sS'X-'
p2090
I34
sS'X"'
p2091
I1
sS'X '
p2092
I546
sS'X&'
p2093
I1
sS"X'"
p2094
I9
sS'X>'
p2095
I232
sS'ze'
p2096
I1377
sS'X2'
p2097
I1
sS'X1'
p2098
I1
sS'XJ'
p2099
I3
sS'XH'
p2100
I9
sS'XI'
p2101
I53
sS'XN'
p2102
I18
sS'XO'
p2103
I89
sS'XL'
p2104
I20
sS'XM'
p2105
I7
sS'XB'
p2106
I2
sS'XC'
p2107
I93
sS'XA'
p2108
I93
sS'XF'
p2109
I9
sS'XG'
p2110
I2
sS'XE'
p2111
I52
sS'XX'
p2112
I25
sS'XY'
p2113
I23
sS'XR'
p2114
I17
sS'XS'
p2115
I6
sS'XP'
p2116
I503
sS'$2'
p2117
I1
sS'XW'
p2118
I3
sS'XT'
p2119
I99
sS'XU'
p2120
I4
sg7
I77505
sS'Xc'
p2121
I1
sS'Xa'
p2122
I1
sS'Xe'
p2123
I22
sS';Q'
p2124
I35
sS'Xu'
p2125
I29
sS'~y'
p2126
I1
sS'zz'
p2127
I120
sS'7a'
p2128
I2
sS'7t'
p2129
I4
sS';P'
p2130
I500
sS'7p'
p2131
I39
sS'7G'
p2132
I3
sS'k"'
p2133
I11
sS'7E'
p2134
I1
sS'k '
p2135
I10484
sS"k'"
p2136
I463
sS'7B'
p2137
I2
sS'7A'
p2138
I5
sS'7O'
p2139
I1
sS'7N'
p2140
I2
sS'k)'
p2141
I9
sS'7L'
p2142
I1
sS'k/'
p2143
I15
sS'k.'
p2144
I776
sS'k-'
p2145
I81
sS'k,'
p2146
I921
sS'7W'
p2147
I2
sS'7U'
p2148
I6
sS'7T'
p2149
I2
sS'7S'
p2150
I4
sS'3D'
p2151
I2
sS'k>'
p2152
I35
sS"7'"
p2153
I5
sS'7&'
p2154
I1
sS'kA'
p2155
I28
sS'7"'
p2156
I1
sS'kE'
p2157
I3
sS'7 '
p2158
I6826
sS'7/'
p2159
I343
sS'7.'
p2160
I2839
sS'7-'
p2161
I265
sS'7,'
p2162
I2257
sS'M'
p2163
I23405
sS'7)'
p2164
I50
sS'77'
p2165
I642
sS'76'
p2166
I633
sS'75'
p2167
I1285
sS'74'
p2168
I619
sS'73'
p2169
I661
sS'72'
p2170
I685
sS'71'
p2171
I623
sS'70'
p2172
I1255
sS'7;'
p2173
I3
sS'7:'
p2174
I18
sS'79'
p2175
I599
sS'78'
p2176
I700
sS'i3'
p2177
I1
sS'kb'
p2178
I55
sS'ka'
p2179
I737
sS'kg'
p2180
I35
sS'kf'
p2181
I111
sS'ke'
p2182
I13476
sS'kd'
p2183
I67
sS'kk'
p2184
I45
sS'ki'
p2185
I2670
sS'kh'
p2186
I192
sS'ko'
p2187
I241
sS'kn'
p2188
I386
sS'km'
p2189
I147
sS'kl'
p2190
I442
sS'ks'
p2191
I3632
sS'kr'
p2192
I116
sS'kp'
p2193
I48
sS'kw'
p2194
I108
sS'kv'
p2195
I8
sS'ku'
p2196
I86
sS'kt'
p2197
I20
sS'kz'
p2198
I13
sS'ky'
p2199
I375
sS'JY'
p2200
I1
sS'JT'
p2201
I4
sS'JU'
p2202
I116
sS'JV'
p2203
I2
sS'JW'
p2204
I36
sS'JP'
p2205
I24
sS'JR'
p2206
I20
sS'JS'
p2207
I2
sS'JL'
p2208
I2
sS'JM'
p2209
I7
sS'JN'
p2210
I10
sS'JO'
p2211
I175
sS'JH'
p2212
I3
sS'JI'
p2213
I32
sS'JK'
p2214
I1
sS'JE'
p2215
I112
sS'JG'
p2216
I1
sS'JA'
p2217
I819
sS'JB'
p2218
I4
sS'JC'
p2219
I13
sS'Ju'
p2220
I1295
sS'Jr'
p2221
I20
sS'Jn'
p2222
I2
sS'Jo'
p2223
I488
sS'Ji'
p2224
I56
sS'8'
p2225
I28055
sS'$1'
p2226
I2
sS'Ja'
p2227
I4765
sS'Xi'
p2228
I13
sS'BK'
p2229
I99
sS'J>'
p2230
I51
sS'""'
p2231
I1
sS'J,'
p2232
I7
sS'J-'
p2233
I20
sS'J.'
p2234
I147
sS'J)'
p2235
I13
sg29
I18466
sS"J'"
p2236
I2
sS'J '
p2237
I54
sS'Y'
p2238
I9217
sS'L'
p2239
I26147
sg6
I192985
sS'] '
p2240
I3
sS'):'
p2241
I3
sS')>'
p2242
I5
sS'pY'
p2243
I2
sS'i-'
p2244
I240
sS'p_'
p2245
I1
sS'pA'
p2246
I22
sS')-'
p2247
I9
sS'),'
p2248
I560
sS')/'
p2249
I1
sS').'
p2250
I215
sS') '
p2251
I2088
sS')"'
p2252
I2
sS")'"
p2253
I1
sS'pr'
p2254
I29937
sS'(J'
p2255
I43
sS'pp'
p2256
I5478
sS'pw'
p2257
I101
sS'pt'
p2258
I3047
sS'pu'
p2259
I4353
sS'px'
p2260
I1
sS'py'
p2261
I90
sS'pb'
p2262
I58
sS'pc'
p2263
I9133
sS'pa'
p2264
I18928
sS'pf'
p2265
I30
sS'pg'
p2266
I30
sS'pd'
p2267
I501
sS'pe'
p2268
I20360
sS'pk'
p2269
I2
sS'ph'
p2270
I874
sS'pi'
p2271
I3406
sS'pn'
p2272
I7
sS'po'
p2273
I17623
sS'pl'
p2274
I9282
sS'4'
p2275
I21149
sS'i/'
p2276
I3
sS'N'
p2277
I42380
sS'p;'
p2278
I10
sS'p>'
p2279
I219
sS'p"'
p2280
I14
sS'p '
p2281
I8949
sS"p'"
p2282
I301
sS'p*'
p2283
I2
sS'p)'
p2284
I23
sS'p.'
p2285
I498
sS'p/'
p2286
I4
sS'p,'
p2287
I733
sS'p-'
p2288
I40
sS'9'
p2289
I25459
sS'7F'
p2290
I2
sS'7D'
p2291
I1
sg28
I84335
sS'7M'
p2292
I2
sS'O/'
p2293
I8
sS'O.'
p2294
I161
sS'O-'
p2295
I78
sS'O,'
p2296
I51
sS'O)'
p2297
I97
sS"O'"
p2298
I83
sS'O&'
p2299
I5
sS'O"'
p2300
I1
sS'O '
p2301
I3917
sS'O>'
p2302
I799
sS'7I'
p2303
I1
sS'7H'
p2304
I2
sS'O2'
p2305
I1
sS'$'
p2306
I3
sS'"1'
p2307
I2
sS'On'
p2308
I621
sS'Om'
p2309
I31
sS'Ol'
p2310
I58
sS'Ok'
p2311
I64
sS'Oi'
p2312
I352
sS'Oh'
p2313
I70
sS'Og'
p2314
I5
sS'Of'
p2315
I352
sS'Oe'
p2316
I7
sS'Od'
p2317
I13
sS'Oc'
p2318
I447
sS'Ob'
p2319
I17
sS'Oa'
p2320
I53
sS'Oz'
p2321
I6
sS'Oy'
p2322
I10
sS'Ox'
p2323
I6
sS'Ow'
p2324
I32
sS'Ov'
p2325
I109
sS'Ou'
p2326
I154
sS'Ot'
p2327
I231
sS'Os'
p2328
I33
sS'Or'
p2329
I410
sS'Oq'
p2330
I1
sS'Op'
p2331
I1268
sS'OO'
p2332
I430
sS'ON'
p2333
I5051
sS'OM'
p2334
I1575
sS'OL'
p2335
I1371
sS'OK'
p2336
I179
sS'OJ'
p2337
I41
sS'OI'
p2338
I631
sS'OH'
p2339
I78
sS'OG'
p2340
I178
sS'OF'
p2341
I1656
sS'OE'
p2342
I261
sS'OD'
p2343
I501
sS'OC'
p2344
I721
sS'OB'
p2345
I251
sS'OA'
p2346
I443
sS'7Z'
p2347
I2
sS'OZ'
p2348
I13
sS'OY'
p2349
I248
sS'OX'
p2350
I57
sS'OW'
p2351
I867
sS'OV'
p2352
I581
sS'OU'
p2353
I1896
sS'OT'
p2354
I1838
sS'OS'
p2355
I1550
sS'OR'
p2356
I5151
sS'OQ'
p2357
I3
sS'OP'
p2358
I1383
sS"b'"
p2359
I8
sS'b '
p2360
I580
sS'b,'
p2361
I48
sS'b-'
p2362
I11
sS'b.'
p2363
I38
sS'b/'
p2364
I2
sS'b)'
p2365
I1
sS'b>'
p2366
I3
sS'FN'
p2367
I45
sS'bd'
p2368
I53
sS'be'
p2369
I20466
sS'ba'
p2370
I9170
sS'bb'
p2371
I451
sS'bc'
p2372
I139
sS'bl'
p2373
I6179
sS'bm'
p2374
I102
sS'bn'
p2375
I13
sS'bo'
p2376
I7680
sS'bh'
p2377
I2
sS'bi'
p2378
I10163
sS'O'
p2379
I36505
sS'bt'
p2380
I1110
sS'bu'
p2381
I7627
sS'bv'
p2382
I48
sS'bw'
p2383
I36
sS'bp'
p2384
I474
sS'br'
p2385
I3627
sS'bs'
p2386
I1864
sS'by'
p2387
I7103
sS' c'
p2388
I56157
sS'kR'
p2389
I2
sS'bL'
p2390
I1
sS'bH'
p2391
I13
sS'kW'
p2392
I1
sS'.('
p2393
I8
sS'.)'
p2394
I91
sS'.*'
p2395
I1
sS'.+'
p2396
I1
sS'.,'
p2397
I525
sS'.-'
p2398
I168
sS'..'
p2399
I1595
sS'./'
p2400
I23
sS'. '
p2401
I55944
sS'."'
p2402
I1646
sS'.&'
p2403
I3
sS".'"
p2404
I18
sS'u-'
p2405
I16
sS'u,'
p2406
I54
sS'u.'
p2407
I22
sS'u)'
p2408
I17
sS'.>'
p2409
I46
sS'.?'
p2410
I1
sS'.0'
p2411
I3043
sS'.1'
p2412
I3242
sS'.2'
p2413
I3384
sS':'
p2414
I1703
sS'.4'
p2415
I2737
sS'.5'
p2416
I4278
sS'.6'
p2417
I2811
sS'.7'
p2418
I2958
sS'.H'
p2419
I87
sS'.I'
p2420
I22
sS'.J'
p2421
I70
sS'.K'
p2422
I688
sS'.L'
p2423
I256
sS'.M'
p2424
I76
sS'.N'
p2425
I101
sS'.O'
p2426
I596
sS'uT'
p2427
I2
sS'.B'
p2428
I52
sS'.C'
p2429
I104
sS'.D'
p2430
I30
sS'.E'
p2431
I22
sS'.F'
p2432
I175
sS'uR'
p2433
I6
sS'.X'
p2434
I1
sS'.Y'
p2435
I47
sS'.Z'
p2436
I90
sS'TY'
p2437
I372
sS'.^'
p2438
I6
sS'.P'
p2439
I150
sS'.R'
p2440
I28
sS'.S'
p2441
I5846
sS'.T'
p2442
I191
sS'.U'
p2443
I3
sS'.V'
p2444
I43
sS'.W'
p2445
I35
sS'.i'
p2446
I1
sS'uy'
p2447
I1437
sS'.m'
p2448
I4
sS'uz'
p2449
I140
sS'uu'
p2450
I3
sS'.a'
p2451
I8
sS'.b'
p2452
I4
sS'.c'
p2453
I1
sS'uq'
p2454
I12
sS'.e'
p2455
I1
sS'us'
p2456
I15281
sS'ur'
p2457
I24033
sS'um'
p2458
I5069
sS'.y'
p2459
I1
sS'uo'
p2460
I986
sS'un'
p2461
I16585
sS'ui'
p2462
I5546
sS'uh'
p2463
I79
sS'uk'
p2464
I122
sS'uj'
p2465
I56
sS'.p'
p2466
I3
sS'ud'
p2467
I5070
sS'ug'
p2468
I4314
sS'.s'
p2469
I4
sS'.t'
p2470
I3
sS'uc'
p2471
I8543
sS'.w'
p2472
I1
sS'Ty'
p2473
I13
sS'Tw'
p2474
I90
sS'Tt'
p2475
I27
sS'Tu'
p2476
I446
sS'Tr'
p2477
I1817
sS'Ts'
p2478
I26
sS'To'
p2479
I924
sS'Tl'
p2480
I5
sS'Th'
p2481
I13377
sS'Ti'
p2482
I222
sS' e'
p2483
I26247
sS'Te'
p2484
I1298
sS'Ta'
p2485
I913
sS'A '
p2486
I3900
sS'A"'
p2487
I23
sS'TZ'
p2488
I48
sS"A'"
p2489
I132
sS'A&'
p2490
I2
sS'TV'
p2491
I91
sS'TW'
p2492
I405
sS'TT'
p2493
I736
sS'TU'
p2494
I459
sS'A-'
p2495
I63
sS'A,'
p2496
I113
sS'TP'
p2497
I184
sS'A.'
p2498
I373
sS'A1'
p2499
I1
sS'TO'
p2500
I3910
sS'A3'
p2501
I1
sS'TM'
p2502
I206
sS'TJ'
p2503
I11
sS'TK'
p2504
I16
sS'TH'
p2505
I2118
sS'TI'
p2506
I3040
sS'TF'
p2507
I55
sS'TG'
p2508
I170
sS'TD'
p2509
I259
sS'A:'
p2510
I2
sS'TB'
p2511
I50
sS'TC'
p2512
I385
sS'A>'
p2513
I408
sS'T>'
p2514
I453
sS'o/'
p2515
I32
sS'AC'
p2516
I1573
sS'AB'
p2517
I550
sS'AE'
p2518
I167
sS'AD'
p2519
I1392
sS'AG'
p2520
I981
sS'AF'
p2521
I512
sS'AI'
p2522
I1742
sS'AH'
p2523
I84
sS'AK'
p2524
I832
sS'AJ'
p2525
I73
sS'AM'
p2526
I1019
sS'T3'
p2527
I1
sS'AO'
p2528
I66
sS'T1'
p2529
I1
sS'AQ'
p2530
I59
sS'AP'
p2531
I990
sS'AS'
p2532
I1931
sS'T-'
p2533
I104
sS'AU'
p2534
I400
sS'AT'
p2535
I3527
sS'AW'
p2536
I268
sS'T)'
p2537
I103
sS'T&'
p2538
I9
sS"T'"
p2539
I94
sS'AZ'
p2540
I185
sS'T"'
p2541
I6
sS'T '
p2542
I9061
sS'Aa'
p2543
I7
sS'Ac'
p2544
I402
sS'Ab'
p2545
I169
sS'Ae'
p2546
I76
sS'o)'
p2547
I38
sS'Ag'
p2548
I940
sS'Af'
p2549
I465
sS'Ai'
p2550
I503
sS'Ah'
p2551
I19
sS'Ak'
p2552
I44
sS'TR'
p2553
I4193
sS'Am'
p2554
I1492
sS'Al'
p2555
I1198
sS'Ao'
p2556
I1
sS'An'
p2557
I1159
sS'Aq'
p2558
I35
sS'Ap'
p2559
I2119
sS'As'
p2560
I1225
sS'Ar'
p2561
I794
sS'.\xfc'
p2562
I1
sS'At'
p2563
I444
sS'Aw'
p2564
I5
sS'Av'
p2565
I1216
sS'Ay'
p2566
I22
sS'Ax'
p2567
I7
sS'Az'
p2568
I54
sS'gw'
p2569
I14
sS'gv'
p2570
I5
sS'gu'
p2571
I2724
sS'gt'
p2572
I761
sS'gs'
p2573
I2797
sS'gr'
p2574
I10152
sS' d'
p2575
I41499
sS'gp'
p2576
I12
sS' j'
p2577
I1279
sS'TS'
p2578
I2677
sS' h'
p2579
I24152
sS' i'
p2580
I73221
sS' n'
p2581
I19206
sS'gz'
p2582
I2
sS'gy'
p2583
I921
sS'gx'
p2584
I8
sS'gg'
p2585
I833
sS'gf'
p2586
I20
sS' p'
p2587
I53890
sS'gd'
p2588
I75
sS'gc'
p2589
I10
sS'gb'
p2590
I10
sS'ga'
p2591
I7714
sS' u'
p2592
I9106
sS' z'
p2593
I194
sS'gn'
p2594
I3043
sS' x'
p2595
I8
sS'gl'
p2596
I921
sS'gk'
p2597
I42
sS'gj'
p2598
I4
sS'gi'
p2599
I3838
sS'gh'
p2600
I7393
sS' B'
p2601
I14026
sS' C'
p2602
I23701
sS' A'
p2603
I18927
sS' F'
p2604
I12018
sS' G'
p2605
I8219
sS' D'
p2606
I9542
sS';B'
p2607
I604
sS' J'
p2608
I7676
sS' K'
p2609
I2391
sS' H'
p2610
I7453
sS' I'
p2611
I17359
sS' N'
p2612
I12995
sS' O'
p2613
I7965
sS' L'
p2614
I7596
sS' M'
p2615
I14589
sS' R'
p2616
I11497
sS' S'
p2617
I25615
sS' P'
p2618
I12629
sS' Q'
p2619
I3325
sS' V'
p2620
I1844
sS' W'
p2621
I6103
sS' T'
p2622
I23191
sS' U'
p2623
I11058
sS' Z'
p2624
I542
sS' ['
p2625
I3
sS' X'
p2626
I117
sS' Y'
p2627
I2412
sS'gK'
p2628
I5
sS'o:'
p2629
I2
sS' "'
p2630
I5998
sS'yt'
p2631
I243
sS' &'
p2632
I8577
sS" '"
p2633
I50
sS' $'
p2634
I3
sS'g?'
p2635
I2
sS'g>'
p2636
I2
sS' ('
p2637
I2851
sS' )'
p2638
I3
sS' .'
p2639
I156
sS' /'
p2640
I1
sS' ,'
p2641
I14
sS' -'
p2642
I1907
sS' 2'
p2643
I13919
sS' 3'
p2644
I10766
sS' 0'
p2645
I1635
sS' 1'
p2646
I34689
sS' 6'
p2647
I4291
sS'g"'
p2648
I32
sS' 4'
p2649
I7039
sS' 5'
p2650
I5742
sS' :'
p2651
I3
sS'g.'
p2652
I1140
sS' 8'
p2653
I3222
sS' 9'
p2654
I3081
sS'o5'
p2655
I1
sS'g)'
p2656
I24
sS'o1'
p2657
I1
sS'Er'
p2658
I80
sS'zl'
p2659
I19
sS'zm'
p2660
I6
sS'zn'
p2661
I2
sS'3X'
p2662
I1
sS'zh'
p2663
I11
sS'zi'
p2664
I985
sS'zk'
p2665
I7
sS'3R'
p2666
I528
sS'zg'
p2667
I4
sS'za'
p2668
I789
sS'zb'
p2669
I31
sS'zy'
p2670
I65
sS'3M'
p2671
I2
sS'3C'
p2672
I1
sS'zu'
p2673
I196
sS'zv'
p2674
I5
sS'zw'
p2675
I30
sS'zp'
p2676
I24
sS'zr'
p2677
I4
sS'zs'
p2678
I8
sS' r'
p2679
I33279
sS'3r'
p2680
I61
sS'3p'
p2681
I43
sS'3t'
p2682
I3
sS'3n'
p2683
I1
sS'3m'
p2684
I1
sS';'
p2685
I8764
sS'z,'
p2686
I60
sS'z-'
p2687
I6
sS'z.'
p2688
I24
sS'z)'
p2689
I1
sS"z'"
p2690
I11
sS'z '
p2691
I370
sS'z>'
p2692
I1
sS'3;'
p2693
I1
sS'3:'
p2694
I4
sS'39'
p2695
I735
sS'38'
p2696
I939
sS'33'
p2697
I1033
sS'32'
p2698
I1007
sS'31'
p2699
I2154
sS'30'
p2700
I2792
sS'37'
p2701
I986
sS'36'
p2702
I883
sS'35'
p2703
I1290
sS'34'
p2704
I987
sS'3)'
p2705
I31
sS'3/'
p2706
I505
sS'3.'
p2707
I3368
sS'3-'
p2708
I181
sS'3,'
p2709
I2557
sS'{'
p2710
I1
sS'3 '
p2711
I4967
sS' q'
p2712
I4061
sS'FQ'
p2713
I1
sS'FR'
p2714
I652
sS'FS'
p2715
I112
sS'FT'
p2716
I308
sS'FU'
p2717
I254
sS'FW'
p2718
I16
sS'FX'
p2719
I11
sS'FY'
p2720
I16
sS'FZ'
p2721
I1
sS'FA'
p2722
I620
sS'FB'
p2723
I71
sS'FC'
p2724
I141
sS'FD'
p2725
I52
sS'FE'
p2726
I1628
sS'FF'
p2727
I921
sS'FG'
p2728
I74
sS'FH'
p2729
I48
sS'FI'
p2730
I1583
sS'FJ'
p2731
I2
sS'FK'
p2732
I1
sS'FL'
p2733
I219
sS'FM'
p2734
I48
sS' v'
p2735
I18080
sS'FO'
p2736
I1356
sS'Fr'
p2737
I1334
sS'Fs'
p2738
I1
sS'Fu'
p2739
I540
sS'&'
p2740
I8704
sS'Fa'
p2741
I418
sS'Fe'
p2742
I3127
sS'Fi'
p2743
I1379
sS'Fl'
p2744
I235
sS'Fo'
p2745
I884
sS'Je'
p2746
I186
sS'F1'
p2747
I2
sS'F6'
p2748
I1
sg11
I124359
sS'F>'
p2749
I255
sS'F '
p2750
I1304
sS"F'"
p2751
I18
sS'F)'
p2752
I31
sS'F,'
p2753
I25
sS'F-'
p2754
I19
sS'F.'
p2755
I197
sS'F/'
p2756
I6
sS'YI'
p2757
I92
sS'YH'
p2758
I10
sS'YK'
p2759
I3
sS'YM'
p2760
I107
sS'YL'
p2761
I73
sS'YO'
p2762
I400
sS'YN'
p2763
I108
sS'YA'
p2764
I131
sS'YC'
p2765
I67
sS'YB'
p2766
I91
sS'YE'
p2767
I792
sS'YD'
p2768
I22
sS'YG'
p2769
I5
sS'YF'
p2770
I16
sS'YY'
p2771
I2
sS'YX'
p2772
I4
sS'YZ'
p2773
I2
sS'YQ'
p2774
I1
sS'YP'
p2775
I48
sS'YS'
p2776
I1318
sS'YR'
p2777
I51
sS'YU'
p2778
I16
sS'YT'
p2779
I40
sS'YW'
p2780
I10
sS'YV'
p2781
I2
sS'Yi'
p2782
I27
sS'Yl'
p2783
I1
sS'Yo'
p2784
I533
sS'Ya'
p2785
I117
sS'Ye'
p2786
I932
sS'Yg'
p2787
I2
sS'Yr'
p2788
I3
sS'Yu'
p2789
I75
sS'Yv'
p2790
I1
sS",'"
p2791
I4
sS'Q'
p2792
I4036
sS's?'
p2793
I4
sS'Y)'
p2794
I6
sS'Y-'
p2795
I24
sS'Y,'
p2796
I70
sS'Y/'
p2797
I21
sS'Y.'
p2798
I92
sS'Y '
p2799
I3607
sS"Y'"
p2800
I91
sS'Y&'
p2801
I2
sS's3'
p2802
I1
sS'Y>'
p2803
I202
sS'lC'
p2804
I2
sS'.o'
p2805
I1
sS'lM'
p2806
I5
sS'lT'
p2807
I2
sS'lS'
p2808
I5
sS'dw'
p2809
I307
sS'lf'
p2810
I1528
sS',6'
p2811
I1331
sS'ld'
p2812
I16030
sS'le'
p2813
I26646
sS'lb'
p2814
I329
sS'lc'
p2815
I897
sS';('
p2816
I1
sS'la'
p2817
I20367
sS'ln'
p2818
I18159
sS'lo'
p2819
I18065
sS'll'
p2820
I30303
sS'lm'
p2821
I787
sS'lj'
p2822
I9
sS's)'
p2823
I292
sS'lh'
p2824
I73
sS'li'
p2825
I26697
sS'lv'
p2826
I849
sS'lw'
p2827
I202
sS'lt'
p2828
I13291
sS',5'
p2829
I1512
sS'lr'
p2830
I13620
sS'ls'
p2831
I7793
sS'lp'
p2832
I772
sS'lq'
p2833
I2
sS's/'
p2834
I82
sS'lz'
p2835
I61
sS'lx'
p2836
I3
sS's.'
p2837
I11112
sS'Nc'
p2838
I21
sS's-'
p2839
I219
sS',1'
p2840
I1420
sS"'D"
p2841
I2
sS"l'"
p2842
I388
sS'l"'
p2843
I45
sS'l '
p2844
I41834
sS'Ny'
p2845
I7
sS'l.'
p2846
I1032
sS'l/'
p2847
I30
sS'l,'
p2848
I1474
sS'l-'
p2849
I361
sS'l)'
p2850
I75
sS'l6'
p2851
I1
sS'l>'
p2852
I23
sS'l:'
p2853
I2
sS'l;'
p2854
I1
sS'l9'
p2855
I1
sS'8)'
p2856
I30
sS'8.'
p2857
I2298
sS'8/'
p2858
I26
sS'8,'
p2859
I2075
sS'8-'
p2860
I139
sS'8 '
p2861
I5604
sS"8'"
p2862
I1
sS'8:'
p2863
I12
sS'88'
p2864
I1283
sS',E'
p2865
I3
sS'vi'
p2866
I9715
sS'82'
p2867
I630
sS'83'
p2868
I678
sS'80'
p2869
I1522
sS'81'
p2870
I625
sS'86'
p2871
I5228
sS'87'
p2872
I3912
sS'84'
p2873
I729
sS'85'
p2874
I2558
sS"'"
p2875
I11333
sS'8p'
p2876
I25
sS'8t'
p2877
I4
sS'8K'
p2878
I1
sS'kc'
p2879
I1
sg10
I97038
sS'8C'
p2880
I1
sS'8A'
p2881
I1
sS'8D'
p2882
I1
sS',U'
p2883
I2
sS'8P'
p2884
I2
sS'\xfc'
p2885
I1
sS'K!'
p2886
I2
sS'K '
p2887
I1377
sS"K'"
p2888
I9
sS'K&'
p2889
I3
sS'K)'
p2890
I4
sS'K/'
p2891
I5
sS'K.'
p2892
I738
sS'K-'
p2893
I24
sS'K,'
p2894
I88
sS'3P'
p2895
I2
sS'K>'
p2896
I164
sS'Ka'
p2897
I356
sS'Ke'
p2898
I321
sS'Kj'
p2899
I8
sS'Ki'
p2900
I273
sS'Kh'
p2901
I44
sS'Ko'
p2902
I570
sS'sy'
p2903
I908
sS'Kl'
p2904
I70
sS'Kr'
p2905
I86
sS',e'
p2906
I2
sS'Kw'
p2907
I8
sS'Kv'
p2908
I1
sS'Ku'
p2909
I280
sS' E'
p2910
I9018
sS'Ky'
p2911
I10
sS'KC'
p2912
I14
sS'KB'
p2913
I27
sS'KA'
p2914
I148
sS'KG'
p2915
I51
sS'KF'
p2916
I18
sS'KE'
p2917
I1503
sS'KD'
p2918
I20
sS'KK'
p2919
I20
sS'KJ'
p2920
I1
sS'KI'
p2921
I229
sS'KH'
p2922
I20
sS'KO'
p2923
I146
sS'KN'
p2924
I63
sS'KM'
p2925
I30
sS'KL'
p2926
I129
sS'KS'
p2927
I504
sS'KR'
p2928
I47
sS'KP'
p2929
I22
sS'KW'
p2930
I26
sS'KV'
p2931
I4
sS'KU'
p2932
I50
sS'KT'
p2933
I18
sS'KZ'
p2934
I12
sS'KY'
p2935
I62
sS'KX'
p2936
I2
sS',m'
p2937
I1
sS'*h'
p2938
I2
sS',h'
p2939
I1
sS'.r'
p2940
I1
sS',i'
p2941
I2
sS'sk'
p2942
I1123
sS'*T'
p2943
I1
sS' b'
p2944
I48079
sS',t'
p2945
I1
sS',s'
p2946
I1
sS'^M'
p2947
I17
sS'N1'
p2948
I1
sS'T.'
p2949
I203
sS'('
p2950
I2876
sS'q '
p2951
I152
sS"q'"
p2952
I29
sS'q)'
p2953
I1
sS'q,'
p2954
I26
sS'q.'
p2955
I18
sS'T/'
p2956
I28
sS' k'
p2957
I1153
sS'T,'
p2958
I214
sS'qr'
p2959
I1
sS'qu'
p2960
I8315
sS'qt'
p2961
I549
sg13
I203595
sS'qa'
p2962
I21
sS'qe'
p2963
I2
sS'qi'
p2964
I52
sS'V-'
p2965
I2
sS'Pr'
p2966
I2055
sS'Ps'
p2967
I8
sS'Pt'
p2968
I53
sS'0S'
p2969
I1
sS'Pz'
p2970
I3
sS'Py'
p2971
I15
sS'0P'
p2972
I1
sS'Pa'
p2973
I2275
sS'Pf'
p2974
I4
sS'Pd'
p2975
I2
sS'Pe'
p2976
I1332
sS'mj'
p2977
I23
sS'Ph'
p2978
I341
sS'Pi'
p2979
I391
sS'Pn'
p2980
I3
sS'Po'
p2981
I719
sS'Pl'
p2982
I600
sS'0W'
p2983
I1
sS'PR'
p2984
I1795
sS'PS'
p2985
I380
sS'PP'
p2986
I543
sS'PQ'
p2987
I1
sS'PV'
p2988
I12
sS'PW'
p2989
I26
sS'PT'
p2990
I303
sS'PU'
p2991
I540
sS'PZ'
p2992
I13
sS'PX'
p2993
I6
sS'PY'
p2994
I23
sS'PB'
p2995
I88
sS'PC'
p2996
I1078
sS'PA'
p2997
I1707
sS'PF'
p2998
I21
sS'PG'
p2999
I73
sS'PD'
p3000
I84
sS'PE'
p3001
I1787
sS'PK'
p3002
I13
sS'PH'
p3003
I245
sS'PI'
p3004
I513
sS'PN'
p3005
I69
sS'PO'
p3006
I1399
sS'PL'
p3007
I1263
sS'PM'
p3008
I109
sS'P2'
p3009
I2
sS'lg'
p3010
I298
sS'P>'
p3011
I286
sS'FP'
p3012
I33
sS'P '
p3013
I2573
sS'P&'
p3014
I6
sS"P'"
p3015
I38
sS'P)'
p3016
I85
sS'P.'
p3017
I196
sS'P/'
p3018
I3
sS'P,'
p3019
I63
sS'P-'
p3020
I15
sS'0B'
p3021
I1
sS'ck'
p3022
I6215
sS'ci'
p3023
I11419
sS'ch'
p3024
I19336
sS'co'
p3025
I39468
sS'wq'
p3026
I1
sS'cm'
p3027
I21
sS'cl'
p3028
I6818
sS'cc'
p3029
I2999
sS'ca'
p3030
I14487
sS'cg'
p3031
I2
sS'cf'
p3032
I16
sS'ce'
p3033
I26463
sS'lk'
p3034
I966
sS'cz'
p3035
I5
sS'cy'
p3036
I2247
sS'cx'
p3037
I5
sS'cs'
p3038
I1126
sS'cr'
p3039
I6828
sS'cq'
p3040
I2081
sS'cp'
p3041
I11
sS'cw'
p3042
I21
sS'cv'
p3043
I1
sS'cu'
p3044
I9096
sS'ct'
p3045
I36184
sS'cK'
p3046
I21
sS'cI'
p3047
I25
sS'cN'
p3048
I3
sS'cM'
p3049
I15
sS'cL'
p3050
I18
sS'cC'
p3051
I54
sS'cB'
p3052
I9
sS'cA'
p3053
I25
sS'cG'
p3054
I33
sS'cF'
p3055
I10
sS'cE'
p3056
I5
sS'cD'
p3057
I28
sS'lu'
p3058
I6577
sS'cS'
p3059
I5
sS'cR'
p3060
I1
sS'cT'
p3061
I3
sS'c)'
p3062
I60
sS'c/'
p3063
I3
sS'c.'
p3064
I369
sS'c-'
p3065
I14
sS'c,'
p3066
I508
sS'c"'
p3067
I14
sS'c '
p3068
I6406
sS"c'"
p3069
I147
sS'c&'
p3070
I2
sS'c>'
p3071
I340
sS'ly'
p3072
I15426
sS'~'
p3073
I1
sS'/O'
p3074
I23
sS'/N'
p3075
I23
sS'/M'
p3076
I69
sS'/L'
p3077
I15
sS'/K'
p3078
I2
sS'/J'
p3079
I44
sS'/I'
p3080
I11
sS'/H'
p3081
I8
sS'/G'
p3082
I16
sS'/F'
p3083
I36
sS'/E'
p3084
I6
sS'/D'
p3085
I75
sS'vl'
p3086
I53
sS'vm'
p3087
I1
sS'vn'
p3088
I8
sS'vo'
p3089
I1650
sS'ay'
p3090
I11411
sS'vr'
p3091
I166
sS'vs'
p3092
I16463
sS'vt'
p3093
I6
sS'/Z'
p3094
I1
sS'/Y'
p3095
I1
sS'/X'
p3096
I2
sS'/W'
p3097
I15
sS'/V'
p3098
I34
sS'/U'
p3099
I20
sS'/T'
p3100
I15
sS'/S'
p3101
I207
sS'/R'
p3102
I9
sS'/P'
p3103
I19
sS'/o'
p3104
I26
sS'/n'
p3105
I3
sS'/m'
p3106
I14
sS'/l'
p3107
I11
sS'/h'
p3108
I4
sS'/g'
p3109
I5
sS'/f'
p3110
I3
sS'/e'
p3111
I14
sS'/d'
p3112
I51
sS'/c'
p3113
I18
sS'/b'
p3114
I31
sS'/a'
p3115
I8
sS'/y'
p3116
I21
sS'/w'
p3117
I2
sS'/v'
p3118
I2
sS'/u'
p3119
I3
sS'/t'
p3120
I6
sS'/s'
p3121
I35
sS'/r'
p3122
I2
sS'/p'
p3123
I4
sS'v '
p3124
I852
sS"v'"
p3125
I8
sS'v)'
p3126
I1
sS'v,'
p3127
I16
sS'v-'
p3128
I4
sS'v.'
p3129
I11
sS'v/'
p3130
I2
sS'"z'
p3131
I1
sS'48'
p3132
I873
sg12
I415285
sS'/ '
p3133
I8
sS'/9'
p3134
I122
sS'/8'
p3135
I1696
sS'/7'
p3136
I44
sS'/6'
p3137
I20
sS'/5'
p3138
I38
sS'/4'
p3139
I437
sS'/3'
p3140
I56
sS'/2'
p3141
I480
sS'/1'
p3142
I234
sS'/0'
p3143
I301
sS'BD'
p3144
I43
sS'BE'
p3145
I819
sS'BF'
p3146
I27
sS'BG'
p3147
I30
sS'BA'
p3148
I1480
sS'BB'
p3149
I244
sS'BC'
p3150
I229
sS'BL'
p3151
I438
sS'BM'
p3152
I81
sS'BN'
p3153
I64
sS'BO'
p3154
I597
sS'BH'
p3155
I86
sS'BI'
p3156
I890
sS'BJ'
p3157
I32
sS'aL'
p3158
I1
sS'BT'
p3159
I160
sS'BU'
p3160
I963
sS'BV'
p3161
I19
sS'BW'
p3162
I29
sS'BP'
p3163
I239
sS'BQ'
p3164
I1
sS'BR'
p3165
I699
sS'BS'
p3166
I202
sS'BX'
p3167
I7
sS'BY'
p3168
I222
sS'BZ'
p3169
I5
sS'Be'
p3170
I813
sS'Bf'
p3171
I10
sS'Ba'
p3172
I3614
sS'Bl'
p3173
I127
sS'Bo'
p3174
I991
sS'Bh'
p3175
I11
sS'Bi'
p3176
I195
sS'Bj'
p3177
I3
sS'Bt'
p3178
I6
sS'Bu'
p3179
I2143
sS'Br'
p3180
I2059
sS'By'
p3181
I71
sS'to'
p3182
I55031
sS'T'
p3183
I57439
sS'o.'
p3184
I548
sS"B'"
p3185
I19
sS'B '
p3186
I724
sS'B.'
p3187
I141
sS'B"'
p3188
I47
sS'B,'
p3189
I38
sS'B-'
p3190
I18
sS'7J'
p3191
I1
sS'B/'
p3192
I2
sS'B)'
p3193
I37
sS'B>'
p3194
I233
sg8
I662448
sS'U>'
p3195
I78
sS'U-'
p3196
I6
sS'U,'
p3197
I9
sS'U.'
p3198
I6363
sS'U)'
p3199
I6
sS"U'"
p3200
I5
sS'U '
p3201
I115
sS'tj'
p3202
I1
sS'g;'
p3203
I1
sS'?'
p3204
I27
sS'ps'
p3205
I1311
sS'Ut'
p3206
I75
sS'Uw'
p3207
I1
sS'Uv'
p3208
I1
sS'Up'
p3209
I56
sS'Us'
p3210
I100
sS'Ur'
p3211
I52
sS'Um'
p3212
I1
sS'Ul'
p3213
I27
sS'Un'
p3214
I1878
sS'Ui'
p3215
I2
sS'Uh'
p3216
I1
sS'Uk'
p3217
I6
sS'Ue'
p3218
I2
sS'Ud'
p3219
I2
sS'Ug'
p3220
I33
sS'th'
p3221
I101354
sS'Uc'
p3222
I19
sS'UY'
p3223
I553
sS'UX'
p3224
I19
sS'UZ'
p3225
I21
sS'UU'
p3226
I4
sS'UT'
p3227
I1626
sS'UW'
p3228
I35
sS'UV'
p3229
I30
sS'UQ'
p3230
I2
sS'UP'
p3231
I879
sS'US'
p3232
I2415
sS'UR'
p3233
I1704
sS'UM'
p3234
I485
sS'UL'
p3235
I615
sS'UO'
p3236
I58
sS'UN'
p3237
I1547
sS'UI'
p3238
I665
sS'UH'
p3239
I5
sS'UK'
p3240
I78
sS'UJ'
p3241
I5
sS'UE'
p3242
I326
sS'UD'
p3243
I370
sS'UG'
p3244
I319
sS'UF'
p3245
I109
sS'UA'
p3246
I862
sS'UC'
p3247
I406
sS'UB'
p3248
I239
sS'h:'
p3249
I1
sS'! '
p3250
I1
sS'h>'
p3251
I1
sS'h?'
p3252
I1
sS'el'
p3253
I19296
sS'h3'
p3254
I2
sS'h)'
p3255
I25
sS'h.'
p3256
I750
sS'h/'
p3257
I50
sS'h,'
p3258
I814
sS'h-'
p3259
I235
sS'h"'
p3260
I10
sS'h '
p3261
I23327
sS"h'"
p3262
I106
sS'*'
p3263
I3
sS'hy'
p3264
I334
sS'hr'
p3265
I8086
sS'hs'
p3266
I2082
sS'hp'
p3267
I13
sS'hq'
p3268
I48
sS'hv'
p3269
I20
sS'hw'
p3270
I211
sS'ht'
p3271
I3896
sS'hu'
p3272
I889
sS'hj'
p3273
I1
sS'hk'
p3274
I4
sS'hh'
p3275
I45
sS'hi'
p3276
I17901
sS'hn'
p3277
I703
sS'ho'
p3278
I10429
sS'hl'
p3279
I625
sS'hm'
p3280
I298
sS'hb'
p3281
I37
sS'hc'
p3282
I31
sS'ha'
p3283
I37832
sS'hf'
p3284
I41
sS'hg'
p3285
I6
sS'hd'
p3286
I192
sS'he'
p3287
I94534
sS'-w'
p3288
I198
sS'hR'
p3289
I1
sg15
I4729
sS'hW'
p3290
I1
sS'hT'
p3291
I1
sS'hU'
p3292
I1
sS'hK'
p3293
I9
sS'89'
p3294
I670
sS'!U'
p3295
I2
sS'hM'
p3296
I2
sS'pm'
p3297
I1217
sS'tb'
p3298
I139
sS'4:'
p3299
I6
sS'4;'
p3300
I1
sS'Uf'
p3301
I1
sS'49'
p3302
I791
sS'46'
p3303
I804
sS'47'
p3304
I802
sS'44'
p3305
I784
sS'45'
p3306
I1133
sS'42'
p3307
I845
sS'43'
p3308
I819
sS'40'
p3309
I1785
sS'41'
p3310
I821
sS'4.'
p3311
I2935
sS'4/'
p3312
I225
sS'4,'
p3313
I2345
sS'4-'
p3314
I118
sS'4)'
p3315
I32
sS"4'"
p3316
I2
sS'-p'
p3317
I400
sS'4 '
p3318
I5132
sS'4T'
p3319
I742
sS'4U'
p3320
I2
sS'4R'
p3321
I1
sS'4S'
p3322
I1
sS'U'
p3323
I22216
sS'4G'
p3324
I1
sS'{n'
p3325
I1
sS'VJ'
p3326
I3
sS'4t'
p3327
I114
sS'4r'
p3328
I1
sS'4p'
p3329
I33
sS'g '
p3330
I32067
sS'4a'
p3331
I1
stp3332
Rp3333
(dp3334
S'_N'
p3335
I17309853
sS'_max_cache'
p3336
NsS'_item_cache'
p3337
NsS'_Nr_cache'
p3338
Nsbtp3339
.